---
triple:          'arm64-apple-darwin'
binary-path:     '/Users/rishabh/Desktop/2025_iOS/whisper.cpp/build-visionos-sim/framework/whisper.framework/whisper'
relocations:
  - { offset: 0x52, size: 0x8, addend: 0x0, symName: __MergedGlobals, symObjAddr: 0x571FE0, symBinAddr: 0x1A4740, symSize: 0x0 }
  - { offset: 0x17F51, size: 0x8, addend: 0x0, symName: __ZNSt3__1L19piecewise_constructE, symObjAddr: 0x423E8, symBinAddr: 0x10AF88, symSize: 0x0 }
  - { offset: 0x5EB48, size: 0x8, addend: 0x0, symName: '__ZNSt3__111__introsortINS_17_ClassicAlgPolicyERZL11whisper_vadP15whisper_contextP13whisper_state19whisper_full_paramsPKfiRNS_6vectorIfNS_9allocatorIfEEEEE3$_0P16vad_time_mappingLb0EEEvT1_SI_T0_NS_15iterator_traitsISI_E15difference_typeEb', symObjAddr: 0x31D80, symBinAddr: 0x32AA8, symSize: 0xAFC }
  - { offset: 0x60285, size: 0x8, addend: 0x0, symName: '__ZNSt3__127__insertion_sort_incompleteB8ne190102INS_17_ClassicAlgPolicyERZL11whisper_vadP15whisper_contextP13whisper_state19whisper_full_paramsPKfiRNS_6vectorIfNS_9allocatorIfEEEEE3$_0P16vad_time_mappingEEbT1_SI_T0_', symObjAddr: 0x3287C, symBinAddr: 0x335A4, symSize: 0x348 }
  - { offset: 0x65DA5, size: 0x8, addend: 0x0, symName: '__ZNSt3__111__introsortINS_17_ClassicAlgPolicyERZ35whisper_lang_auto_detect_with_stateE3$_0P12whisper_pairIdiELb0EEEvT1_S7_T0_NS_15iterator_traitsIS7_E15difference_typeEb', symObjAddr: 0x3530C, symBinAddr: 0x36034, symSize: 0xD94 }
  - { offset: 0x67502, size: 0x8, addend: 0x0, symName: '__ZNSt3__127__insertion_sort_incompleteB8ne190102INS_17_ClassicAlgPolicyERZ35whisper_lang_auto_detect_with_stateE3$_0P12whisper_pairIdiEEEbT1_S7_T0_', symObjAddr: 0x360A0, symBinAddr: 0x36DC8, symSize: 0x490 }
  - { offset: 0x6C57A, size: 0x8, addend: 0x0, symName: '__ZNSt3__111__introsortINS_17_ClassicAlgPolicyERZ23whisper_full_with_stateE3$_1PZ23whisper_full_with_stateE14beam_candidateLb0EEEvT1_S6_T0_NS_15iterator_traitsIS6_E15difference_typeEb', symObjAddr: 0x37708, symBinAddr: 0x38430, symSize: 0x1B68 }
  - { offset: 0x73FBC, size: 0x8, addend: 0x0, symName: '__ZNSt3__127__insertion_sort_incompleteB8ne190102INS_17_ClassicAlgPolicyERZ23whisper_full_with_stateE3$_1PZ23whisper_full_with_stateE14beam_candidateEEbT1_S6_T0_', symObjAddr: 0x394B4, symBinAddr: 0x3A1DC, symSize: 0x40C }
  - { offset: 0x7B982, size: 0x8, addend: 0x0, symName: __ZNSt3__120__throw_out_of_rangeB8ne190102EPKc, symObjAddr: 0x1B82C, symBinAddr: 0x1C554, symSize: 0x50 }
  - { offset: 0x7BB4E, size: 0x8, addend: 0x0, symName: __ZNSt3__125__throw_bad_function_callB8ne190102Ev, symObjAddr: 0x1B8C8, symBinAddr: 0x1C5F0, symSize: 0x34 }
  - { offset: 0x7BE73, size: 0x8, addend: 0x0, symName: __ZNSt3__127__tree_balance_after_insertB8ne190102IPNS_16__tree_node_baseIPvEEEEvT_S5_, symObjAddr: 0x1AB88, symBinAddr: 0x1B8B0, symSize: 0x1B4 }
  - { offset: 0x7C949, size: 0x8, addend: 0x0, symName: __ZNSt3__113__tree_removeB8ne190102IPNS_16__tree_node_baseIPvEEEEvT_S5_, symObjAddr: 0x1E924, symBinAddr: 0x1F64C, symSize: 0x3C0 }
  - { offset: 0x81F41, size: 0x8, addend: 0x0, symName: __ZNSt3__18__rotateB8ne190102INS_17_ClassicAlgPolicyENS_11__wrap_iterIPiEES4_EENS_4pairIT0_S6_EES6_S6_T1_, symObjAddr: 0x36EE4, symBinAddr: 0x37C0C, symSize: 0x1B8 }
  - { offset: 0x82A0B, size: 0x8, addend: 0x0, symName: __ZNSt3__111regex_matchB8ne190102INS_11__wrap_iterIPKcEEcNS_12regex_traitsIcEEEEbT_S7_RKNS_11basic_regexIT0_T1_EENS_15regex_constants15match_flag_typeE, symObjAddr: 0x2F360, symBinAddr: 0x30088, symSize: 0x108 }
  - { offset: 0x85446, size: 0x8, addend: 0x0, symName: __ZNSt3__120__throw_length_errorB8ne190102EPKc, symObjAddr: 0x1B31C, symBinAddr: 0x1C044, symSize: 0x50 }
  - { offset: 0x861E1, size: 0x8, addend: 0x0, symName: __ZNSt3__114__thread_proxyB8ne190102INS_5tupleIJNS_10unique_ptrINS_15__thread_structENS_14default_deleteIS3_EEEEPFviPKfRKNS_6vectorIfNS_9allocatorIfEEEEiiiiRK15whisper_filtersR11whisper_melEiS8_NS_17reference_wrapperISD_EExiiiNSM_ISG_EENSM_ISI_EEEEEEEPvSR_, symObjAddr: 0x1DE10, symBinAddr: 0x1EB38, symSize: 0x94 }
  - { offset: 0x8668E, size: 0x8, addend: 0x0, symName: __ZNSt3__119__throw_regex_errorB8ne190102ILNS_15regex_constants10error_typeE17EEEvv, symObjAddr: 0x1FC90, symBinAddr: 0x209B8, symSize: 0x4C }
  - { offset: 0x8745A, size: 0x8, addend: 0x0, symName: __ZNSt3__119__throw_regex_errorB8ne190102ILNS_15regex_constants10error_typeE14EEEvv, symObjAddr: 0x205A8, symBinAddr: 0x212D0, symSize: 0x4C }
  - { offset: 0x87734, size: 0x8, addend: 0x0, symName: __ZNSt3__119__throw_regex_errorB8ne190102ILNS_15regex_constants10error_typeE15EEEvv, symObjAddr: 0x278C4, symBinAddr: 0x285EC, symSize: 0x4C }
  - { offset: 0x87A79, size: 0x8, addend: 0x0, symName: __ZNSt3__119__throw_regex_errorB8ne190102ILNS_15regex_constants10error_typeE6EEEvv, symObjAddr: 0x212A8, symBinAddr: 0x21FD0, symSize: 0x4C }
  - { offset: 0x87C1F, size: 0x8, addend: 0x0, symName: __ZNSt3__119__throw_regex_errorB8ne190102ILNS_15regex_constants10error_typeE11EEEvv, symObjAddr: 0x22B3C, symBinAddr: 0x23864, symSize: 0x4C }
  - { offset: 0x87C63, size: 0x8, addend: 0x0, symName: __ZNSt3__119__throw_regex_errorB8ne190102ILNS_15regex_constants10error_typeE8EEEvv, symObjAddr: 0x27284, symBinAddr: 0x27FAC, symSize: 0x4C }
  - { offset: 0x87C89, size: 0x8, addend: 0x0, symName: __ZNSt3__119__throw_regex_errorB8ne190102ILNS_15regex_constants10error_typeE7EEEvv, symObjAddr: 0x272D0, symBinAddr: 0x27FF8, symSize: 0x4C }
  - { offset: 0x87DB7, size: 0x8, addend: 0x0, symName: __ZNSt3__119__throw_regex_errorB8ne190102ILNS_15regex_constants10error_typeE12EEEvv, symObjAddr: 0x2201C, symBinAddr: 0x22D44, symSize: 0x4C }
  - { offset: 0x87DDD, size: 0x8, addend: 0x0, symName: __ZNSt3__119__throw_regex_errorB8ne190102ILNS_15regex_constants10error_typeE16EEEvv, symObjAddr: 0x22068, symBinAddr: 0x22D90, symSize: 0x4C }
  - { offset: 0x88662, size: 0x8, addend: 0x0, symName: __ZNSt3__119__throw_regex_errorB8ne190102ILNS_15regex_constants10error_typeE4EEEvv, symObjAddr: 0x23404, symBinAddr: 0x2412C, symSize: 0x4C }
  - { offset: 0x88688, size: 0x8, addend: 0x0, symName: __ZNSt3__119__throw_regex_errorB8ne190102ILNS_15regex_constants10error_typeE3EEEvv, symObjAddr: 0x22C94, symBinAddr: 0x239BC, symSize: 0x4C }
  - { offset: 0x886AE, size: 0x8, addend: 0x0, symName: __ZNSt3__119__throw_regex_errorB8ne190102ILNS_15regex_constants10error_typeE5EEEvv, symObjAddr: 0x24F80, symBinAddr: 0x25CA8, symSize: 0x4C }
  - { offset: 0x89239, size: 0x8, addend: 0x0, symName: __ZNSt3__119__throw_regex_errorB8ne190102ILNS_15regex_constants10error_typeE1EEEvv, symObjAddr: 0x264E4, symBinAddr: 0x2720C, symSize: 0x4C }
  - { offset: 0x8925F, size: 0x8, addend: 0x0, symName: __ZNSt3__119__throw_regex_errorB8ne190102ILNS_15regex_constants10error_typeE2EEEvv, symObjAddr: 0x26AE4, symBinAddr: 0x2780C, symSize: 0x4C }
  - { offset: 0x893B4, size: 0x8, addend: 0x0, symName: __ZNSt3__119__throw_regex_errorB8ne190102ILNS_15regex_constants10error_typeE9EEEvv, symObjAddr: 0x26F50, symBinAddr: 0x27C78, symSize: 0x4C }
  - { offset: 0x8B61B, size: 0x8, addend: 0x0, symName: __ZNSt3__135__uninitialized_allocator_copy_implB8ne190102INS_9allocatorINS_6vectorI23whisper_grammar_elementNS1_IS3_EEEEEEPS5_S7_S7_EET2_RT_T0_T1_S8_, symObjAddr: 0x30E6C, symBinAddr: 0x31B94, symSize: 0xFC }
  - { offset: 0x8BB96, size: 0x8, addend: 0x0, symName: __ZNSt3__135__uninitialized_allocator_copy_implB8ne190102INS_9allocatorINS_6vectorIPK23whisper_grammar_elementNS1_IS5_EEEEEEPS7_S9_S9_EET2_RT_T0_T1_SA_, symObjAddr: 0x31058, symBinAddr: 0x31D80, symSize: 0xFC }
  - { offset: 0x8D59A, size: 0x8, addend: 0x0, symName: '__ZNSt3__17__sort4B8ne190102INS_17_ClassicAlgPolicyERZL11whisper_vadP15whisper_contextP13whisper_state19whisper_full_paramsPKfiRNS_6vectorIfNS_9allocatorIfEEEEE3$_0P16vad_time_mappingEEvT1_SI_SI_SI_T0_', symObjAddr: 0x32BC4, symBinAddr: 0x338EC, symSize: 0x104 }
  - { offset: 0x8EB2B, size: 0x8, addend: 0x0, symName: '__ZNSt3__17__sort4B8ne190102INS_17_ClassicAlgPolicyERZ35whisper_lang_auto_detect_with_stateE3$_0P12whisper_pairIdiEEEvT1_S7_S7_S7_T0_', symObjAddr: 0x36530, symBinAddr: 0x37258, symSize: 0x1B8 }
  - { offset: 0x9020B, size: 0x8, addend: 0x0, symName: '__ZNSt3__114__thread_proxyB8ne190102INS_5tupleIJNS_10unique_ptrINS_15__thread_structENS_14default_deleteIS3_EEEEZ23whisper_full_with_stateE3$_0EEEEEPvS9_', symObjAddr: 0x37648, symBinAddr: 0x38370, symSize: 0x78 }
  - { offset: 0x90D9E, size: 0x8, addend: 0x0, symName: '__ZNSt3__17__sort3B8ne190102INS_17_ClassicAlgPolicyERZ23whisper_full_with_stateE3$_1PZ23whisper_full_with_stateE14beam_candidateEEjT1_S6_S6_T0_', symObjAddr: 0x393A0, symBinAddr: 0x3A0C8, symSize: 0x114 }
  - { offset: 0x90F42, size: 0x8, addend: 0x0, symName: __ZNSt3__19iter_swapB8ne190102IPZ23whisper_full_with_stateE14beam_candidateS2_EEvT_T0_, symObjAddr: 0x398C0, symBinAddr: 0x3A5E8, symSize: 0x1FC }
  - { offset: 0x919DB, size: 0x8, addend: 0x0, symName: '__ZNSt3__124__sort5_maybe_branchlessB8ne190102INS_17_ClassicAlgPolicyERZ23whisper_full_with_stateE3$_1PZ23whisper_full_with_stateE14beam_candidateLi0EEEvT1_S6_S6_S6_S6_T0_', symObjAddr: 0x39270, symBinAddr: 0x39F98, symSize: 0x130 }
  - { offset: 0x91BFE, size: 0x8, addend: 0x0, symName: '__ZNSt3__17__sort4B8ne190102INS_17_ClassicAlgPolicyERZ23whisper_full_with_stateE3$_1PZ23whisper_full_with_stateE14beam_candidateEEvT1_S6_S6_S6_T0_', symObjAddr: 0x39ABC, symBinAddr: 0x3A7E4, symSize: 0xE8 }
  - { offset: 0x91E83, size: 0x8, addend: 0x0, symName: '__ZNSt3__114__thread_proxyB8ne190102INS_5tupleIJNS_10unique_ptrINS_15__thread_structENS_14default_deleteIS3_EEEEZ23whisper_full_with_stateE3$_2EEEEEPvS9_', symObjAddr: 0x39BA4, symBinAddr: 0x3A8CC, symSize: 0x130 }
  - { offset: 0x92890, size: 0x8, addend: 0x0, symName: __ZNSt3__114__thread_proxyB8ne190102INS_5tupleIJNS_10unique_ptrINS_15__thread_structENS_14default_deleteIS3_EEEEPFiP15whisper_contextP13whisper_state19whisper_full_paramsPKfiES8_SA_SB_SD_iEEEEEPvSH_, symObjAddr: 0x39E58, symBinAddr: 0x3AB80, symSize: 0xB0 }
  - { offset: 0x92D1A, size: 0x8, addend: 0x0, symName: '__ZNSt3__114__thread_proxyB8ne190102INS_5tupleIJNS_10unique_ptrINS_15__thread_structENS_14default_deleteIS3_EEEEZ24whisper_bench_memcpy_strE3$_0iEEEEEPvS9_', symObjAddr: 0x39F50, symBinAddr: 0x3AC78, symSize: 0x120 }
  - { offset: 0x96794, size: 0x8, addend: 0x0, symName: __ZSt28__throw_bad_array_new_lengthB8ne190102v, symObjAddr: 0x1AB60, symBinAddr: 0x1B888, symSize: 0x28 }
  - { offset: 0x9725E, size: 0x8, addend: 0x0, symName: __MergedGlobals, symObjAddr: 0x571FE0, symBinAddr: 0x1A4740, symSize: 0x0 }
  - { offset: 0x97879, size: 0x8, addend: 0x0, symName: __MergedGlobals, symObjAddr: 0x571FE0, symBinAddr: 0x1A4740, symSize: 0x0 }
  - { offset: 0x97D17, size: 0x8, addend: 0x0, symName: __MergedGlobals, symObjAddr: 0x571FE0, symBinAddr: 0x1A4740, symSize: 0x0 }
  - { offset: 0x98134, size: 0x8, addend: 0x0, symName: __MergedGlobals, symObjAddr: 0x571FE0, symBinAddr: 0x1A4740, symSize: 0x0 }
  - { offset: 0x98750, size: 0x8, addend: 0x0, symName: __MergedGlobals, symObjAddr: 0x571FE0, symBinAddr: 0x1A4740, symSize: 0x0 }
  - { offset: 0x98B9C, size: 0x8, addend: 0x0, symName: __MergedGlobals, symObjAddr: 0x571FE0, symBinAddr: 0x1A4740, symSize: 0x0 }
  - { offset: 0x99099, size: 0x8, addend: 0x0, symName: __ZN12_GLOBAL__N_112global_cacheE, symObjAddr: 0x570D18, symBinAddr: 0x1A3478, symSize: 0x0 }
  - { offset: 0x99144, size: 0x8, addend: 0x0, symName: _whisper_print_system_info, symObjAddr: 0x83AC, symBinAddr: 0x90D4, symSize: 0x398 }
  - { offset: 0x9916C, size: 0x8, addend: 0x0, symName: __MergedGlobals, symObjAddr: 0x571FE0, symBinAddr: 0x1A4740, symSize: 0x0 }
  - { offset: 0x99F5D, size: 0x8, addend: 0x0, symName: __MergedGlobals, symObjAddr: 0x571FE0, symBinAddr: 0x1A4740, symSize: 0x0 }
  - { offset: 0x9A14D, size: 0x8, addend: 0x0, symName: _whisper_bench_memcpy_str, symObjAddr: 0x18E54, symBinAddr: 0x19B7C, symSize: 0x1210 }
  - { offset: 0x9A175, size: 0x8, addend: 0x0, symName: __MergedGlobals, symObjAddr: 0x571FE0, symBinAddr: 0x1A4740, symSize: 0x0 }
  - { offset: 0x9B276, size: 0x8, addend: 0x0, symName: _whisper_bench_ggml_mul_mat_str, symObjAddr: 0x1A08C, symBinAddr: 0x1ADB4, symSize: 0x68C }
  - { offset: 0x9B29E, size: 0x8, addend: 0x0, symName: __MergedGlobals, symObjAddr: 0x571FE0, symBinAddr: 0x1A4740, symSize: 0x0 }
  - { offset: 0x9C595, size: 0x8, addend: 0x0, symName: __ZL16g_aheads_tiny_en, symObjAddr: 0x41F98, symBinAddr: 0x10AB38, symSize: 0x0 }
  - { offset: 0x9C5BE, size: 0x8, addend: 0x0, symName: __ZL13g_aheads_tiny, symObjAddr: 0x41FD8, symBinAddr: 0x10AB78, symSize: 0x0 }
  - { offset: 0x9C5E7, size: 0x8, addend: 0x0, symName: __ZL16g_aheads_base_en, symObjAddr: 0x42008, symBinAddr: 0x10ABA8, symSize: 0x0 }
  - { offset: 0x9C610, size: 0x8, addend: 0x0, symName: __ZL13g_aheads_base, symObjAddr: 0x42030, symBinAddr: 0x10ABD0, symSize: 0x0 }
  - { offset: 0x9C62B, size: 0x8, addend: 0x0, symName: __ZL17g_aheads_small_en, symObjAddr: 0x42070, symBinAddr: 0x10AC10, symSize: 0x0 }
  - { offset: 0x9C654, size: 0x8, addend: 0x0, symName: __ZL14g_aheads_small, symObjAddr: 0x42108, symBinAddr: 0x10ACA8, symSize: 0x0 }
  - { offset: 0x9C67D, size: 0x8, addend: 0x0, symName: __ZL18g_aheads_medium_en, symObjAddr: 0x42158, symBinAddr: 0x10ACF8, symSize: 0x0 }
  - { offset: 0x9C6A6, size: 0x8, addend: 0x0, symName: __ZL15g_aheads_medium, symObjAddr: 0x421E8, symBinAddr: 0x10AD88, symSize: 0x0 }
  - { offset: 0x9C6C1, size: 0x8, addend: 0x0, symName: __ZL17g_aheads_large_v1, symObjAddr: 0x42218, symBinAddr: 0x10ADB8, symSize: 0x0 }
  - { offset: 0x9C6EA, size: 0x8, addend: 0x0, symName: __ZL17g_aheads_large_v2, symObjAddr: 0x42260, symBinAddr: 0x10AE00, symSize: 0x0 }
  - { offset: 0x9C713, size: 0x8, addend: 0x0, symName: __ZL17g_aheads_large_v3, symObjAddr: 0x42318, symBinAddr: 0x10AEB8, symSize: 0x0 }
  - { offset: 0x9C72E, size: 0x8, addend: 0x0, symName: __ZL23g_aheads_large_v3_turbo, symObjAddr: 0x42368, symBinAddr: 0x10AF08, symSize: 0x0 }
  - { offset: 0x9C747, size: 0x8, addend: 0x0, symName: __ZL27whisper_build_graph_encoderR15whisper_contextR13whisper_state, symObjAddr: 0x1E08C, symBinAddr: 0x1EDB4, symSize: 0x5D0 }
  - { offset: 0x9D13A, size: 0x8, addend: 0x0, symName: __ZL25whisper_build_graph_crossR15whisper_contextR13whisper_state, symObjAddr: 0x1E65C, symBinAddr: 0x1F384, symSize: 0x2C8 }
  - { offset: 0x9D5C7, size: 0x8, addend: 0x0, symName: __ZL11decode_utf8PKc20whisper_partial_utf8, symObjAddr: 0x2F468, symBinAddr: 0x30190, symSize: 0x3D0 }
  - { offset: 0x9D5F3, size: 0x8, addend: 0x0, symName: __ZZL11decode_utf8PKc20whisper_partial_utf8E6lookup, symObjAddr: 0x42920, symBinAddr: 0x10B4C0, symSize: 0x0 }
  - { offset: 0x9EAF1, size: 0x8, addend: 0x0, symName: __ZL7g_state.0, symObjAddr: 0x42B40, symBinAddr: 0x138388, symSize: 0x0 }
  - { offset: 0x9EAFC, size: 0x8, addend: 0x0, symName: __ZL7g_state.1, symObjAddr: 0x571FD8, symBinAddr: 0x1A4738, symSize: 0x0 }
  - { offset: 0x9EB92, size: 0x8, addend: 0x0, symName: _whisper_vad_segments_from_probs, symObjAddr: 0xB708, symBinAddr: 0xC430, symSize: 0xAA8 }
  - { offset: 0xA222D, size: 0x8, addend: 0x0, symName: _whisper_init_from_buffer_with_params_no_state, symObjAddr: 0x4674, symBinAddr: 0x539C, symSize: 0x88 }
  - { offset: 0xA6ED6, size: 0x8, addend: 0x0, symName: _whisper_full_with_state, symObjAddr: 0xC6AC, symBinAddr: 0xD3D4, symSize: 0x6B2C }
  - { offset: 0xC0672, size: 0x8, addend: 0x0, symName: _whisper_init_state, symObjAddr: 0x218, symBinAddr: 0xF40, symSize: 0x12E8 }
  - { offset: 0xC6BA4, size: 0x8, addend: 0x0, symName: __ZNSt3__13mapI10asr_systemNS0_I10asr_tensorPKcNS_4lessIS2_EENS_9allocatorINS_4pairIKS2_S4_EEEEEENS5_IS1_EENS7_INS8_IKS1_SC_EEEEED1B8ne190102Ev, symObjAddr: 0x0, symBinAddr: 0xD28, symSize: 0x28 }
  - { offset: 0xC6C62, size: 0x8, addend: 0x0, symName: __ZNSt3__16__treeINS_12__value_typeI10asr_systemNS_3mapI10asr_tensorPKcNS_4lessIS4_EENS_9allocatorINS_4pairIKS4_S6_EEEEEEEENS_19__map_value_compareIS2_SF_NS7_IS2_EELb1EEENS9_ISF_EEE7destroyEPNS_11__tree_nodeISF_PvEE, symObjAddr: 0x334B8, symBinAddr: 0x341E0, symSize: 0x50 }
  - { offset: 0xC6F08, size: 0x8, addend: 0x0, symName: __ZNSt3__13mapI10asr_tensor7ggml_opNS_4lessIS1_EENS_9allocatorINS_4pairIKS1_S2_EEEEED1B8ne190102Ev, symObjAddr: 0x28, symBinAddr: 0xD50, symSize: 0x28 }
  - { offset: 0xC6FC6, size: 0x8, addend: 0x0, symName: __ZNSt3__16__treeINS_12__value_typeI10asr_tensor7ggml_opEENS_19__map_value_compareIS2_S4_NS_4lessIS2_EELb1EEENS_9allocatorIS4_EEE7destroyEPNS_11__tree_nodeIS4_PvEE, symObjAddr: 0x337AC, symBinAddr: 0x344D4, symSize: 0x44 }
  - { offset: 0xC7185, size: 0x8, addend: 0x0, symName: __ZNSt3__13mapI10vad_tensor7ggml_opNS_4lessIS1_EENS_9allocatorINS_4pairIKS1_S2_EEEEED1B8ne190102Ev, symObjAddr: 0x50, symBinAddr: 0xD78, symSize: 0x28 }
  - { offset: 0xC7243, size: 0x8, addend: 0x0, symName: __ZNSt3__16__treeINS_12__value_typeI10vad_tensor7ggml_opEENS_19__map_value_compareIS2_S4_NS_4lessIS2_EELb1EEENS_9allocatorIS4_EEE7destroyEPNS_11__tree_nodeIS4_PvEE, symObjAddr: 0x33A94, symBinAddr: 0x347BC, symSize: 0x44 }
  - { offset: 0xC7402, size: 0x8, addend: 0x0, symName: __ZNSt3__13mapI10vad_tensorPKcNS_4lessIS1_EENS_9allocatorINS_4pairIKS1_S3_EEEEED1B8ne190102Ev, symObjAddr: 0x78, symBinAddr: 0xDA0, symSize: 0x28 }
  - { offset: 0xC74C0, size: 0x8, addend: 0x0, symName: __ZNSt3__16__treeINS_12__value_typeI10vad_tensorPKcEENS_19__map_value_compareIS2_S5_NS_4lessIS2_EELb1EEENS_9allocatorIS5_EEE7destroyEPNS_11__tree_nodeIS5_PvEE, symObjAddr: 0x33D7C, symBinAddr: 0x34AA4, symSize: 0x44 }
  - { offset: 0xC767F, size: 0x8, addend: 0x0, symName: __ZNSt3__13mapI7e_modelNS_12basic_stringIcNS_11char_traitsIcEENS_9allocatorIcEEEENS_4lessIS1_EENS5_INS_4pairIKS1_S7_EEEEED1B8ne190102Ev, symObjAddr: 0xA0, symBinAddr: 0xDC8, symSize: 0x28 }
  - { offset: 0xC773D, size: 0x8, addend: 0x0, symName: __ZNSt3__16__treeINS_12__value_typeI7e_modelNS_12basic_stringIcNS_11char_traitsIcEENS_9allocatorIcEEEEEENS_19__map_value_compareIS2_S9_NS_4lessIS2_EELb1EEENS6_IS9_EEE7destroyEPNS_11__tree_nodeIS9_PvEE, symObjAddr: 0x340E8, symBinAddr: 0x34E10, symSize: 0x60 }
  - { offset: 0xC7B7B, size: 0x8, addend: 0x0, symName: __ZNSt3__112basic_stringIcNS_11char_traitsIcEENS_9allocatorIcEEEC1B8ne190102ILi0EEEPKc, symObjAddr: 0xC8, symBinAddr: 0xDF0, symSize: 0xA8 }
  - { offset: 0xC7E0C, size: 0x8, addend: 0x0, symName: __ZNSt3__14pairIKNS_12basic_stringIcNS_11char_traitsIcEENS_9allocatorIcEEEENS0_IiS6_EEED1Ev, symObjAddr: 0x170, symBinAddr: 0xE98, symSize: 0x58 }
  - { offset: 0xC7E31, size: 0x8, addend: 0x0, symName: __ZNKSt3__112basic_stringIcNS_11char_traitsIcEENS_9allocatorIcEEE20__throw_length_errorB8ne190102Ev, symObjAddr: 0x1DF28, symBinAddr: 0x1EC50, symSize: 0x14 }
  - { offset: 0xC7E5B, size: 0x8, addend: 0x0, symName: __ZL24whisper_build_graph_convR15whisper_contextR13whisper_state, symObjAddr: 0x1DF3C, symBinAddr: 0x1EC64, symSize: 0x150 }
  - { offset: 0xC7F78, size: 0x8, addend: 0x0, symName: __ZNSt3__14pairIKNS_12basic_stringIcNS_11char_traitsIcEENS_9allocatorIcEEEENS0_IiS6_EEED1Ev, symObjAddr: 0x170, symBinAddr: 0xE98, symSize: 0x58 }
  - { offset: 0xC8299, size: 0x8, addend: 0x0, symName: __ZNSt3__13mapINS_12basic_stringIcNS_11char_traitsIcEENS_9allocatorIcEEEENS_4pairIiS6_EENS_4lessIS6_EENS4_INS7_IKS6_S8_EEEEED1B8ne190102Ev, symObjAddr: 0x1C8, symBinAddr: 0xEF0, symSize: 0x28 }
  - { offset: 0xC8357, size: 0x8, addend: 0x0, symName: __ZNSt3__16__treeINS_12__value_typeINS_12basic_stringIcNS_11char_traitsIcEENS_9allocatorIcEEEENS_4pairIiS7_EEEENS_19__map_value_compareIS7_SA_NS_4lessIS7_EELb1EEENS5_ISA_EEE7destroyEPNS_11__tree_nodeISA_PvEE, symObjAddr: 0x3482C, symBinAddr: 0x35554, symSize: 0x78 }
  - { offset: 0xC87C9, size: 0x8, addend: 0x0, symName: __ZNSt3__13mapI30whisper_alignment_heads_preset14whisper_aheadsNS_4lessIS1_EENS_9allocatorINS_4pairIKS1_S2_EEEEED1B8ne190102Ev, symObjAddr: 0x1F0, symBinAddr: 0xF18, symSize: 0x28 }
  - { offset: 0xC8887, size: 0x8, addend: 0x0, symName: __ZNSt3__16__treeINS_12__value_typeI30whisper_alignment_heads_preset14whisper_aheadsEENS_19__map_value_compareIS2_S4_NS_4lessIS2_EELb1EEENS_9allocatorIS4_EEE7destroyEPNS_11__tree_nodeIS4_PvEE, symObjAddr: 0x34B54, symBinAddr: 0x3587C, symSize: 0x44 }
  - { offset: 0xCAB29, size: 0x8, addend: 0x0, symName: __ZN13whisper_stateC2Ev, symObjAddr: 0x1AD80, symBinAddr: 0x1BAA8, symSize: 0x434 }
  - { offset: 0xCB06F, size: 0x8, addend: 0x0, symName: __ZL20whisper_backend_initRK22whisper_context_params, symObjAddr: 0x1500, symBinAddr: 0x2228, symSize: 0x48C }
  - { offset: 0xCC0DA, size: 0x8, addend: 0x0, symName: __ZL21whisper_kv_cache_initR16whisper_kv_cacheP12ggml_backend9ggml_typexxi, symObjAddr: 0x1BA0, symBinAddr: 0x28C8, symSize: 0x288 }
  - { offset: 0xCCAD5, size: 0x8, addend: 0x0, symName: __ZL19aheads_masks_nbytesR20whisper_aheads_masks, symObjAddr: 0x1E28, symBinAddr: 0x2B50, symSize: 0x6C }
  - { offset: 0xCCAFE, size: 0x8, addend: 0x0, symName: __ZL20whisper_log_internal14ggml_log_levelPKcz, symObjAddr: 0x198C, symBinAddr: 0x26B4, symSize: 0x100 }
  - { offset: 0xCCC07, size: 0x8, addend: 0x0, symName: _whisper_free_state, symObjAddr: 0x1A8C, symBinAddr: 0x27B4, symSize: 0x114 }
  - { offset: 0xCCED3, size: 0x8, addend: 0x0, symName: __ZL28get_alignment_heads_by_layerRK22whisper_context_paramsiii, symObjAddr: 0x1B57C, symBinAddr: 0x1C2A4, symSize: 0x2B0 }
  - { offset: 0xCDA2E, size: 0x8, addend: 0x0, symName: __ZNSt3__16vectorIfNS_9allocatorIfEEE8__appendEm, symObjAddr: 0x34B98, symBinAddr: 0x358C0, symSize: 0x124 }
  - { offset: 0xCDE72, size: 0x8, addend: 0x0, symName: __ZNSt3__16__treeINS_12__value_typeIP24ggml_backend_buffer_typeP12ggml_contextEENS_19__map_value_compareIS3_S6_NS_4lessIS3_EELb1EEENS_9allocatorIS6_EEE7destroyEPNS_11__tree_nodeIS6_PvEE, symObjAddr: 0x34CBC, symBinAddr: 0x359E4, symSize: 0x44 }
  - { offset: 0xCDE99, size: 0x8, addend: 0x0, symName: __ZL19aheads_masks_nbytesR20whisper_aheads_masks, symObjAddr: 0x1E28, symBinAddr: 0x2B50, symSize: 0x6C }
  - { offset: 0xCDF34, size: 0x8, addend: 0x0, symName: __ZL24whisper_sched_graph_initR13whisper_schedNSt3__16vectorIP12ggml_backendNS1_9allocatorIS4_EEEEONS1_8functionIFP11ggml_cgraphvEEE, symObjAddr: 0x1E94, symBinAddr: 0x2BBC, symSize: 0x18C }
  - { offset: 0xCE53C, size: 0x8, addend: 0x0, symName: __ZNSt3__16vectorIP12ggml_backendNS_9allocatorIS2_EEEC1ERKS5_, symObjAddr: 0x2020, symBinAddr: 0x2D48, symSize: 0x8C }
  - { offset: 0xCE58A, size: 0x8, addend: 0x0, symName: __ZL18whisper_sched_sizeR13whisper_sched, symObjAddr: 0x20AC, symBinAddr: 0x2DD4, symSize: 0x74 }
  - { offset: 0xCE636, size: 0x8, addend: 0x0, symName: __ZNSt3__16vectorIP12ggml_backendNS_9allocatorIS2_EEEC1ERKS5_, symObjAddr: 0x2020, symBinAddr: 0x2D48, symSize: 0x8C }
  - { offset: 0xCEAD0, size: 0x8, addend: 0x0, symName: __ZNKSt3__16vectorIP11ggml_tensorNS_9allocatorIS2_EEE20__throw_length_errorB8ne190102Ev, symObjAddr: 0x1B8B4, symBinAddr: 0x1C5DC, symSize: 0x14 }
  - { offset: 0xCEAFA, size: 0x8, addend: 0x0, symName: __ZNSt3__125__throw_bad_function_callB8ne190102Ev, symObjAddr: 0x1B8C8, symBinAddr: 0x1C5F0, symSize: 0x34 }
  - { offset: 0xCEB05, size: 0x8, addend: 0x0, symName: __ZNKSt3__16vectorIP12ggml_backendNS_9allocatorIS2_EEE20__throw_length_errorB8ne190102Ev, symObjAddr: 0x1B308, symBinAddr: 0x1C030, symSize: 0x14 }
  - { offset: 0xCEB2F, size: 0x8, addend: 0x0, symName: __ZNSt3__120__throw_length_errorB8ne190102EPKc, symObjAddr: 0x1B31C, symBinAddr: 0x1C044, symSize: 0x50 }
  - { offset: 0xCEB3A, size: 0x8, addend: 0x0, symName: __ZNKSt3__16vectorIfNS_9allocatorIfEEE20__throw_length_errorB8ne190102Ev, symObjAddr: 0x330A8, symBinAddr: 0x33DD0, symSize: 0x14 }
  - { offset: 0xCEB64, size: 0x8, addend: 0x0, symName: __ZNSt3__13mapI10asr_tensorPKcNS_4lessIS1_EENS_9allocatorINS_4pairIKS1_S3_EEEEEC2B8ne190102ESt16initializer_listIS9_ERKS5_, symObjAddr: 0x330BC, symBinAddr: 0x33DE4, symSize: 0xF4 }
  - { offset: 0xCEB6F, size: 0x8, addend: 0x0, symName: __ZNKSt3__16vectorI18whisper_token_dataNS_9allocatorIS1_EEE20__throw_length_errorB8ne190102Ev, symObjAddr: 0x30578, symBinAddr: 0x312A0, symSize: 0x14 }
  - { offset: 0xCEB99, size: 0x8, addend: 0x0, symName: __ZNSt3__121discrete_distributionIiE10param_type6__initEv, symObjAddr: 0x3058C, symBinAddr: 0x312B4, symSize: 0x220 }
  - { offset: 0xCEBA4, size: 0x8, addend: 0x0, symName: __ZNKSt3__16vectorI12whisper_pairIdiENS_9allocatorIS2_EEE20__throw_length_errorB8ne190102Ev, symObjAddr: 0x30BC4, symBinAddr: 0x318EC, symSize: 0x14 }
  - { offset: 0xCEBCE, size: 0x8, addend: 0x0, symName: __ZNKSt3__16vectorIZ23whisper_full_with_stateE14beam_candidateNS_9allocatorIS1_EEE20__throw_length_errorB8ne190102Ev, symObjAddr: 0x30BD8, symBinAddr: 0x31900, symSize: 0x14 }
  - { offset: 0xCF0B7, size: 0x8, addend: 0x0, symName: _whisper_vad_free, symObjAddr: 0x4BE0, symBinAddr: 0x5908, symSize: 0x90 }
  - { offset: 0xCF2BF, size: 0x8, addend: 0x0, symName: __ZN13whisper_stateD2Ev, symObjAddr: 0x1CA30, symBinAddr: 0x1D758, symSize: 0x2CC }
  - { offset: 0xD233A, size: 0x8, addend: 0x0, symName: __ZNSt3__16__treeIiNS_4lessIiEENS_9allocatorIiEEE7destroyEPNS_11__tree_nodeIiPvEE, symObjAddr: 0x1B2C4, symBinAddr: 0x1BFEC, symSize: 0x44 }
  - { offset: 0xD2483, size: 0x8, addend: 0x0, symName: __ZNSt3__16vectorI15whisper_kv_cellNS_9allocatorIS1_EEE8__appendEm, symObjAddr: 0x1B3A4, symBinAddr: 0x1C0CC, symSize: 0x1C4 }
  - { offset: 0xD2D51, size: 0x8, addend: 0x0, symName: __ZNKSt3__16vectorI15whisper_kv_cellNS_9allocatorIS1_EEE20__throw_length_errorB8ne190102Ev, symObjAddr: 0x1B568, symBinAddr: 0x1C290, symSize: 0x14 }
  - { offset: 0xD2D8B, size: 0x8, addend: 0x0, symName: __ZNKSt3__16vectorIhNS_9allocatorIhEEE20__throw_length_errorB8ne190102Ev, symObjAddr: 0x1B390, symBinAddr: 0x1C0B8, symSize: 0x14 }
  - { offset: 0xD2DB5, size: 0x8, addend: 0x0, symName: __ZNSt3__16vectorI15whisper_kv_cellNS_9allocatorIS1_EEE8__appendEm, symObjAddr: 0x1B3A4, symBinAddr: 0x1C0CC, symSize: 0x1C4 }
  - { offset: 0xD2E5D, size: 0x8, addend: 0x0, symName: _whisper_ctx_init_openvino_encoder_with_state, symObjAddr: 0x2120, symBinAddr: 0x2E48, symSize: 0x8 }
  - { offset: 0xD2EC6, size: 0x8, addend: 0x0, symName: _whisper_ctx_init_openvino_encoder, symObjAddr: 0x2128, symBinAddr: 0x2E50, symSize: 0x8 }
  - { offset: 0xD2F20, size: 0x8, addend: 0x0, symName: _whisper_context_default_params, symObjAddr: 0x2130, symBinAddr: 0x2E58, symSize: 0x24 }
  - { offset: 0xD2FB0, size: 0x8, addend: 0x0, symName: _whisper_init_from_file_with_params_no_state, symObjAddr: 0x2154, symBinAddr: 0x2E7C, symSize: 0x198 }
  - { offset: 0xD31C6, size: 0x8, addend: 0x0, symName: __ZNSt3__114basic_ifstreamIcNS_11char_traitsIcEEEC1EPKcj, symObjAddr: 0x22EC, symBinAddr: 0x3014, symSize: 0x118 }
  - { offset: 0xD32EF, size: 0x8, addend: 0x0, symName: _whisper_init_with_params_no_state, symObjAddr: 0x2404, symBinAddr: 0x312C, symSize: 0x2218 }
  - { offset: 0xD8F0C, size: 0x8, addend: 0x0, symName: __ZNSt3__114basic_ifstreamIcNS_11char_traitsIcEEED1Ev, symObjAddr: 0x461C, symBinAddr: 0x5344, symSize: 0x58 }
  - { offset: 0xDB3BC, size: 0x8, addend: 0x0, symName: __ZNSt3__16__treeINS_12__value_typeINS_12basic_stringIcNS_11char_traitsIcEENS_9allocatorIcEEEEiEENS_19__map_value_compareIS7_S8_NS_4lessIS7_EELb1EEENS5_IS8_EEE25__emplace_unique_key_argsIS7_JRKNS_21piecewise_construct_tENS_5tupleIJRKS7_EEENSJ_IJEEEEEENS_4pairINS_15__tree_iteratorIS8_PNS_11__tree_nodeIS8_PvEElEEbEERKT_DpOT0_, symObjAddr: 0x1C0C4, symBinAddr: 0x1CDEC, symSize: 0x1B8 }
  - { offset: 0xDBAAB, size: 0x8, addend: 0x0, symName: _whisper_lang_str, symObjAddr: 0x778C, symBinAddr: 0x84B4, symSize: 0xBC }
  - { offset: 0xDBC7D, size: 0x8, addend: 0x0, symName: __ZL14make_buft_listR22whisper_context_params, symObjAddr: 0xA148, symBinAddr: 0xAE70, symSize: 0x3A8 }
  - { offset: 0xDCD5A, size: 0x8, addend: 0x0, symName: __ZNSt3__16vectorI21whisper_layer_encoderNS_9allocatorIS1_EEE8__appendEm, symObjAddr: 0x1C2DC, symBinAddr: 0x1D004, symSize: 0x188 }
  - { offset: 0xDD16F, size: 0x8, addend: 0x0, symName: __ZNKSt3__16vectorI21whisper_layer_encoderNS_9allocatorIS1_EEE20__throw_length_errorB8ne190102Ev, symObjAddr: 0x1C464, symBinAddr: 0x1D18C, symSize: 0x14 }
  - { offset: 0xDD17A, size: 0x8, addend: 0x0, symName: __ZNSt3__16vectorI21whisper_layer_decoderNS_9allocatorIS1_EEE8__appendEm, symObjAddr: 0x1C478, symBinAddr: 0x1D1A0, symSize: 0x184 }
  - { offset: 0xDD58F, size: 0x8, addend: 0x0, symName: __ZNKSt3__16vectorI21whisper_layer_decoderNS_9allocatorIS1_EEE20__throw_length_errorB8ne190102Ev, symObjAddr: 0x1C5FC, symBinAddr: 0x1D324, symSize: 0x14 }
  - { offset: 0xDD59A, size: 0x8, addend: 0x0, symName: '__ZZL18whisper_model_loadP20whisper_model_loaderR15whisper_contextENK3$_1clE10asr_tensor10asr_systemP11ggml_tensori', symObjAddr: 0x1B9EC, symBinAddr: 0x1C714, symSize: 0x6C4 }
  - { offset: 0xDEE5A, size: 0x8, addend: 0x0, symName: __ZNSt3__16__treeINS_12__value_typeINS_12basic_stringIcNS_11char_traitsIcEENS_9allocatorIcEEEEP11ggml_tensorEENS_19__map_value_compareIS7_SA_NS_4lessIS7_EELb1EEENS5_ISA_EEE25__emplace_unique_key_argsIS7_JRKNS_21piecewise_construct_tENS_5tupleIJOS7_EEENSL_IJEEEEEENS_4pairINS_15__tree_iteratorISA_PNS_11__tree_nodeISA_PvEElEEbEERKT_DpOT0_, symObjAddr: 0x34D00, symBinAddr: 0x35A28, symSize: 0x178 }
  - { offset: 0xDF4CC, size: 0x8, addend: 0x0, symName: __ZNSt3__16vectorIcNS_9allocatorIcEEE6resizeEm, symObjAddr: 0xABC4, symBinAddr: 0xB8EC, symSize: 0x114 }
  - { offset: 0xDF9F5, size: 0x8, addend: 0x0, symName: _whisper_vad_detect_speech, symObjAddr: 0xACD8, symBinAddr: 0xBA00, symSize: 0x42C }
  - { offset: 0xDFA1A, size: 0x8, addend: 0x0, symName: __ZNSt3__16__treeINS_12__value_typeIP24ggml_backend_buffer_typeP12ggml_contextEENS_19__map_value_compareIS3_S6_NS_4lessIS3_EELb1EEENS_9allocatorIS6_EEE7destroyEPNS_11__tree_nodeIS6_PvEE, symObjAddr: 0x34CBC, symBinAddr: 0x359E4, symSize: 0x44 }
  - { offset: 0xDFB65, size: 0x8, addend: 0x0, symName: __ZN15whisper_contextD2Ev, symObjAddr: 0x1C86C, symBinAddr: 0x1D594, symSize: 0xA4 }
  - { offset: 0xE05C3, size: 0x8, addend: 0x0, symName: __ZNKSt3__16vectorIcNS_9allocatorIcEEE20__throw_length_errorB8ne190102Ev, symObjAddr: 0x1C0B0, symBinAddr: 0x1CDD8, symSize: 0x14 }
  - { offset: 0xE05ED, size: 0x8, addend: 0x0, symName: __ZNSt3__16__treeINS_12__value_typeINS_12basic_stringIcNS_11char_traitsIcEENS_9allocatorIcEEEEiEENS_19__map_value_compareIS7_S8_NS_4lessIS7_EELb1EEENS5_IS8_EEE25__emplace_unique_key_argsIS7_JRKNS_21piecewise_construct_tENS_5tupleIJRKS7_EEENSJ_IJEEEEEENS_4pairINS_15__tree_iteratorIS8_PNS_11__tree_nodeIS8_PvEElEEbEERKT_DpOT0_, symObjAddr: 0x1C0C4, symBinAddr: 0x1CDEC, symSize: 0x1B8 }
  - { offset: 0xE05F8, size: 0x8, addend: 0x0, symName: __ZNKSt3__16vectorIP19ggml_backend_bufferNS_9allocatorIS2_EEE20__throw_length_errorB8ne190102Ev, symObjAddr: 0x34E78, symBinAddr: 0x35BA0, symSize: 0x14 }
  - { offset: 0xE0622, size: 0x8, addend: 0x0, symName: __ZNSt3__128__exception_guard_exceptionsINS_6vectorINS_6threadENS_9allocatorIS2_EEE16__destroy_vectorEED1B8ne190102Ev, symObjAddr: 0x34E8C, symBinAddr: 0x35BB4, symSize: 0x70 }
  - { offset: 0xE06C4, size: 0x8, addend: 0x0, symName: _whisper_init_from_file_with_params, symObjAddr: 0x46FC, symBinAddr: 0x5424, symSize: 0xC4 }
  - { offset: 0xE0897, size: 0x8, addend: 0x0, symName: _whisper_free, symObjAddr: 0x47C0, symBinAddr: 0x54E8, symSize: 0x74 }
  - { offset: 0xE0ABE, size: 0x8, addend: 0x0, symName: _whisper_init_from_buffer_with_params, symObjAddr: 0x4834, symBinAddr: 0x555C, symSize: 0x110 }
  - { offset: 0xE0CF5, size: 0x8, addend: 0x0, symName: _whisper_init_with_params, symObjAddr: 0x4944, symBinAddr: 0x566C, symSize: 0xC4 }
  - { offset: 0xE0EE4, size: 0x8, addend: 0x0, symName: _whisper_init_from_file, symObjAddr: 0x4A08, symBinAddr: 0x5730, symSize: 0x40 }
  - { offset: 0xE0F4F, size: 0x8, addend: 0x0, symName: _whisper_init_from_buffer, symObjAddr: 0x4A48, symBinAddr: 0x5770, symSize: 0x40 }
  - { offset: 0xE0FD3, size: 0x8, addend: 0x0, symName: _whisper_init, symObjAddr: 0x4A88, symBinAddr: 0x57B0, symSize: 0x40 }
  - { offset: 0xE103E, size: 0x8, addend: 0x0, symName: _whisper_init_from_file_no_state, symObjAddr: 0x4AC8, symBinAddr: 0x57F0, symSize: 0x40 }
  - { offset: 0xE10A9, size: 0x8, addend: 0x0, symName: _whisper_init_from_buffer_no_state, symObjAddr: 0x4B08, symBinAddr: 0x5830, symSize: 0x98 }
  - { offset: 0xE1188, size: 0x8, addend: 0x0, symName: _whisper_init_no_state, symObjAddr: 0x4BA0, symBinAddr: 0x58C8, symSize: 0x40 }
  - { offset: 0xE1216, size: 0x8, addend: 0x0, symName: __ZN19whisper_vad_contextD2Ev, symObjAddr: 0x2AF64, symBinAddr: 0x2BC8C, symSize: 0xD0 }
  - { offset: 0xE1ECD, size: 0x8, addend: 0x0, symName: _whisper_free_context_params, symObjAddr: 0x4C70, symBinAddr: 0x5998, symSize: 0xC }
  - { offset: 0xE1EF4, size: 0x8, addend: 0x0, symName: _whisper_free_params, symObjAddr: 0x4C7C, symBinAddr: 0x59A4, symSize: 0xC }
  - { offset: 0xE2621, size: 0x8, addend: 0x0, symName: _whisper_pcm_to_mel_with_state, symObjAddr: 0x4C88, symBinAddr: 0x59B0, symSize: 0x834 }
  - { offset: 0xE33CB, size: 0x8, addend: 0x0, symName: __ZNSt3__16threadC2IRFviPKfRKNS_6vectorIfNS_9allocatorIfEEEEiiiiRK15whisper_filtersR11whisper_melEJiRS3_NS_17reference_wrapperIS8_EExRKiSL_SL_NSI_ISB_EENSI_ISD_EEELi0EEEOT_DpOT0_, symObjAddr: 0x1DCD4, symBinAddr: 0x1E9FC, symSize: 0x13C }
  - { offset: 0xE3A86, size: 0x8, addend: 0x0, symName: __ZL33log_mel_spectrogram_worker_threadiPKfRKNSt3__16vectorIfNS1_9allocatorIfEEEEiiiiRK15whisper_filtersR11whisper_mel, symObjAddr: 0x1CCFC, symBinAddr: 0x1DA24, symSize: 0x97C }
  - { offset: 0xE4467, size: 0x8, addend: 0x0, symName: __ZNKSt3__16vectorINS_6threadENS_9allocatorIS1_EEE20__throw_length_errorB8ne190102Ev, symObjAddr: 0x34EFC, symBinAddr: 0x35C24, symSize: 0x14 }
  - { offset: 0xE4491, size: 0x8, addend: 0x0, symName: __ZNKSt3__16vectorIiNS_9allocatorIiEEE20__throw_length_errorB8ne190102Ev, symObjAddr: 0x34F10, symBinAddr: 0x35C38, symSize: 0x14 }
  - { offset: 0xE449C, size: 0x8, addend: 0x0, symName: __ZNSt3__128__exception_guard_exceptionsINS_6vectorINS_6threadENS_9allocatorIS2_EEE16__destroy_vectorEED1B8ne190102Ev, symObjAddr: 0x34E8C, symBinAddr: 0x35BB4, symSize: 0x70 }
  - { offset: 0xE44CA, size: 0x8, addend: 0x0, symName: __ZNSt3__128__exception_guard_exceptionsINS_6vectorINS_6threadENS_9allocatorIS2_EEE16__destroy_vectorEED1B8ne190102Ev, symObjAddr: 0x34E8C, symBinAddr: 0x35BB4, symSize: 0x70 }
  - { offset: 0xE464A, size: 0x8, addend: 0x0, symName: __ZNSt3__16vectorINS_6threadENS_9allocatorIS1_EEED1B8ne190102Ev, symObjAddr: 0x16134, symBinAddr: 0x16E5C, symSize: 0x58 }
  - { offset: 0xE47DC, size: 0x8, addend: 0x0, symName: _whisper_pcm_to_mel, symObjAddr: 0x54BC, symBinAddr: 0x61E4, symSize: 0x28 }
  - { offset: 0xE486B, size: 0x8, addend: 0x0, symName: _whisper_set_mel_with_state, symObjAddr: 0x54E4, symBinAddr: 0x620C, symSize: 0xD4 }
  - { offset: 0xE49AD, size: 0x8, addend: 0x0, symName: _whisper_set_mel, symObjAddr: 0x55B8, symBinAddr: 0x62E0, symSize: 0xCC }
  - { offset: 0xE4B07, size: 0x8, addend: 0x0, symName: _whisper_encode_with_state, symObjAddr: 0x5684, symBinAddr: 0x63AC, symSize: 0x58 }
  - { offset: 0xE4B94, size: 0x8, addend: 0x0, symName: __ZL23whisper_encode_internalR15whisper_contextR13whisper_stateiiPFbPvES3_, symObjAddr: 0x56DC, symBinAddr: 0x6404, symSize: 0x3FC }
  - { offset: 0xE5079, size: 0x8, addend: 0x0, symName: __ZL24whisper_build_graph_convR15whisper_contextR13whisper_state, symObjAddr: 0x1DF3C, symBinAddr: 0x1EC64, symSize: 0x150 }
  - { offset: 0xE5308, size: 0x8, addend: 0x0, symName: __ZL25ggml_graph_compute_helperP18ggml_backend_schedP11ggml_cgraphib, symObjAddr: 0xB5E4, symBinAddr: 0xC30C, symSize: 0xD4 }
  - { offset: 0xE54AB, size: 0x8, addend: 0x0, symName: __ZL25whisper_build_graph_crossR15whisper_contextR13whisper_state, symObjAddr: 0x1E65C, symBinAddr: 0x1F384, symSize: 0x2C8 }
  - { offset: 0xE593D, size: 0x8, addend: 0x0, symName: _whisper_encode, symObjAddr: 0x5AD8, symBinAddr: 0x6800, symSize: 0x64 }
  - { offset: 0xE5A35, size: 0x8, addend: 0x0, symName: _whisper_decode_with_state, symObjAddr: 0x5B3C, symBinAddr: 0x6864, symSize: 0x128 }
  - { offset: 0xE5B66, size: 0x8, addend: 0x0, symName: __ZL23whisper_kv_cache_seq_rmR16whisper_kv_cacheiii, symObjAddr: 0x5C64, symBinAddr: 0x698C, symSize: 0x200 }
  - { offset: 0xE609C, size: 0x8, addend: 0x0, symName: __ZL23whisper_decode_internalR15whisper_contextR13whisper_stateRK13whisper_batchibPFbPvES6_, symObjAddr: 0x5E64, symBinAddr: 0x6B8C, symSize: 0x820 }
  - { offset: 0xE763A, size: 0x8, addend: 0x0, symName: __ZL27whisper_build_graph_decoderR15whisper_contextR13whisper_stateRK13whisper_batchbb, symObjAddr: 0x1ECE4, symBinAddr: 0x1FA0C, symSize: 0xC20 }
  - { offset: 0xE890D, size: 0x8, addend: 0x0, symName: __ZNSt3__111basic_regexIcNS_12regex_traitsIcEEED1Ev, symObjAddr: 0x1F904, symBinAddr: 0x2062C, symSize: 0x5C }
  - { offset: 0xE895F, size: 0x8, addend: 0x0, symName: _whisper_decode, symObjAddr: 0x6684, symBinAddr: 0x73AC, symSize: 0x54 }
  - { offset: 0xE9DF4, size: 0x8, addend: 0x0, symName: _whisper_tokenize, symObjAddr: 0x66D8, symBinAddr: 0x7400, symSize: 0xBC8 }
  - { offset: 0xEDB7E, size: 0x8, addend: 0x0, symName: __ZNSt3__112basic_stringIcNS_11char_traitsIcEENS_9allocatorIcEEE25__init_copy_ctor_externalEPKcm, symObjAddr: 0x34148, symBinAddr: 0x34E70, symSize: 0x8C }
  - { offset: 0xEDD57, size: 0x8, addend: 0x0, symName: __ZNSt3__13mapINS_12basic_stringIcNS_11char_traitsIcEENS_9allocatorIcEEEENS_4pairIiS6_EENS_4lessIS6_EENS4_INS7_IKS6_S8_EEEEEC2B8ne190102ESt16initializer_listISC_ERKSA_, symObjAddr: 0x341D4, symBinAddr: 0x34EFC, symSize: 0x104 }
  - { offset: 0xEDD6A, size: 0x8, addend: 0x0, symName: __ZNSt3__111basic_regexIcNS_12regex_traitsIcEEEC2B8ne190102INS_11char_traitsIcEENS_9allocatorIcEEEERKNS_12basic_stringIcT_T0_EENS_15regex_constants18syntax_option_typeE, symObjAddr: 0x1F960, symBinAddr: 0x20688, symSize: 0xD4 }
  - { offset: 0xEDF55, size: 0x8, addend: 0x0, symName: __ZNKSt3__111basic_regexIcNS_12regex_traitsIcEEE8__searchINS_9allocatorINS_9sub_matchIPKcEEEEEEbS8_S8_RNS_13match_resultsIS8_T_EENS_15regex_constants15match_flag_typeE, symObjAddr: 0x28494, symBinAddr: 0x291BC, symSize: 0x308 }
  - { offset: 0xEE54F, size: 0x8, addend: 0x0, symName: __ZNSt3__113match_resultsINS_11__wrap_iterIPKcEENS_9allocatorINS_9sub_matchIS4_EEEEE8__assignB8ne190102IS3_NS5_INS6_IS3_EEEEEEvS4_S4_RKNS0_IT_T0_EEb, symObjAddr: 0x2879C, symBinAddr: 0x294C4, symSize: 0x1AC }
  - { offset: 0xEE8EF, size: 0x8, addend: 0x0, symName: __ZNKSt3__16vectorINS_12basic_stringIcNS_11char_traitsIcEENS_9allocatorIcEEEENS4_IS6_EEE20__throw_length_errorB8ne190102Ev, symObjAddr: 0x26AD0, symBinAddr: 0x277F8, symSize: 0x14 }
  - { offset: 0xEE919, size: 0x8, addend: 0x0, symName: __ZNSt3__119__throw_regex_errorB8ne190102ILNS_15regex_constants10error_typeE2EEEvv, symObjAddr: 0x26AE4, symBinAddr: 0x2780C, symSize: 0x4C }
  - { offset: 0xEE924, size: 0x8, addend: 0x0, symName: __ZNKSt3__112basic_stringIcNS_11char_traitsIcEENS_9allocatorIcEEE20__throw_out_of_rangeB8ne190102Ev, symObjAddr: 0x2ADA4, symBinAddr: 0x2BACC, symSize: 0x14 }
  - { offset: 0xEE94E, size: 0x8, addend: 0x0, symName: '__ZZ38whisper_vad_init_from_file_with_paramsEN3$_08__invokeEPvS0_m', symObjAddr: 0x2ADB8, symBinAddr: 0x2BAE0, symSize: 0x24 }
  - { offset: 0xEE959, size: 0x8, addend: 0x0, symName: __ZNKSt3__16vectorIiNS_9allocatorIiEEE20__throw_length_errorB8ne190102Ev, symObjAddr: 0x34F10, symBinAddr: 0x35C38, symSize: 0x14 }
  - { offset: 0xEE983, size: 0x8, addend: 0x0, symName: '__ZNSt3__110__function6__funcIZ18whisper_init_stateE3$_0NS_9allocatorIS2_EEFP11ggml_cgraphvEED1Ev', symObjAddr: 0x34F24, symBinAddr: 0x35C4C, symSize: 0x4 }
  - { offset: 0xEE98E, size: 0x8, addend: 0x0, symName: __ZNSt3__111basic_regexIcNS_12regex_traitsIcEEED1Ev, symObjAddr: 0x1F904, symBinAddr: 0x2062C, symSize: 0x5C }
  - { offset: 0xEEA99, size: 0x8, addend: 0x0, symName: _whisper_token_count, symObjAddr: 0x72A0, symBinAddr: 0x7FC8, symSize: 0x20 }
  - { offset: 0xEEB6C, size: 0x8, addend: 0x0, symName: _whisper_lang_max_id, symObjAddr: 0x72C0, symBinAddr: 0x7FE8, symSize: 0x74 }
  - { offset: 0xEEB8A, size: 0x8, addend: 0x0, symName: _whisper_lang_max_id, symObjAddr: 0x72C0, symBinAddr: 0x7FE8, symSize: 0x74 }
  - { offset: 0xEEBBA, size: 0x8, addend: 0x0, symName: _whisper_lang_max_id, symObjAddr: 0x72C0, symBinAddr: 0x7FE8, symSize: 0x74 }
  - { offset: 0xEEBDA, size: 0x8, addend: 0x0, symName: _whisper_lang_max_id, symObjAddr: 0x72C0, symBinAddr: 0x7FE8, symSize: 0x74 }
  - { offset: 0xEEEF0, size: 0x8, addend: 0x0, symName: _whisper_lang_id, symObjAddr: 0x7334, symBinAddr: 0x805C, symSize: 0x458 }
  - { offset: 0xF010C, size: 0x8, addend: 0x0, symName: _whisper_lang_str_full, symObjAddr: 0x7848, symBinAddr: 0x8570, symSize: 0xBC }
  - { offset: 0xF07C9, size: 0x8, addend: 0x0, symName: _whisper_lang_auto_detect_with_state, symObjAddr: 0x7904, symBinAddr: 0x862C, symSize: 0x584 }
  - { offset: 0xF1798, size: 0x8, addend: 0x0, symName: _whisper_token_sot, symObjAddr: 0x7E88, symBinAddr: 0x8BB0, symSize: 0x8 }
  - { offset: 0xF17B7, size: 0x8, addend: 0x0, symName: _whisper_token_lang, symObjAddr: 0x7E90, symBinAddr: 0x8BB8, symSize: 0x10 }
  - { offset: 0xF17E1, size: 0x8, addend: 0x0, symName: _whisper_token_lang, symObjAddr: 0x7E90, symBinAddr: 0x8BB8, symSize: 0x10 }
  - { offset: 0xF17FD, size: 0x8, addend: 0x0, symName: _whisper_lang_auto_detect, symObjAddr: 0x7EA0, symBinAddr: 0x8BC8, symSize: 0x14 }
  - { offset: 0xF188A, size: 0x8, addend: 0x0, symName: _whisper_model_n_vocab, symObjAddr: 0x7EB4, symBinAddr: 0x8BDC, symSize: 0x8 }
  - { offset: 0xF18B7, size: 0x8, addend: 0x0, symName: _whisper_model_n_audio_ctx, symObjAddr: 0x7EBC, symBinAddr: 0x8BE4, symSize: 0x8 }
  - { offset: 0xF18E4, size: 0x8, addend: 0x0, symName: _whisper_model_n_audio_state, symObjAddr: 0x7EC4, symBinAddr: 0x8BEC, symSize: 0x8 }
  - { offset: 0xF1911, size: 0x8, addend: 0x0, symName: _whisper_model_n_audio_head, symObjAddr: 0x7ECC, symBinAddr: 0x8BF4, symSize: 0x8 }
  - { offset: 0xF193E, size: 0x8, addend: 0x0, symName: _whisper_model_n_audio_layer, symObjAddr: 0x7ED4, symBinAddr: 0x8BFC, symSize: 0x8 }
  - { offset: 0xF196B, size: 0x8, addend: 0x0, symName: _whisper_model_n_text_ctx, symObjAddr: 0x7EDC, symBinAddr: 0x8C04, symSize: 0x8 }
  - { offset: 0xF1998, size: 0x8, addend: 0x0, symName: _whisper_model_n_text_state, symObjAddr: 0x7EE4, symBinAddr: 0x8C0C, symSize: 0x8 }
  - { offset: 0xF19C5, size: 0x8, addend: 0x0, symName: _whisper_model_n_text_head, symObjAddr: 0x7EEC, symBinAddr: 0x8C14, symSize: 0x8 }
  - { offset: 0xF19F2, size: 0x8, addend: 0x0, symName: _whisper_model_n_text_layer, symObjAddr: 0x7EF4, symBinAddr: 0x8C1C, symSize: 0x8 }
  - { offset: 0xF1A1F, size: 0x8, addend: 0x0, symName: _whisper_model_n_mels, symObjAddr: 0x7EFC, symBinAddr: 0x8C24, symSize: 0x8 }
  - { offset: 0xF1A4C, size: 0x8, addend: 0x0, symName: _whisper_model_ftype, symObjAddr: 0x7F04, symBinAddr: 0x8C2C, symSize: 0x8 }
  - { offset: 0xF1A79, size: 0x8, addend: 0x0, symName: _whisper_model_type, symObjAddr: 0x7F0C, symBinAddr: 0x8C34, symSize: 0x8 }
  - { offset: 0xF1AA6, size: 0x8, addend: 0x0, symName: _whisper_model_type_readable, symObjAddr: 0x7F14, symBinAddr: 0x8C3C, symSize: 0x2C }
  - { offset: 0xF1AD3, size: 0x8, addend: 0x0, symName: _whisper_n_len_from_state, symObjAddr: 0x7F40, symBinAddr: 0x8C68, symSize: 0x8 }
  - { offset: 0xF1AF2, size: 0x8, addend: 0x0, symName: _whisper_n_len, symObjAddr: 0x7F48, symBinAddr: 0x8C70, symSize: 0xC }
  - { offset: 0xF1B1F, size: 0x8, addend: 0x0, symName: _whisper_n_vocab, symObjAddr: 0x7F54, symBinAddr: 0x8C7C, symSize: 0x8 }
  - { offset: 0xF1B4C, size: 0x8, addend: 0x0, symName: _whisper_n_text_ctx, symObjAddr: 0x7F5C, symBinAddr: 0x8C84, symSize: 0x8 }
  - { offset: 0xF1B6B, size: 0x8, addend: 0x0, symName: _whisper_n_audio_ctx, symObjAddr: 0x7F64, symBinAddr: 0x8C8C, symSize: 0x8 }
  - { offset: 0xF1B8A, size: 0x8, addend: 0x0, symName: _whisper_is_multilingual, symObjAddr: 0x7F6C, symBinAddr: 0x8C94, symSize: 0x14 }
  - { offset: 0xF1BAC, size: 0x8, addend: 0x0, symName: _whisper_is_multilingual, symObjAddr: 0x7F6C, symBinAddr: 0x8C94, symSize: 0x14 }
  - { offset: 0xF1BCB, size: 0x8, addend: 0x0, symName: _whisper_get_logits, symObjAddr: 0x7F80, symBinAddr: 0x8CA8, symSize: 0xC }
  - { offset: 0xF1C1B, size: 0x8, addend: 0x0, symName: _whisper_get_logits_from_state, symObjAddr: 0x7F8C, symBinAddr: 0x8CB4, symSize: 0x8 }
  - { offset: 0xF1C4B, size: 0x8, addend: 0x0, symName: _whisper_get_logits_from_state, symObjAddr: 0x7F8C, symBinAddr: 0x8CB4, symSize: 0x8 }
  - { offset: 0xF1CCB, size: 0x8, addend: 0x0, symName: _whisper_token_to_str, symObjAddr: 0x7F94, symBinAddr: 0x8CBC, symSize: 0x60 }
  - { offset: 0xF1E4B, size: 0x8, addend: 0x0, symName: _whisper_token_eot, symObjAddr: 0x7FF4, symBinAddr: 0x8D1C, symSize: 0x8 }
  - { offset: 0xF1E6A, size: 0x8, addend: 0x0, symName: _whisper_token_solm, symObjAddr: 0x7FFC, symBinAddr: 0x8D24, symSize: 0x8 }
  - { offset: 0xF1E89, size: 0x8, addend: 0x0, symName: _whisper_token_prev, symObjAddr: 0x8004, symBinAddr: 0x8D2C, symSize: 0x8 }
  - { offset: 0xF1EA8, size: 0x8, addend: 0x0, symName: _whisper_token_nosp, symObjAddr: 0x800C, symBinAddr: 0x8D34, symSize: 0x8 }
  - { offset: 0xF1EC7, size: 0x8, addend: 0x0, symName: _whisper_token_not, symObjAddr: 0x8014, symBinAddr: 0x8D3C, symSize: 0x8 }
  - { offset: 0xF1EE6, size: 0x8, addend: 0x0, symName: _whisper_token_beg, symObjAddr: 0x801C, symBinAddr: 0x8D44, symSize: 0x8 }
  - { offset: 0xF1F05, size: 0x8, addend: 0x0, symName: _whisper_token_translate, symObjAddr: 0x8024, symBinAddr: 0x8D4C, symSize: 0x8 }
  - { offset: 0xF1F24, size: 0x8, addend: 0x0, symName: _whisper_token_transcribe, symObjAddr: 0x802C, symBinAddr: 0x8D54, symSize: 0x8 }
  - { offset: 0xF1F43, size: 0x8, addend: 0x0, symName: _whisper_get_timings, symObjAddr: 0x8034, symBinAddr: 0x8D5C, symSize: 0x9C }
  - { offset: 0xF2046, size: 0x8, addend: 0x0, symName: _whisper_print_timings, symObjAddr: 0x80D0, symBinAddr: 0x8DF8, symSize: 0x2A0 }
  - { offset: 0xF22EA, size: 0x8, addend: 0x0, symName: _whisper_reset_timings, symObjAddr: 0x8370, symBinAddr: 0x9098, symSize: 0x3C }
  - { offset: 0xF23C2, size: 0x8, addend: 0x0, symName: _whisper_print_system_info.cold.1, symObjAddr: 0x3A0B8, symBinAddr: 0x1059E4, symSize: 0x50 }
  - { offset: 0xF244B, size: 0x8, addend: 0x0, symName: _whisper_vad_default_context_params, symObjAddr: 0x8744, symBinAddr: 0x946C, symSize: 0xC }
  - { offset: 0xF2478, size: 0x8, addend: 0x0, symName: _whisper_vad_default_params, symObjAddr: 0x8750, symBinAddr: 0x9478, symSize: 0x1C }
  - { offset: 0xF2496, size: 0x8, addend: 0x0, symName: _whisper_vad_init_from_file_with_params, symObjAddr: 0x876C, symBinAddr: 0x9494, symSize: 0x190 }
  - { offset: 0xF26AB, size: 0x8, addend: 0x0, symName: _whisper_vad_init_with_params, symObjAddr: 0x88FC, symBinAddr: 0x9624, symSize: 0x184C }
  - { offset: 0xF92E2, size: 0x8, addend: 0x0, symName: '__ZZ28whisper_vad_init_with_paramsENK3$_1clE10vad_tensorP11ggml_tensor', symObjAddr: 0xA4F0, symBinAddr: 0xB218, symSize: 0x6D4 }
  - { offset: 0xFB2DA, size: 0x8, addend: 0x0, symName: __ZNKSt3__16vectorINS_4pairIP19ggml_backend_deviceP24ggml_backend_buffer_typeEENS_9allocatorIS6_EEE20__throw_length_errorB8ne190102Ev, symObjAddr: 0x1C844, symBinAddr: 0x1D56C, symSize: 0x14 }
  - { offset: 0xFB304, size: 0x8, addend: 0x0, symName: __ZNKSt3__16vectorIP12ggml_contextNS_9allocatorIS2_EEE20__throw_length_errorB8ne190102Ev, symObjAddr: 0x1C858, symBinAddr: 0x1D580, symSize: 0x14 }
  - { offset: 0xFC46E, size: 0x8, addend: 0x0, symName: __ZL16ggml_mul_mat_padP12ggml_contextP11ggml_tensorS2_i, symObjAddr: 0x1A718, symBinAddr: 0x1B440, symSize: 0x134 }
  - { offset: 0xFC626, size: 0x8, addend: 0x0, symName: __ZNKSt3__13mapI10vad_tensorPKcNS_4lessIS1_EENS_9allocatorINS_4pairIKS1_S3_EEEEE2atERS8_, symObjAddr: 0x2AE3C, symBinAddr: 0x2BB64, symSize: 0x54 }
  - { offset: 0xFC729, size: 0x8, addend: 0x0, symName: __ZL6formatPKcz, symObjAddr: 0x1C610, symBinAddr: 0x1D338, symSize: 0x158 }
  - { offset: 0xFCDEC, size: 0x8, addend: 0x0, symName: __ZNKSt3__16vectorIP12ggml_contextNS_9allocatorIS2_EEE20__throw_length_errorB8ne190102Ev, symObjAddr: 0x1C858, symBinAddr: 0x1D580, symSize: 0x14 }
  - { offset: 0xFCE16, size: 0x8, addend: 0x0, symName: __ZN15whisper_contextD2Ev, symObjAddr: 0x1C86C, symBinAddr: 0x1D594, symSize: 0xA4 }
  - { offset: 0xFCE21, size: 0x8, addend: 0x0, symName: __ZNSt3__110unique_ptrI12ggml_context20ggml_context_deleterED1B8ne190102Ev, symObjAddr: 0x1C810, symBinAddr: 0x1D538, symSize: 0x34 }
  - { offset: 0xFD121, size: 0x8, addend: 0x0, symName: _whisper_vad_detect_speech, symObjAddr: 0xACD8, symBinAddr: 0xBA00, symSize: 0x42C }
  - { offset: 0xFE179, size: 0x8, addend: 0x0, symName: __ZL23whisper_vad_build_graphR19whisper_vad_context, symObjAddr: 0xB104, symBinAddr: 0xBE2C, symSize: 0x4E0 }
  - { offset: 0xFEED4, size: 0x8, addend: 0x0, symName: _whisper_vad_segments_n_segments, symObjAddr: 0xB6B8, symBinAddr: 0xC3E0, symSize: 0x10 }
  - { offset: 0xFEF04, size: 0x8, addend: 0x0, symName: _whisper_vad_segments_n_segments, symObjAddr: 0xB6B8, symBinAddr: 0xC3E0, symSize: 0x10 }
  - { offset: 0xFEF4A, size: 0x8, addend: 0x0, symName: _whisper_vad_segments_get_segment_t0, symObjAddr: 0xB6C8, symBinAddr: 0xC3F0, symSize: 0x14 }
  - { offset: 0xFEF87, size: 0x8, addend: 0x0, symName: _whisper_vad_segments_get_segment_t0, symObjAddr: 0xB6C8, symBinAddr: 0xC3F0, symSize: 0x14 }
  - { offset: 0xFEFA3, size: 0x8, addend: 0x0, symName: _whisper_vad_segments_get_segment_t1, symObjAddr: 0xB6DC, symBinAddr: 0xC404, symSize: 0x14 }
  - { offset: 0xFEFE0, size: 0x8, addend: 0x0, symName: _whisper_vad_segments_get_segment_t1, symObjAddr: 0xB6DC, symBinAddr: 0xC404, symSize: 0x14 }
  - { offset: 0xFEFFC, size: 0x8, addend: 0x0, symName: _whisper_vad_n_probs, symObjAddr: 0xB6F0, symBinAddr: 0xC418, symSize: 0x10 }
  - { offset: 0xFF01E, size: 0x8, addend: 0x0, symName: _whisper_vad_n_probs, symObjAddr: 0xB6F0, symBinAddr: 0xC418, symSize: 0x10 }
  - { offset: 0xFF03D, size: 0x8, addend: 0x0, symName: _whisper_vad_probs, symObjAddr: 0xB700, symBinAddr: 0xC428, symSize: 0x8 }
  - { offset: 0xFF06D, size: 0x8, addend: 0x0, symName: _whisper_vad_probs, symObjAddr: 0xB700, symBinAddr: 0xC428, symSize: 0x8 }
  - { offset: 0xFF730, size: 0x8, addend: 0x0, symName: __ZNSt3__16vectorI19whisper_vad_segmentNS_9allocatorIS1_EEE8__appendEm, symObjAddr: 0x366FC, symBinAddr: 0x37424, symSize: 0x124 }
  - { offset: 0xFFB74, size: 0x8, addend: 0x0, symName: __ZNKSt3__16vectorI19whisper_vad_segmentNS_9allocatorIS1_EEE20__throw_length_errorB8ne190102Ev, symObjAddr: 0x36820, symBinAddr: 0x37548, symSize: 0x14 }
  - { offset: 0xFFB7F, size: 0x8, addend: 0x0, symName: __ZNKSt3__16vectorIZ31whisper_vad_segments_from_probsE16speech_segment_tNS_9allocatorIS1_EEE20__throw_length_errorB8ne190102Ev, symObjAddr: 0x366E8, symBinAddr: 0x37410, symSize: 0x14 }
  - { offset: 0xFFBA5, size: 0x8, addend: 0x0, symName: __ZNSt3__16vectorI19whisper_vad_segmentNS_9allocatorIS1_EEE8__appendEm, symObjAddr: 0x366FC, symBinAddr: 0x37424, symSize: 0x124 }
  - { offset: 0xFFBB0, size: 0x8, addend: 0x0, symName: _whisper_vad_segments_from_samples, symObjAddr: 0xC1C0, symBinAddr: 0xCEE8, symSize: 0xBC }
  - { offset: 0xFFCC1, size: 0x8, addend: 0x0, symName: _whisper_vad_free_segments, symObjAddr: 0xC27C, symBinAddr: 0xCFA4, symSize: 0x3C }
  - { offset: 0xFFE8A, size: 0x8, addend: 0x0, symName: _whisper_context_default_params_by_ref, symObjAddr: 0xC2B8, symBinAddr: 0xCFE0, symSize: 0x44 }
  - { offset: 0xFFEF0, size: 0x8, addend: 0x0, symName: _whisper_full_default_params_by_ref, symObjAddr: 0xC2FC, symBinAddr: 0xD024, symSize: 0x1B8 }
  - { offset: 0xFFF96, size: 0x8, addend: 0x0, symName: _whisper_full_default_params, symObjAddr: 0xC4B4, symBinAddr: 0xD1DC, symSize: 0x188 }
  - { offset: 0xFFFD8, size: 0x8, addend: 0x0, symName: __ZNSt3__16vectorINS_12basic_stringIcNS_11char_traitsIcEENS_9allocatorIcEEEENS4_IS6_EEED1B8ne190102Ev, symObjAddr: 0xC63C, symBinAddr: 0xD364, symSize: 0x70 }
  - { offset: 0x105DED, size: 0x8, addend: 0x0, symName: __ZNSt3__16vectorIiNS_9allocatorIiEEE8__appendEm, symObjAddr: 0x36DC0, symBinAddr: 0x37AE8, symSize: 0x124 }
  - { offset: 0x106231, size: 0x8, addend: 0x0, symName: __ZNSt3__18__rotateB8ne190102INS_17_ClassicAlgPolicyENS_11__wrap_iterIPiEES4_EENS_4pairIT0_S6_EES6_S6_T1_, symObjAddr: 0x36EE4, symBinAddr: 0x37C0C, symSize: 0x1B8 }
  - { offset: 0x10623C, size: 0x8, addend: 0x0, symName: __ZNSt3__16vectorIiNS_9allocatorIiEEE6resizeEm, symObjAddr: 0x131D8, symBinAddr: 0x13F00, symSize: 0x2C }
  - { offset: 0x106274, size: 0x8, addend: 0x0, symName: __ZNSt3__16vectorIiNS_9allocatorIiEEE6resizeEm, symObjAddr: 0x131D8, symBinAddr: 0x13F00, symSize: 0x2C }
  - { offset: 0x1062EC, size: 0x8, addend: 0x0, symName: __ZL29whisper_grammar_advance_stackRKNSt3__16vectorINS0_I23whisper_grammar_elementNS_9allocatorIS1_EEEENS2_IS4_EEEERKNS0_IPKS1_NS2_ISA_EEEERNS0_ISC_NS2_ISC_EEEE, symObjAddr: 0x2B034, symBinAddr: 0x2BD5C, symSize: 0x438 }
  - { offset: 0x107BAA, size: 0x8, addend: 0x0, symName: __ZNSt3__16vectorIiNS_9allocatorIiEEE18__assign_with_sizeB8ne190102IPKiS6_EEvT_T0_l, symObjAddr: 0x37210, symBinAddr: 0x37F38, symSize: 0x14C }
  - { offset: 0x1086B7, size: 0x8, addend: 0x0, symName: __ZNSt3__16vectorIiNS_9allocatorIiEEE18__insert_with_sizeB8ne190102INS_11__wrap_iterIPiEES7_EES7_NS5_IPKiEET_T0_l, symObjAddr: 0x3735C, symBinAddr: 0x38084, symSize: 0x2EC }
  - { offset: 0x1086DC, size: 0x8, addend: 0x0, symName: __ZNSt3__16vectorIiNS_9allocatorIiEEE18__insert_with_sizeB8ne190102INS_11__wrap_iterIPiEES7_EES7_NS5_IPKiEET_T0_l, symObjAddr: 0x3735C, symBinAddr: 0x38084, symSize: 0x2EC }
  - { offset: 0x1091A9, size: 0x8, addend: 0x0, symName: '__ZNSt3__114__thread_proxyB8ne190102INS_5tupleIJNS_10unique_ptrINS_15__thread_structENS_14default_deleteIS3_EEEEZ23whisper_full_with_stateE3$_0EEEEEPvS9_', symObjAddr: 0x37648, symBinAddr: 0x38370, symSize: 0x78 }
  - { offset: 0x1091C6, size: 0x8, addend: 0x0, symName: __ZL22whisper_process_logitsR15whisper_contextR13whisper_stateR15whisper_decoder19whisper_full_paramsf, symObjAddr: 0x1331C, symBinAddr: 0x14044, symSize: 0x182C }
  - { offset: 0x10E08C, size: 0x8, addend: 0x0, symName: '__ZZ23whisper_full_with_stateENK3$_0clEv', symObjAddr: 0x14B48, symBinAddr: 0x15870, symSize: 0x15EC }
  - { offset: 0x11267D, size: 0x8, addend: 0x0, symName: __ZNSt3__16vectorINS0_I23whisper_grammar_elementNS_9allocatorIS1_EEEENS2_IS4_EEE18__assign_with_sizeB8ne190102IPS4_S8_EEvT_T0_l, symObjAddr: 0x31350, symBinAddr: 0x32078, symSize: 0x260 }
  - { offset: 0x11326A, size: 0x8, addend: 0x0, symName: __ZNSt3__16vectorINS0_IPK23whisper_grammar_elementNS_9allocatorIS3_EEEENS4_IS6_EEE18__assign_with_sizeB8ne190102IPS6_SA_EEvT_T0_l, symObjAddr: 0x316FC, symBinAddr: 0x32424, symSize: 0x260 }
  - { offset: 0x113E57, size: 0x8, addend: 0x0, symName: __ZNSt3__16vectorI18whisper_token_dataNS_9allocatorIS1_EEE8__appendEm, symObjAddr: 0x36834, symBinAddr: 0x3755C, symSize: 0x1A8 }
  - { offset: 0x11426C, size: 0x8, addend: 0x0, symName: __ZNSt3__16vectorI15whisper_segmentNS_9allocatorIS1_EEE21__push_back_slow_pathIS1_EEPS1_OT_, symObjAddr: 0x369DC, symBinAddr: 0x37704, symSize: 0x1C8 }
  - { offset: 0x114277, size: 0x8, addend: 0x0, symName: __ZNSt3__16__treeINS_12__value_typeIiiEENS_19__map_value_compareIiS2_NS_4lessIiEELb1EEENS_9allocatorIS2_EEE7destroyEPNS_11__tree_nodeIS2_PvEE, symObjAddr: 0x31AA8, symBinAddr: 0x327D0, symSize: 0x44 }
  - { offset: 0x1143C0, size: 0x8, addend: 0x0, symName: __ZL12to_timestampxb, symObjAddr: 0x1618C, symBinAddr: 0x16EB4, symSize: 0x174 }
  - { offset: 0x11471F, size: 0x8, addend: 0x0, symName: __ZNSt3__16vectorI15whisper_segmentNS_9allocatorIS1_EEE21__push_back_slow_pathIS1_EEPS1_OT_, symObjAddr: 0x369DC, symBinAddr: 0x37704, symSize: 0x1C8 }
  - { offset: 0x115064, size: 0x8, addend: 0x0, symName: __ZNKSt3__16vectorI15whisper_segmentNS_9allocatorIS1_EEE20__throw_length_errorB8ne190102Ev, symObjAddr: 0x36BA4, symBinAddr: 0x378CC, symSize: 0x14 }
  - { offset: 0x115078, size: 0x8, addend: 0x0, symName: __ZL42whisper_exp_compute_token_level_timestampsR15whisper_contextR13whisper_stateiff, symObjAddr: 0x16350, symBinAddr: 0x17078, symSize: 0x7FC }
  - { offset: 0x115CC2, size: 0x8, addend: 0x0, symName: __ZL20whisper_wrap_segmentR15whisper_contextR13whisper_stateib, symObjAddr: 0x16B4C, symBinAddr: 0x17874, symSize: 0x518 }
  - { offset: 0x115CD5, size: 0x8, addend: 0x0, symName: __ZL20whisper_wrap_segmentR15whisper_contextR13whisper_stateib, symObjAddr: 0x16B4C, symBinAddr: 0x17874, symSize: 0x518 }
  - { offset: 0x1175D9, size: 0x8, addend: 0x0, symName: __ZNSt3__116allocator_traitsINS_9allocatorIZ23whisper_full_with_stateE14beam_candidateEEE7destroyB8ne190102IS2_Li0EEEvRS3_PT_, symObjAddr: 0x30BEC, symBinAddr: 0x31914, symSize: 0xD8 }
  - { offset: 0x117DC4, size: 0x8, addend: 0x0, symName: __ZNSt3__16vectorINS0_IZ23whisper_full_with_stateE14beam_candidateNS_9allocatorIS1_EEEENS2_IS4_EEE16__destroy_vectorclB8ne190102Ev, symObjAddr: 0x3709C, symBinAddr: 0x37DC4, symSize: 0x174 }
  - { offset: 0x11880E, size: 0x8, addend: 0x0, symName: __ZNKSt3__16vectorI23whisper_grammar_elementNS_9allocatorIS1_EEE20__throw_length_errorB8ne190102Ev, symObjAddr: 0x2B5EC, symBinAddr: 0x2C314, symSize: 0x14 }
  - { offset: 0x118838, size: 0x8, addend: 0x0, symName: __ZNKSt3__16vectorIPK23whisper_grammar_elementNS_9allocatorIS3_EEE20__throw_length_errorB8ne190102Ev, symObjAddr: 0x2B600, symBinAddr: 0x2C328, symSize: 0x14 }
  - { offset: 0x118843, size: 0x8, addend: 0x0, symName: __ZNKSt3__16vectorIPK23whisper_grammar_elementNS_9allocatorIS3_EEE20__throw_length_errorB8ne190102Ev, symObjAddr: 0x2B600, symBinAddr: 0x2C328, symSize: 0x14 }
  - { offset: 0x11886D, size: 0x8, addend: 0x0, symName: __ZNSt3__114__split_bufferINS_6vectorIPK23whisper_grammar_elementNS_9allocatorIS4_EEEERNS5_IS7_EEED1Ev, symObjAddr: 0x2B614, symBinAddr: 0x2C33C, symSize: 0x6C }
  - { offset: 0x118880, size: 0x8, addend: 0x0, symName: __ZNKSt3__16vectorINS0_I23whisper_grammar_elementNS_9allocatorIS1_EEEENS2_IS4_EEE20__throw_length_errorB8ne190102Ev, symObjAddr: 0x2B5D8, symBinAddr: 0x2C300, symSize: 0x14 }
  - { offset: 0x1188AA, size: 0x8, addend: 0x0, symName: __ZNKSt3__16vectorI23whisper_grammar_elementNS_9allocatorIS1_EEE20__throw_length_errorB8ne190102Ev, symObjAddr: 0x2B5EC, symBinAddr: 0x2C314, symSize: 0x14 }
  - { offset: 0x1188B5, size: 0x8, addend: 0x0, symName: __ZNKSt3__16vectorINS0_IPK23whisper_grammar_elementNS_9allocatorIS3_EEEENS4_IS6_EEE20__throw_length_errorB8ne190102Ev, symObjAddr: 0x2B680, symBinAddr: 0x2C3A8, symSize: 0x14 }
  - { offset: 0x1188DF, size: 0x8, addend: 0x0, symName: __ZNSt3__16vectorINS0_IPK23whisper_grammar_elementNS_9allocatorIS3_EEEENS4_IS6_EEE21__push_back_slow_pathIRKS6_EEPS6_OT_, symObjAddr: 0x2B694, symBinAddr: 0x2C3BC, symSize: 0x17C }
  - { offset: 0x1188EA, size: 0x8, addend: 0x0, symName: __ZNKSt3__16vectorIZ23whisper_full_with_stateE14beam_candidateNS_9allocatorIS1_EEE20__throw_length_errorB8ne190102Ev, symObjAddr: 0x30BD8, symBinAddr: 0x31900, symSize: 0x14 }
  - { offset: 0x118910, size: 0x8, addend: 0x0, symName: __ZNSt3__116allocator_traitsINS_9allocatorIZ23whisper_full_with_stateE14beam_candidateEEE7destroyB8ne190102IS2_Li0EEEvRS3_PT_, symObjAddr: 0x30BEC, symBinAddr: 0x31914, symSize: 0xD8 }
  - { offset: 0x11891B, size: 0x8, addend: 0x0, symName: __ZN15whisper_segmentD1Ev, symObjAddr: 0x16300, symBinAddr: 0x17028, symSize: 0x50 }
  - { offset: 0x118BDC, size: 0x8, addend: 0x0, symName: __ZNSt3__110unique_ptrI12ggml_backend20ggml_backend_deleterED1B8ne190102Ev, symObjAddr: 0x32CC8, symBinAddr: 0x339F0, symSize: 0x34 }
  - { offset: 0x118C7A, size: 0x8, addend: 0x0, symName: __ZNSt3__128__exception_guard_exceptionsINS_6vectorINS1_I23whisper_grammar_elementNS_9allocatorIS2_EEEENS3_IS5_EEE16__destroy_vectorEED1B8ne190102Ev, symObjAddr: 0x2B554, symBinAddr: 0x2C27C, symSize: 0x84 }
  - { offset: 0x118F4B, size: 0x8, addend: 0x0, symName: '__ZNSt3__110unique_ptrINS_5tupleIJNS0_INS_15__thread_structENS_14default_deleteIS2_EEEEZ23whisper_full_with_stateE3$_2EEENS3_IS7_EEED1B8ne190102Ev', symObjAddr: 0x39CD4, symBinAddr: 0x3A9FC, symSize: 0x48 }
  - { offset: 0x11910F, size: 0x8, addend: 0x0, symName: __ZNSt3__110unique_ptrINS_15__thread_structENS_14default_deleteIS1_EEED1B8ne190102Ev, symObjAddr: 0x1DEEC, symBinAddr: 0x1EC14, symSize: 0x3C }
  - { offset: 0x1191B0, size: 0x8, addend: 0x0, symName: '__ZNSt3__110unique_ptrINS_5tupleIJNS0_INS_15__thread_structENS_14default_deleteIS2_EEEEZ23whisper_full_with_stateE3$_0EEENS3_IS7_EEED1B8ne190102Ev', symObjAddr: 0x376C0, symBinAddr: 0x383E8, symSize: 0x48 }
  - { offset: 0x119374, size: 0x8, addend: 0x0, symName: _whisper_full_with_state.cold.2, symObjAddr: 0x3A150, symBinAddr: 0x105A7C, symSize: 0x48 }
  - { offset: 0x1194D1, size: 0x8, addend: 0x0, symName: __ZNSt3__16vectorINS0_IPK23whisper_grammar_elementNS_9allocatorIS3_EEEENS4_IS6_EEED1B8ne190102Ev, symObjAddr: 0x2B46C, symBinAddr: 0x2C194, symSize: 0x74 }
  - { offset: 0x11979C, size: 0x8, addend: 0x0, symName: __ZNSt3__128__exception_guard_exceptionsINS_6vectorINS1_IPK23whisper_grammar_elementNS_9allocatorIS4_EEEENS5_IS7_EEE16__destroy_vectorEED1B8ne190102Ev, symObjAddr: 0x30FD4, symBinAddr: 0x31CFC, symSize: 0x84 }
  - { offset: 0x119A6D, size: 0x8, addend: 0x0, symName: __ZNSt3__16vectorINS0_I23whisper_grammar_elementNS_9allocatorIS1_EEEENS2_IS4_EEED1B8ne190102Ev, symObjAddr: 0x2B4E0, symBinAddr: 0x2C208, symSize: 0x74 }
  - { offset: 0x119D38, size: 0x8, addend: 0x0, symName: _whisper_full_with_state.cold.1, symObjAddr: 0x3A108, symBinAddr: 0x105A34, symSize: 0x48 }
  - { offset: 0x119F78, size: 0x8, addend: 0x0, symName: _whisper_full_with_state.cold.3, symObjAddr: 0x3A198, symBinAddr: 0x105AC4, symSize: 0x48 }
  - { offset: 0x11A0BE, size: 0x8, addend: 0x0, symName: __ZNSt3__16vectorIZ23whisper_full_with_stateE14beam_candidateNS_9allocatorIS1_EEED1B8ne190102Ev, symObjAddr: 0x17064, symBinAddr: 0x17D8C, symSize: 0x60 }
  - { offset: 0x11A214, size: 0x8, addend: 0x0, symName: __ZN15whisper_grammaraSEOS_, symObjAddr: 0x13204, symBinAddr: 0x13F2C, symSize: 0x118 }
  - { offset: 0x11B560, size: 0x8, addend: 0x0, symName: __ZNSt3__111basic_regexIcNS_12regex_traitsIcEEEC2B8ne190102EPKcNS_15regex_constants18syntax_option_typeE, symObjAddr: 0x2B810, symBinAddr: 0x2C538, symSize: 0xC8 }
  - { offset: 0x11B739, size: 0x8, addend: 0x0, symName: __ZL33whisper_grammar_reject_candidatesRKNSt3__16vectorINS0_I23whisper_grammar_elementNS_9allocatorIS1_EEEENS2_IS4_EEEERKNS0_INS0_IPKS1_NS2_ISA_EEEENS2_ISC_EEEERKNS0_I25whisper_grammar_candidateNS2_ISH_EEEE, symObjAddr: 0x2F838, symBinAddr: 0x30560, symSize: 0x100 }
  - { offset: 0x11BB83, size: 0x8, addend: 0x0, symName: __ZL22whisper_process_logitsR15whisper_contextR13whisper_stateR15whisper_decoder19whisper_full_paramsf.cold.1, symObjAddr: 0x3A1E0, symBinAddr: 0x105B0C, symSize: 0x38 }
  - { offset: 0x11BB9B, size: 0x8, addend: 0x0, symName: __ZNKSt3__16vectorI25whisper_grammar_candidateNS_9allocatorIS1_EEE20__throw_length_errorB8ne190102Ev, symObjAddr: 0x2F9C0, symBinAddr: 0x306E8, symSize: 0x14 }
  - { offset: 0x11BBC5, size: 0x8, addend: 0x0, symName: __ZL43whisper_grammar_reject_candidates_for_stackRKNSt3__16vectorINS0_I23whisper_grammar_elementNS_9allocatorIS1_EEEENS2_IS4_EEEERKNS0_IPKS1_NS2_ISA_EEEERKNS0_I25whisper_grammar_candidateNS2_ISF_EEEE, symObjAddr: 0x2F9D4, symBinAddr: 0x306FC, symSize: 0xAD4 }
  - { offset: 0x11BBD0, size: 0x8, addend: 0x0, symName: __ZNKSt3__16vectorINS_4pairINS0_IjNS_9allocatorIjEEEE20whisper_partial_utf8EENS2_IS6_EEE20__throw_length_errorB8ne190102Ev, symObjAddr: 0x2F9AC, symBinAddr: 0x306D4, symSize: 0x14 }
  - { offset: 0x11BBFA, size: 0x8, addend: 0x0, symName: __ZNKSt3__16vectorI25whisper_grammar_candidateNS_9allocatorIS1_EEE20__throw_length_errorB8ne190102Ev, symObjAddr: 0x2F9C0, symBinAddr: 0x306E8, symSize: 0x14 }
  - { offset: 0x11BC05, size: 0x8, addend: 0x0, symName: __ZNSt3__16vectorINS_4pairINS0_IjNS_9allocatorIjEEEE20whisper_partial_utf8EENS2_IS6_EEED1B8ne190102Ev, symObjAddr: 0x2F938, symBinAddr: 0x30660, symSize: 0x74 }
  - { offset: 0x11C9D1, size: 0x8, addend: 0x0, symName: __ZNSt3__16vectorI12whisper_pairIdiENS_9allocatorIS2_EEE8__appendEm, symObjAddr: 0x309DC, symBinAddr: 0x31704, symSize: 0x1E8 }
  - { offset: 0x11CED8, size: 0x8, addend: 0x0, symName: __ZNKSt3__16vectorI12whisper_pairIdiENS_9allocatorIS2_EEE20__throw_length_errorB8ne190102Ev, symObjAddr: 0x30BC4, symBinAddr: 0x318EC, symSize: 0x14 }
  - { offset: 0x11CEE3, size: 0x8, addend: 0x0, symName: __ZNSt3__121discrete_distributionIiE10param_type6__initEv, symObjAddr: 0x3058C, symBinAddr: 0x312B4, symSize: 0x220 }
  - { offset: 0x11D523, size: 0x8, addend: 0x0, symName: __ZNSt3__121discrete_distributionIiEclINS_23mersenne_twister_engineIjLm32ELm624ELm397ELm31ELj2567483615ELm11ELj4294967295ELm7ELj2636928640ELm15ELj4022730752ELm18ELj1812433253EEEEEiRT_RKNS1_10param_typeE, symObjAddr: 0x30878, symBinAddr: 0x315A0, symSize: 0x164 }
  - { offset: 0x11D579, size: 0x8, addend: 0x0, symName: __ZNSt3__121discrete_distributionIiEclINS_23mersenne_twister_engineIjLm32ELm624ELm397ELm31ELj2567483615ELm11ELj4294967295ELm7ELj2636928640ELm15ELj4022730752ELm18ELj1812433253EEEEEiRT_RKNS1_10param_typeE, symObjAddr: 0x30878, symBinAddr: 0x315A0, symSize: 0x164 }
  - { offset: 0x11D84D, size: 0x8, addend: 0x0, symName: __ZN15whisper_grammarC2ERKS_, symObjAddr: 0x30CC4, symBinAddr: 0x319EC, symSize: 0x1A8 }
  - { offset: 0x11DE65, size: 0x8, addend: 0x0, symName: __ZNKSt3__16vectorIdNS_9allocatorIdEEE20__throw_length_errorB8ne190102Ev, symObjAddr: 0x307AC, symBinAddr: 0x314D4, symSize: 0x14 }
  - { offset: 0x11DE8F, size: 0x8, addend: 0x0, symName: __ZNSt3__16vectorIdNS_9allocatorIdEEE13shrink_to_fitEv, symObjAddr: 0x307C0, symBinAddr: 0x314E8, symSize: 0xB8 }
  - { offset: 0x11DE9A, size: 0x8, addend: 0x0, symName: __ZZ23whisper_full_with_stateEN14beam_candidateD1Ev, symObjAddr: 0x304A8, symBinAddr: 0x311D0, symSize: 0xD0 }
  - { offset: 0x11E882, size: 0x8, addend: 0x0, symName: __ZNSt3__16vectorI18whisper_token_dataNS_9allocatorIS1_EEE18__insert_with_sizeB8ne190102INS_11__wrap_iterIPS1_EES8_EES8_NS6_IPKS1_EET_T0_l, symObjAddr: 0x31AEC, symBinAddr: 0x32814, symSize: 0x26C }
  - { offset: 0x11F35B, size: 0x8, addend: 0x0, symName: __ZNKSt3__16vectorIN13whisper_state16vad_segment_infoENS_9allocatorIS2_EEE20__throw_length_errorB8ne190102Ev, symObjAddr: 0x31D58, symBinAddr: 0x32A80, symSize: 0x14 }
  - { offset: 0x11F378, size: 0x8, addend: 0x0, symName: __ZNSt3__16vectorI18whisper_token_dataNS_9allocatorIS1_EEE18__assign_with_sizeB8ne190102IPS1_S6_EEvT_T0_l, symObjAddr: 0x311C0, symBinAddr: 0x31EE8, symSize: 0x190 }
  - { offset: 0x11FE80, size: 0x8, addend: 0x0, symName: __ZNSt3__16vectorINS0_I23whisper_grammar_elementNS_9allocatorIS1_EEEENS2_IS4_EEE18__assign_with_sizeB8ne190102IPS4_S8_EEvT_T0_l, symObjAddr: 0x31350, symBinAddr: 0x32078, symSize: 0x260 }
  - { offset: 0x11FEA9, size: 0x8, addend: 0x0, symName: _whisper_full, symObjAddr: 0x170C4, symBinAddr: 0x17DEC, symSize: 0x154 }
  - { offset: 0x1202E2, size: 0x8, addend: 0x0, symName: __ZL11whisper_vadP15whisper_contextP13whisper_state19whisper_full_paramsPKfiRNSt3__16vectorIfNS6_9allocatorIfEEEE, symObjAddr: 0x17218, symBinAddr: 0x17F40, symSize: 0xCB8 }
  - { offset: 0x12356A, size: 0x8, addend: 0x0, symName: __ZNKSt3__16vectorI16vad_time_mappingNS_9allocatorIS1_EEE20__throw_length_errorB8ne190102Ev, symObjAddr: 0x31D6C, symBinAddr: 0x32A94, symSize: 0x14 }
  - { offset: 0x123594, size: 0x8, addend: 0x0, symName: '__ZNSt3__111__introsortINS_17_ClassicAlgPolicyERZL11whisper_vadP15whisper_contextP13whisper_state19whisper_full_paramsPKfiRNS_6vectorIfNS_9allocatorIfEEEEE3$_0P16vad_time_mappingLb0EEEvT1_SI_T0_NS_15iterator_traitsISI_E15difference_typeEb', symObjAddr: 0x31D80, symBinAddr: 0x32AA8, symSize: 0xAFC }
  - { offset: 0x12359F, size: 0x8, addend: 0x0, symName: __ZNKSt3__16vectorIN13whisper_state16vad_segment_infoENS_9allocatorIS2_EEE20__throw_length_errorB8ne190102Ev, symObjAddr: 0x31D58, symBinAddr: 0x32A80, symSize: 0x14 }
  - { offset: 0x1235C9, size: 0x8, addend: 0x0, symName: __ZNKSt3__16vectorI16vad_time_mappingNS_9allocatorIS1_EEE20__throw_length_errorB8ne190102Ev, symObjAddr: 0x31D6C, symBinAddr: 0x32A94, symSize: 0x14 }
  - { offset: 0x123B2C, size: 0x8, addend: 0x0, symName: _whisper_full_parallel, symObjAddr: 0x17ED0, symBinAddr: 0x18BF8, symSize: 0x7BC }
  - { offset: 0x12542C, size: 0x8, addend: 0x0, symName: __ZNSt3__16threadC2IRFiP15whisper_contextP13whisper_state19whisper_full_paramsPKfiEJRS3_RS5_S6_S8_RKiELi0EEEOT_DpOT0_, symObjAddr: 0x39D30, symBinAddr: 0x3AA58, symSize: 0x128 }
  - { offset: 0x125A30, size: 0x8, addend: 0x0, symName: __ZNKSt3__16vectorIP13whisper_stateNS_9allocatorIS2_EEE20__throw_length_errorB8ne190102Ev, symObjAddr: 0x39D1C, symBinAddr: 0x3AA44, symSize: 0x14 }
  - { offset: 0x125A5A, size: 0x8, addend: 0x0, symName: __ZNSt3__16threadC2IRFiP15whisper_contextP13whisper_state19whisper_full_paramsPKfiEJRS3_RS5_S6_S8_RKiELi0EEEOT_DpOT0_, symObjAddr: 0x39D30, symBinAddr: 0x3AA58, symSize: 0x128 }
  - { offset: 0x125A65, size: 0x8, addend: 0x0, symName: _whisper_full_n_segments_from_state, symObjAddr: 0x1868C, symBinAddr: 0x193B4, symSize: 0x20 }
  - { offset: 0x125A95, size: 0x8, addend: 0x0, symName: _whisper_full_n_segments_from_state, symObjAddr: 0x1868C, symBinAddr: 0x193B4, symSize: 0x20 }
  - { offset: 0x125AB5, size: 0x8, addend: 0x0, symName: _whisper_full_n_segments, symObjAddr: 0x186AC, symBinAddr: 0x193D4, symSize: 0x24 }
  - { offset: 0x125B03, size: 0x8, addend: 0x0, symName: _whisper_full_lang_id_from_state, symObjAddr: 0x186D0, symBinAddr: 0x193F8, symSize: 0xC }
  - { offset: 0x125B30, size: 0x8, addend: 0x0, symName: _whisper_full_lang_id, symObjAddr: 0x186DC, symBinAddr: 0x19404, symSize: 0x10 }
  - { offset: 0x125C59, size: 0x8, addend: 0x0, symName: _whisper_full_get_segment_t0_from_state, symObjAddr: 0x186EC, symBinAddr: 0x19414, symSize: 0xCC }
  - { offset: 0x125F1C, size: 0x8, addend: 0x0, symName: _whisper_full_get_segment_t1_from_state, symObjAddr: 0x187B8, symBinAddr: 0x194E0, symSize: 0x1A4 }
  - { offset: 0x12642C, size: 0x8, addend: 0x0, symName: _whisper_full_get_segment_t0, symObjAddr: 0x1895C, symBinAddr: 0x19684, symSize: 0xD0 }
  - { offset: 0x1266E5, size: 0x8, addend: 0x0, symName: _whisper_full_get_segment_t1, symObjAddr: 0x18A2C, symBinAddr: 0x19754, symSize: 0x8 }
  - { offset: 0x126738, size: 0x8, addend: 0x0, symName: _whisper_full_get_segment_speaker_turn_next_from_state, symObjAddr: 0x18A34, symBinAddr: 0x1975C, symSize: 0x14 }
  - { offset: 0x126777, size: 0x8, addend: 0x0, symName: _whisper_full_get_segment_speaker_turn_next_from_state, symObjAddr: 0x18A34, symBinAddr: 0x1975C, symSize: 0x14 }
  - { offset: 0x126797, size: 0x8, addend: 0x0, symName: _whisper_full_get_segment_speaker_turn_next, symObjAddr: 0x18A48, symBinAddr: 0x19770, symSize: 0x18 }
  - { offset: 0x1267F6, size: 0x8, addend: 0x0, symName: _whisper_full_get_segment_text_from_state, symObjAddr: 0x18A60, symBinAddr: 0x19788, symSize: 0x24 }
  - { offset: 0x126835, size: 0x8, addend: 0x0, symName: _whisper_full_get_segment_text_from_state, symObjAddr: 0x18A60, symBinAddr: 0x19788, symSize: 0x24 }
  - { offset: 0x1268DE, size: 0x8, addend: 0x0, symName: _whisper_full_get_segment_text, symObjAddr: 0x18A84, symBinAddr: 0x197AC, symSize: 0x28 }
  - { offset: 0x1269C6, size: 0x8, addend: 0x0, symName: _whisper_full_n_tokens_from_state, symObjAddr: 0x18AAC, symBinAddr: 0x197D4, symSize: 0x28 }
  - { offset: 0x126A05, size: 0x8, addend: 0x0, symName: _whisper_full_n_tokens_from_state, symObjAddr: 0x18AAC, symBinAddr: 0x197D4, symSize: 0x28 }
  - { offset: 0x126A46, size: 0x8, addend: 0x0, symName: _whisper_full_n_tokens, symObjAddr: 0x18AD4, symBinAddr: 0x197FC, symSize: 0x2C }
  - { offset: 0x126AC6, size: 0x8, addend: 0x0, symName: _whisper_full_get_token_text_from_state, symObjAddr: 0x18B00, symBinAddr: 0x19828, symSize: 0x104 }
  - { offset: 0x126F5F, size: 0x8, addend: 0x0, symName: _whisper_full_get_token_text, symObjAddr: 0x18C04, symBinAddr: 0x1992C, symSize: 0x108 }
  - { offset: 0x1273E7, size: 0x8, addend: 0x0, symName: _whisper_full_get_token_id_from_state, symObjAddr: 0x18D0C, symBinAddr: 0x19A34, symSize: 0x20 }
  - { offset: 0x127435, size: 0x8, addend: 0x0, symName: _whisper_full_get_token_id_from_state, symObjAddr: 0x18D0C, symBinAddr: 0x19A34, symSize: 0x20 }
  - { offset: 0x127476, size: 0x8, addend: 0x0, symName: _whisper_full_get_token_id, symObjAddr: 0x18D2C, symBinAddr: 0x19A54, symSize: 0x24 }
  - { offset: 0x127505, size: 0x8, addend: 0x0, symName: _whisper_full_get_token_data_from_state, symObjAddr: 0x18D50, symBinAddr: 0x19A78, symSize: 0x34 }
  - { offset: 0x127551, size: 0x8, addend: 0x0, symName: _whisper_full_get_token_data_from_state, symObjAddr: 0x18D50, symBinAddr: 0x19A78, symSize: 0x34 }
  - { offset: 0x127592, size: 0x8, addend: 0x0, symName: _whisper_full_get_token_data, symObjAddr: 0x18D84, symBinAddr: 0x19AAC, symSize: 0x38 }
  - { offset: 0x12761F, size: 0x8, addend: 0x0, symName: _whisper_full_get_token_p_from_state, symObjAddr: 0x18DBC, symBinAddr: 0x19AE4, symSize: 0x20 }
  - { offset: 0x12766B, size: 0x8, addend: 0x0, symName: _whisper_full_get_token_p_from_state, symObjAddr: 0x18DBC, symBinAddr: 0x19AE4, symSize: 0x20 }
  - { offset: 0x1276AC, size: 0x8, addend: 0x0, symName: _whisper_full_get_token_p, symObjAddr: 0x18DDC, symBinAddr: 0x19B04, symSize: 0x24 }
  - { offset: 0x127739, size: 0x8, addend: 0x0, symName: _whisper_full_get_segment_no_speech_prob, symObjAddr: 0x18E00, symBinAddr: 0x19B28, symSize: 0x18 }
  - { offset: 0x127796, size: 0x8, addend: 0x0, symName: _whisper_full_get_segment_no_speech_prob_from_state, symObjAddr: 0x18E18, symBinAddr: 0x19B40, symSize: 0x14 }
  - { offset: 0x1277D3, size: 0x8, addend: 0x0, symName: _whisper_full_get_segment_no_speech_prob_from_state, symObjAddr: 0x18E18, symBinAddr: 0x19B40, symSize: 0x14 }
  - { offset: 0x1277F3, size: 0x8, addend: 0x0, symName: _whisper_bench_memcpy, symObjAddr: 0x18E2C, symBinAddr: 0x19B54, symSize: 0x28 }
  - { offset: 0x127DD1, size: 0x8, addend: 0x0, symName: _whisper_bench_memcpy_str.cold.1, symObjAddr: 0x3A218, symBinAddr: 0x105B44, symSize: 0x50 }
  - { offset: 0x127E5A, size: 0x8, addend: 0x0, symName: '__ZNSt3__110unique_ptrINS_5tupleIJNS0_INS_15__thread_structENS_14default_deleteIS2_EEEEZ24whisper_bench_memcpy_strE3$_0iEEENS3_IS7_EEED1B8ne190102Ev', symObjAddr: 0x3A070, symBinAddr: 0x3AD98, symSize: 0x48 }
  - { offset: 0x12801E, size: 0x8, addend: 0x0, symName: _whisper_bench_ggml_mul_mat, symObjAddr: 0x1A064, symBinAddr: 0x1AD8C, symSize: 0x28 }
  - { offset: 0x128455, size: 0x8, addend: 0x0, symName: _whisper_bench_ggml_mul_mat_str.cold.1, symObjAddr: 0x3A268, symBinAddr: 0x105B94, symSize: 0x50 }
  - { offset: 0x128531, size: 0x8, addend: 0x0, symName: _whisper_log_set, symObjAddr: 0x1A84C, symBinAddr: 0x1B574, symSize: 0x24 }
  - { offset: 0x128580, size: 0x8, addend: 0x0, symName: __ZL28whisper_log_callback_default14ggml_log_levelPKcPv, symObjAddr: 0x1A870, symBinAddr: 0x1B598, symSize: 0x40 }
  - { offset: 0x12890B, size: 0x8, addend: 0x0, symName: __ZNSt3__13mapI10asr_tensorPKcNS_4lessIS1_EENS_9allocatorINS_4pairIKS1_S3_EEEEE6insertB8ne190102INS_20__map_const_iteratorINS_21__tree_const_iteratorINS_12__value_typeIS1_S3_EEPNS_11__tree_nodeISG_PvEElEEEEEEvT_SN_, symObjAddr: 0x1A8B0, symBinAddr: 0x1B5D8, symSize: 0x100 }
  - { offset: 0x128953, size: 0x8, addend: 0x0, symName: __ZNSt3__13mapI10asr_tensorPKcNS_4lessIS1_EENS_9allocatorINS_4pairIKS1_S3_EEEEE6insertB8ne190102INS_20__map_const_iteratorINS_21__tree_const_iteratorINS_12__value_typeIS1_S3_EEPNS_11__tree_nodeISG_PvEElEEEEEEvT_SN_, symObjAddr: 0x1A8B0, symBinAddr: 0x1B5D8, symSize: 0x100 }
  - { offset: 0x128C92, size: 0x8, addend: 0x0, symName: __ZNSt3__16__treeINS_12__value_typeI10asr_tensorPKcEENS_19__map_value_compareIS2_S5_NS_4lessIS2_EELb1EEENS_9allocatorIS5_EEE12__find_equalIS2_EERPNS_16__tree_node_baseIPvEENS_21__tree_const_iteratorIS5_PNS_11__tree_nodeIS5_SF_EElEERPNS_15__tree_end_nodeISH_EESI_RKT_, symObjAddr: 0x1A9B0, symBinAddr: 0x1B6D8, symSize: 0x1B0 }
  - { offset: 0x128CFA, size: 0x8, addend: 0x0, symName: __ZNSt3__16__treeINS_12__value_typeI10asr_tensorPKcEENS_19__map_value_compareIS2_S5_NS_4lessIS2_EELb1EEENS_9allocatorIS5_EEE12__find_equalIS2_EERPNS_16__tree_node_baseIPvEENS_21__tree_const_iteratorIS5_PNS_11__tree_nodeIS5_SF_EElEERPNS_15__tree_end_nodeISH_EESI_RKT_, symObjAddr: 0x1A9B0, symBinAddr: 0x1B6D8, symSize: 0x1B0 }
  - { offset: 0x128D18, size: 0x8, addend: 0x0, symName: __ZNSt3__16__treeINS_12__value_typeI10asr_tensorPKcEENS_19__map_value_compareIS2_S5_NS_4lessIS2_EELb1EEENS_9allocatorIS5_EEE12__find_equalIS2_EERPNS_16__tree_node_baseIPvEENS_21__tree_const_iteratorIS5_PNS_11__tree_nodeIS5_SF_EElEERPNS_15__tree_end_nodeISH_EESI_RKT_, symObjAddr: 0x1A9B0, symBinAddr: 0x1B6D8, symSize: 0x1B0 }
  - { offset: 0x129240, size: 0x8, addend: 0x0, symName: __ZNSt3__16__treeINS_12__value_typeI10asr_tensorPKcEENS_19__map_value_compareIS2_S5_NS_4lessIS2_EELb1EEENS_9allocatorIS5_EEE7destroyEPNS_11__tree_nodeIS5_PvEE, symObjAddr: 0x1AD3C, symBinAddr: 0x1BA64, symSize: 0x44 }
  - { offset: 0x1295E9, size: 0x8, addend: 0x0, symName: __ZN15whisper_decoderD2Ev, symObjAddr: 0x1B1B4, symBinAddr: 0x1BEDC, symSize: 0x110 }
  - { offset: 0x12A30B, size: 0x8, addend: 0x0, symName: __ZNSt12length_errorC1B8ne190102EPKc, symObjAddr: 0x1B36C, symBinAddr: 0x1C094, symSize: 0x24 }
  - { offset: 0x12A9B9, size: 0x8, addend: 0x0, symName: __ZNKSt3__16vectorI15whisper_kv_cellNS_9allocatorIS1_EEE20__throw_length_errorB8ne190102Ev, symObjAddr: 0x1B568, symBinAddr: 0x1C290, symSize: 0x14 }
  - { offset: 0x12A9E3, size: 0x8, addend: 0x0, symName: __ZL28get_alignment_heads_by_layerRK22whisper_context_paramsiii, symObjAddr: 0x1B57C, symBinAddr: 0x1C2A4, symSize: 0x2B0 }
  - { offset: 0x12ACDF, size: 0x8, addend: 0x0, symName: __ZNKSt3__16vectorIjNS_9allocatorIjEEE20__throw_length_errorB8ne190102Ev, symObjAddr: 0x1B8A0, symBinAddr: 0x1C5C8, symSize: 0x14 }
  - { offset: 0x12AD09, size: 0x8, addend: 0x0, symName: __ZNKSt3__16vectorIP11ggml_tensorNS_9allocatorIS2_EEE20__throw_length_errorB8ne190102Ev, symObjAddr: 0x1B8B4, symBinAddr: 0x1C5DC, symSize: 0x14 }
  - { offset: 0x12AD14, size: 0x8, addend: 0x0, symName: __ZNSt12out_of_rangeC1B8ne190102EPKc, symObjAddr: 0x1B87C, symBinAddr: 0x1C5A4, symSize: 0x24 }
  - { offset: 0x12AE4D, size: 0x8, addend: 0x0, symName: '__ZZ43whisper_init_from_file_with_params_no_stateEN3$_08__invokeEPvS0_m', symObjAddr: 0x1B8FC, symBinAddr: 0x1C624, symSize: 0x24 }
  - { offset: 0x12AF48, size: 0x8, addend: 0x0, symName: '__ZZ43whisper_init_from_file_with_params_no_stateEN3$_18__invokeEPv', symObjAddr: 0x1B920, symBinAddr: 0x1C648, symSize: 0x18 }
  - { offset: 0x12AF75, size: 0x8, addend: 0x0, symName: '__ZZ43whisper_init_from_file_with_params_no_stateEN3$_18__invokeEPv', symObjAddr: 0x1B920, symBinAddr: 0x1C648, symSize: 0x18 }
  - { offset: 0x12B037, size: 0x8, addend: 0x0, symName: '__ZZ43whisper_init_from_file_with_params_no_stateEN3$_28__invokeEPv', symObjAddr: 0x1B938, symBinAddr: 0x1C660, symSize: 0x48 }
  - { offset: 0x12B152, size: 0x8, addend: 0x0, symName: '__ZZ45whisper_init_from_buffer_with_params_no_stateEN3$_08__invokeEPvS0_m', symObjAddr: 0x1B980, symBinAddr: 0x1C6A8, symSize: 0x58 }
  - { offset: 0x12B221, size: 0x8, addend: 0x0, symName: '__ZZ45whisper_init_from_buffer_with_params_no_stateEN3$_18__invokeEPv', symObjAddr: 0x1B9D8, symBinAddr: 0x1C700, symSize: 0x10 }
  - { offset: 0x12B261, size: 0x8, addend: 0x0, symName: '__ZZ45whisper_init_from_buffer_with_params_no_stateEN3$_28__invokeEPv', symObjAddr: 0x1B9E8, symBinAddr: 0x1C710, symSize: 0x4 }
  - { offset: 0x12B6BF, size: 0x8, addend: 0x0, symName: __ZNKSt3__13mapI10asr_systemNS0_I10asr_tensorPKcNS_4lessIS2_EENS_9allocatorINS_4pairIKS2_S4_EEEEEENS5_IS1_EENS7_INS8_IKS1_SC_EEEEE2atERSE_, symObjAddr: 0x1C768, symBinAddr: 0x1D490, symSize: 0x54 }
  - { offset: 0x12B7C2, size: 0x8, addend: 0x0, symName: __ZNKSt3__13mapI10asr_tensorPKcNS_4lessIS1_EENS_9allocatorINS_4pairIKS1_S3_EEEEE2atERS8_, symObjAddr: 0x1C7BC, symBinAddr: 0x1D4E4, symSize: 0x54 }
  - { offset: 0x12BD31, size: 0x8, addend: 0x0, symName: __ZNSt3__110unique_ptrINS_11__tree_nodeINS_12__value_typeINS_12basic_stringIcNS_11char_traitsIcEENS_9allocatorIcEEEEiEEPvEENS_22__tree_node_destructorINS6_ISB_EEEEED1B8ne190102Ev, symObjAddr: 0x1C27C, symBinAddr: 0x1CFA4, symSize: 0x60 }
  - { offset: 0x12C4AF, size: 0x8, addend: 0x0, symName: __ZNKSt3__16vectorI21whisper_layer_encoderNS_9allocatorIS1_EEE20__throw_length_errorB8ne190102Ev, symObjAddr: 0x1C464, symBinAddr: 0x1D18C, symSize: 0x14 }
  - { offset: 0x12C4D9, size: 0x8, addend: 0x0, symName: __ZNSt3__16vectorI21whisper_layer_decoderNS_9allocatorIS1_EEE8__appendEm, symObjAddr: 0x1C478, symBinAddr: 0x1D1A0, symSize: 0x184 }
  - { offset: 0x12C7F8, size: 0x8, addend: 0x0, symName: __ZNKSt3__16vectorI21whisper_layer_decoderNS_9allocatorIS1_EEE20__throw_length_errorB8ne190102Ev, symObjAddr: 0x1C5FC, symBinAddr: 0x1D324, symSize: 0x14 }
  - { offset: 0x12C822, size: 0x8, addend: 0x0, symName: __ZL6formatPKcz, symObjAddr: 0x1C610, symBinAddr: 0x1D338, symSize: 0x158 }
  - { offset: 0x12CC15, size: 0x8, addend: 0x0, symName: __ZNSt3__16__treeINS_12__value_typeIiNS_12basic_stringIcNS_11char_traitsIcEENS_9allocatorIcEEEEEENS_19__map_value_compareIiS8_NS_4lessIiEELb1EEENS5_IS8_EEE7destroyEPNS_11__tree_nodeIS8_PvEE, symObjAddr: 0x1C910, symBinAddr: 0x1D638, symSize: 0x60 }
  - { offset: 0x12CEBF, size: 0x8, addend: 0x0, symName: __ZNSt3__16__treeINS_12__value_typeINS_12basic_stringIcNS_11char_traitsIcEENS_9allocatorIcEEEEiEENS_19__map_value_compareIS7_S8_NS_4lessIS7_EELb1EEENS5_IS8_EEE7destroyEPNS_11__tree_nodeIS8_PvEE, symObjAddr: 0x1C970, symBinAddr: 0x1D698, symSize: 0x60 }
  - { offset: 0x12D169, size: 0x8, addend: 0x0, symName: __ZNSt3__16__treeINS_12__value_typeINS_12basic_stringIcNS_11char_traitsIcEENS_9allocatorIcEEEEP11ggml_tensorEENS_19__map_value_compareIS7_SA_NS_4lessIS7_EELb1EEENS5_ISA_EEE7destroyEPNS_11__tree_nodeISA_PvEE, symObjAddr: 0x1C9D0, symBinAddr: 0x1D6F8, symSize: 0x60 }
  - { offset: 0x12D8E7, size: 0x8, addend: 0x0, symName: __ZL3fftPfiS_, symObjAddr: 0x1D678, symBinAddr: 0x1E3A0, symSize: 0x65C }
  - { offset: 0x12E361, size: 0x8, addend: 0x0, symName: __ZNSt3__110unique_ptrINS_5tupleIJNS0_INS_15__thread_structENS_14default_deleteIS2_EEEEPFviPKfRKNS_6vectorIfNS_9allocatorIfEEEEiiiiRK15whisper_filtersR11whisper_melEiS7_NS_17reference_wrapperISC_EExiiiNSL_ISF_EENSL_ISH_EEEEENS3_ISP_EEED1B8ne190102Ev, symObjAddr: 0x1DEA4, symBinAddr: 0x1EBCC, symSize: 0x48 }
  - { offset: 0x12E9D0, size: 0x8, addend: 0x0, symName: __ZL27whisper_build_graph_encoderR15whisper_contextR13whisper_state.cold.1, symObjAddr: 0x3A2B8, symBinAddr: 0x105BE4, symSize: 0x38 }
  - { offset: 0x12EA4B, size: 0x8, addend: 0x0, symName: __ZL27whisper_build_graph_decoderR15whisper_contextR13whisper_stateRK13whisper_batchbb.cold.1, symObjAddr: 0x3A2F0, symBinAddr: 0x105C1C, symSize: 0x38 }
  - { offset: 0x12EAFD, size: 0x8, addend: 0x0, symName: __ZNSt3__111basic_regexIcNS_12regex_traitsIcEEE7__parseINS_11__wrap_iterIPKcEEEET_S9_S9_, symObjAddr: 0x1FA90, symBinAddr: 0x207B8, symSize: 0x200 }
  - { offset: 0x12F037, size: 0x8, addend: 0x0, symName: __ZNSt3__110shared_ptrINS_13__empty_stateIcEEED1B8ne190102Ev, symObjAddr: 0x1FA34, symBinAddr: 0x2075C, symSize: 0x5C }
  - { offset: 0x12F727, size: 0x8, addend: 0x0, symName: __ZNSt3__111basic_regexIcNS_12regex_traitsIcEEE13__parse_egrepINS_11__wrap_iterIPKcEEEET_S9_S9_, symObjAddr: 0x203F0, symBinAddr: 0x21118, symSize: 0x1B8 }
  - { offset: 0x12FD24, size: 0x8, addend: 0x0, symName: __ZNSt3__111basic_regexIcNS_12regex_traitsIcEEE24__parse_extended_reg_expINS_11__wrap_iterIPKcEEEET_S9_S9_, symObjAddr: 0x200CC, symBinAddr: 0x20DF4, symSize: 0x16C }
  - { offset: 0x13009E, size: 0x8, addend: 0x0, symName: __ZNSt3__111basic_regexIcNS_12regex_traitsIcEEE12__parse_grepINS_11__wrap_iterIPKcEEEET_S9_S9_, symObjAddr: 0x20238, symBinAddr: 0x20F60, symSize: 0x1B8 }
  - { offset: 0x1300B2, size: 0x8, addend: 0x0, symName: __ZNSt3__111basic_regexIcNS_12regex_traitsIcEEE21__parse_basic_reg_expINS_11__wrap_iterIPKcEEEET_S9_S9_, symObjAddr: 0x1FF3C, symBinAddr: 0x20C64, symSize: 0x190 }
  - { offset: 0x13040F, size: 0x8, addend: 0x0, symName: __ZNSt3__111basic_regexIcNS_12regex_traitsIcEEE24__parse_extended_reg_expINS_11__wrap_iterIPKcEEEET_S9_S9_, symObjAddr: 0x200CC, symBinAddr: 0x20DF4, symSize: 0x16C }
  - { offset: 0x130423, size: 0x8, addend: 0x0, symName: __ZNSt3__111basic_regexIcNS_12regex_traitsIcEEE12__parse_grepINS_11__wrap_iterIPKcEEEET_S9_S9_, symObjAddr: 0x20238, symBinAddr: 0x20F60, symSize: 0x1B8 }
  - { offset: 0x130A20, size: 0x8, addend: 0x0, symName: __ZNSt3__111basic_regexIcNS_12regex_traitsIcEEE16__parse_ecma_expINS_11__wrap_iterIPKcEEEET_S9_S9_, symObjAddr: 0x1FCDC, symBinAddr: 0x20A04, symSize: 0x260 }
  - { offset: 0x131246, size: 0x8, addend: 0x0, symName: __ZNSt3__111basic_regexIcNS_12regex_traitsIcEEE17__parse_assertionINS_11__wrap_iterIPKcEEEET_S9_S9_, symObjAddr: 0x207EC, symBinAddr: 0x21514, symSize: 0x334 }
  - { offset: 0x1317BB, size: 0x8, addend: 0x0, symName: __ZNSt3__111basic_regexIcNS_12regex_traitsIcEEE12__parse_atomINS_11__wrap_iterIPKcEEEET_S9_S9_, symObjAddr: 0x20B20, symBinAddr: 0x21848, symSize: 0x280 }
  - { offset: 0x131B64, size: 0x8, addend: 0x0, symName: __ZNSt3__111basic_regexIcNS_12regex_traitsIcEEE23__parse_ERE_dupl_symbolINS_11__wrap_iterIPKcEEEET_S9_S9_PNS_16__owns_one_stateIcEEjj, symObjAddr: 0x20DA0, symBinAddr: 0x21AC8, symSize: 0x378 }
  - { offset: 0x131B78, size: 0x8, addend: 0x0, symName: __ZNSt3__111basic_regexIcNS_12regex_traitsIcEEE23__parse_ERE_dupl_symbolINS_11__wrap_iterIPKcEEEET_S9_S9_PNS_16__owns_one_stateIcEEjj, symObjAddr: 0x20DA0, symBinAddr: 0x21AC8, symSize: 0x378 }
  - { offset: 0x1321F7, size: 0x8, addend: 0x0, symName: __ZNSt3__111basic_regexIcNS_12regex_traitsIcEEE20__push_word_boundaryEb, symObjAddr: 0x21118, symBinAddr: 0x21E40, symSize: 0x74 }
  - { offset: 0x1323FD, size: 0x8, addend: 0x0, symName: __ZNSt3__111basic_regexIcNS_12regex_traitsIcEEE18__parse_nondupl_REINS_11__wrap_iterIPKcEEEET_S9_S9_, symObjAddr: 0x27910, symBinAddr: 0x28638, symSize: 0x21C }
  - { offset: 0x132916, size: 0x8, addend: 0x0, symName: __ZNSt3__111basic_regexIcNS_12regex_traitsIcEEE22__parse_RE_dupl_symbolINS_11__wrap_iterIPKcEEEET_S9_S9_PNS_16__owns_one_stateIcEEjj, symObjAddr: 0x27B2C, symBinAddr: 0x28854, symSize: 0x274 }
  - { offset: 0x13292A, size: 0x8, addend: 0x0, symName: __ZNSt3__111basic_regexIcNS_12regex_traitsIcEEE22__parse_RE_dupl_symbolINS_11__wrap_iterIPKcEEEET_S9_S9_PNS_16__owns_one_stateIcEEjj, symObjAddr: 0x27B2C, symBinAddr: 0x28854, symSize: 0x274 }
  - { offset: 0x132E77, size: 0x8, addend: 0x0, symName: __ZNSt3__111basic_regexIcNS_12regex_traitsIcEEE32__parse_one_char_or_coll_elem_REINS_11__wrap_iterIPKcEEEET_S9_S9_, symObjAddr: 0x27DA0, symBinAddr: 0x28AC8, symSize: 0x194 }
  - { offset: 0x132ECF, size: 0x8, addend: 0x0, symName: __ZNSt3__111basic_regexIcNS_12regex_traitsIcEEE22__parse_ERE_expressionINS_11__wrap_iterIPKcEEEET_S9_S9_, symObjAddr: 0x28064, symBinAddr: 0x28D8C, symSize: 0x208 }
  - { offset: 0x1332C1, size: 0x8, addend: 0x0, symName: __ZNSt3__111basic_regexIcNS_12regex_traitsIcEEE33__parse_one_char_or_coll_elem_EREINS_11__wrap_iterIPKcEEEET_S9_S9_, symObjAddr: 0x2826C, symBinAddr: 0x28F94, symSize: 0x160 }
  - { offset: 0x1332F1, size: 0x8, addend: 0x0, symName: __ZNSt3__111__end_stateIcED1Ev, symObjAddr: 0x205F4, symBinAddr: 0x2131C, symSize: 0x4 }
  - { offset: 0x13331D, size: 0x8, addend: 0x0, symName: __ZNSt3__111__end_stateIcED0Ev, symObjAddr: 0x205F8, symBinAddr: 0x21320, symSize: 0x4 }
  - { offset: 0x13333E, size: 0x8, addend: 0x0, symName: __ZNKSt3__111__end_stateIcE6__execERNS_7__stateIcEE, symObjAddr: 0x205FC, symBinAddr: 0x21324, symSize: 0xC }
  - { offset: 0x133372, size: 0x8, addend: 0x0, symName: __ZNKSt3__16__nodeIcE12__exec_splitEbRNS_7__stateIcEE, symObjAddr: 0x20608, symBinAddr: 0x21330, symSize: 0x4 }
  - { offset: 0x1333B2, size: 0x8, addend: 0x0, symName: __ZNKSt3__16__nodeIcE6__execERNS_7__stateIcEE, symObjAddr: 0x2060C, symBinAddr: 0x21334, symSize: 0x4 }
  - { offset: 0x1333FE, size: 0x8, addend: 0x0, symName: __ZNSt3__120__shared_ptr_pointerIPNS_13__empty_stateIcEENS_10shared_ptrIS2_E27__shared_ptr_default_deleteIS2_S2_EENS_9allocatorIS2_EEED1Ev, symObjAddr: 0x20610, symBinAddr: 0x21338, symSize: 0x4 }
  - { offset: 0x133422, size: 0x8, addend: 0x0, symName: __ZNSt3__120__shared_ptr_pointerIPNS_13__empty_stateIcEENS_10shared_ptrIS2_E27__shared_ptr_default_deleteIS2_S2_EENS_9allocatorIS2_EEED1Ev, symObjAddr: 0x20610, symBinAddr: 0x21338, symSize: 0x4 }
  - { offset: 0x133459, size: 0x8, addend: 0x0, symName: __ZNSt3__120__shared_ptr_pointerIPNS_13__empty_stateIcEENS_10shared_ptrIS2_E27__shared_ptr_default_deleteIS2_S2_EENS_9allocatorIS2_EEED0Ev, symObjAddr: 0x20614, symBinAddr: 0x2133C, symSize: 0x14 }
  - { offset: 0x1334C0, size: 0x8, addend: 0x0, symName: __ZNSt3__120__shared_ptr_pointerIPNS_13__empty_stateIcEENS_10shared_ptrIS2_E27__shared_ptr_default_deleteIS2_S2_EENS_9allocatorIS2_EEE16__on_zero_sharedEv, symObjAddr: 0x20628, symBinAddr: 0x21350, symSize: 0x18 }
  - { offset: 0x13356A, size: 0x8, addend: 0x0, symName: __ZNKSt3__120__shared_ptr_pointerIPNS_13__empty_stateIcEENS_10shared_ptrIS2_E27__shared_ptr_default_deleteIS2_S2_EENS_9allocatorIS2_EEE13__get_deleterERKSt9type_info, symObjAddr: 0x20640, symBinAddr: 0x21368, symSize: 0x74 }
  - { offset: 0x13367B, size: 0x8, addend: 0x0, symName: __ZNSt3__120__shared_ptr_pointerIPNS_13__empty_stateIcEENS_10shared_ptrIS2_E27__shared_ptr_default_deleteIS2_S2_EENS_9allocatorIS2_EEE21__on_zero_shared_weakEv, symObjAddr: 0x206B4, symBinAddr: 0x213DC, symSize: 0x4 }
  - { offset: 0x1336B0, size: 0x8, addend: 0x0, symName: __ZNSt3__120__shared_ptr_pointerIPNS_13__empty_stateIcEENS_10shared_ptrIS2_E27__shared_ptr_default_deleteIS2_S2_EENS_9allocatorIS2_EEE21__on_zero_shared_weakEv, symObjAddr: 0x206B4, symBinAddr: 0x213DC, symSize: 0x4 }
  - { offset: 0x1336D4, size: 0x8, addend: 0x0, symName: __ZNSt3__120__shared_ptr_pointerIPNS_13__empty_stateIcEENS_10shared_ptrIS2_E27__shared_ptr_default_deleteIS2_S2_EENS_9allocatorIS2_EEE21__on_zero_shared_weakEv, symObjAddr: 0x206B4, symBinAddr: 0x213DC, symSize: 0x4 }
  - { offset: 0x133703, size: 0x8, addend: 0x0, symName: __ZNSt3__120__shared_ptr_pointerIPNS_13__empty_stateIcEENS_10shared_ptrIS2_E27__shared_ptr_default_deleteIS2_S2_EENS_9allocatorIS2_EEE21__on_zero_shared_weakEv, symObjAddr: 0x206B4, symBinAddr: 0x213DC, symSize: 0x4 }
  - { offset: 0x13372C, size: 0x8, addend: 0x0, symName: __ZNSt3__120__shared_ptr_pointerIPNS_13__empty_stateIcEENS_10shared_ptrIS2_E27__shared_ptr_default_deleteIS2_S2_EENS_9allocatorIS2_EEE21__on_zero_shared_weakEv, symObjAddr: 0x206B4, symBinAddr: 0x213DC, symSize: 0x4 }
  - { offset: 0x133756, size: 0x8, addend: 0x0, symName: __ZNSt3__113__empty_stateIcED1Ev, symObjAddr: 0x206B8, symBinAddr: 0x213E0, symSize: 0x48 }
  - { offset: 0x13377C, size: 0x8, addend: 0x0, symName: __ZNSt3__113__empty_stateIcED1Ev, symObjAddr: 0x206B8, symBinAddr: 0x213E0, symSize: 0x48 }
  - { offset: 0x13379C, size: 0x8, addend: 0x0, symName: __ZNSt3__113__empty_stateIcED1Ev, symObjAddr: 0x206B8, symBinAddr: 0x213E0, symSize: 0x48 }
  - { offset: 0x1337C7, size: 0x8, addend: 0x0, symName: __ZNSt3__113__empty_stateIcED0Ev, symObjAddr: 0x20700, symBinAddr: 0x21428, symSize: 0x48 }
  - { offset: 0x1337ED, size: 0x8, addend: 0x0, symName: __ZNSt3__113__empty_stateIcED0Ev, symObjAddr: 0x20700, symBinAddr: 0x21428, symSize: 0x48 }
  - { offset: 0x13380D, size: 0x8, addend: 0x0, symName: __ZNSt3__113__empty_stateIcED0Ev, symObjAddr: 0x20700, symBinAddr: 0x21428, symSize: 0x48 }
  - { offset: 0x13382D, size: 0x8, addend: 0x0, symName: __ZNSt3__113__empty_stateIcED0Ev, symObjAddr: 0x20700, symBinAddr: 0x21428, symSize: 0x48 }
  - { offset: 0x133875, size: 0x8, addend: 0x0, symName: __ZNKSt3__113__empty_stateIcE6__execERNS_7__stateIcEE, symObjAddr: 0x20748, symBinAddr: 0x21470, symSize: 0x14 }
  - { offset: 0x1338C8, size: 0x8, addend: 0x0, symName: __ZNSt3__116__owns_one_stateIcED1Ev, symObjAddr: 0x2075C, symBinAddr: 0x21484, symSize: 0x48 }
  - { offset: 0x1338EE, size: 0x8, addend: 0x0, symName: __ZNSt3__116__owns_one_stateIcED1Ev, symObjAddr: 0x2075C, symBinAddr: 0x21484, symSize: 0x48 }
  - { offset: 0x133932, size: 0x8, addend: 0x0, symName: __ZNSt3__116__owns_one_stateIcED0Ev, symObjAddr: 0x207A4, symBinAddr: 0x214CC, symSize: 0x48 }
  - { offset: 0x133960, size: 0x8, addend: 0x0, symName: __ZNSt3__116__owns_one_stateIcED0Ev, symObjAddr: 0x207A4, symBinAddr: 0x214CC, symSize: 0x48 }
  - { offset: 0x133980, size: 0x8, addend: 0x0, symName: __ZNSt3__116__owns_one_stateIcED0Ev, symObjAddr: 0x207A4, symBinAddr: 0x214CC, symSize: 0x48 }
  - { offset: 0x133AAA, size: 0x8, addend: 0x0, symName: __ZNSt3__111basic_regexIcNS_12regex_traitsIcEEEC1B8ne190102Ev, symObjAddr: 0x2118C, symBinAddr: 0x21EB4, symSize: 0x6C }
  - { offset: 0x133B7D, size: 0x8, addend: 0x0, symName: __ZNSt3__111basic_regexIcNS_12regex_traitsIcEEE16__push_lookaheadERKS3_bj, symObjAddr: 0x211F8, symBinAddr: 0x21F20, symSize: 0xB0 }
  - { offset: 0x133DB8, size: 0x8, addend: 0x0, symName: __ZNSt3__111basic_regexIcNS_12regex_traitsIcEEE20__push_word_boundaryEb, symObjAddr: 0x21118, symBinAddr: 0x21E40, symSize: 0x74 }
  - { offset: 0x134099, size: 0x8, addend: 0x0, symName: __ZNSt3__111basic_regexIcNS_12regex_traitsIcEEE26__parse_bracket_expressionINS_11__wrap_iterIPKcEEEET_S9_S9_, symObjAddr: 0x229E4, symBinAddr: 0x2370C, symSize: 0x158 }
  - { offset: 0x1342EA, size: 0x8, addend: 0x0, symName: __ZNSt3__111basic_regexIcNS_12regex_traitsIcEEE19__parse_atom_escapeINS_11__wrap_iterIPKcEEEET_S9_S9_, symObjAddr: 0x22898, symBinAddr: 0x235C0, symSize: 0x14C }
  - { offset: 0x13446C, size: 0x8, addend: 0x0, symName: __ZNSt3__111basic_regexIcNS_12regex_traitsIcEEE26__parse_bracket_expressionINS_11__wrap_iterIPKcEEEET_S9_S9_, symObjAddr: 0x229E4, symBinAddr: 0x2370C, symSize: 0x158 }
  - { offset: 0x134480, size: 0x8, addend: 0x0, symName: __ZNSt3__111basic_regexIcNS_12regex_traitsIcEEE25__parse_pattern_characterINS_11__wrap_iterIPKcEEEET_S9_S9_, symObjAddr: 0x22B88, symBinAddr: 0x238B0, symSize: 0x7C }
  - { offset: 0x134657, size: 0x8, addend: 0x0, symName: __ZNSt3__111basic_regexIcNS_12regex_traitsIcEEE11__push_loopEmmPNS_16__owns_one_stateIcEEmmb, symObjAddr: 0x2714C, symBinAddr: 0x27E74, symSize: 0x138 }
  - { offset: 0x134C6F, size: 0x8, addend: 0x0, symName: __ZNSt3__120__l_anchor_multilineIcED1Ev, symObjAddr: 0x212F4, symBinAddr: 0x2201C, symSize: 0x48 }
  - { offset: 0x134C95, size: 0x8, addend: 0x0, symName: __ZNSt3__120__l_anchor_multilineIcED1Ev, symObjAddr: 0x212F4, symBinAddr: 0x2201C, symSize: 0x48 }
  - { offset: 0x134CB5, size: 0x8, addend: 0x0, symName: __ZNSt3__120__l_anchor_multilineIcED1Ev, symObjAddr: 0x212F4, symBinAddr: 0x2201C, symSize: 0x48 }
  - { offset: 0x134CFD, size: 0x8, addend: 0x0, symName: __ZNSt3__120__l_anchor_multilineIcED0Ev, symObjAddr: 0x2133C, symBinAddr: 0x22064, symSize: 0x48 }
  - { offset: 0x134D2E, size: 0x8, addend: 0x0, symName: __ZNSt3__120__l_anchor_multilineIcED0Ev, symObjAddr: 0x2133C, symBinAddr: 0x22064, symSize: 0x48 }
  - { offset: 0x134D4E, size: 0x8, addend: 0x0, symName: __ZNSt3__120__l_anchor_multilineIcED0Ev, symObjAddr: 0x2133C, symBinAddr: 0x22064, symSize: 0x48 }
  - { offset: 0x134D6E, size: 0x8, addend: 0x0, symName: __ZNSt3__120__l_anchor_multilineIcED0Ev, symObjAddr: 0x2133C, symBinAddr: 0x22064, symSize: 0x48 }
  - { offset: 0x134D9A, size: 0x8, addend: 0x0, symName: __ZNKSt3__120__l_anchor_multilineIcE6__execERNS_7__stateIcEE, symObjAddr: 0x21384, symBinAddr: 0x220AC, symSize: 0x68 }
  - { offset: 0x134DFF, size: 0x8, addend: 0x0, symName: __ZNSt3__120__r_anchor_multilineIcED1Ev, symObjAddr: 0x213EC, symBinAddr: 0x22114, symSize: 0x48 }
  - { offset: 0x134E25, size: 0x8, addend: 0x0, symName: __ZNSt3__120__r_anchor_multilineIcED1Ev, symObjAddr: 0x213EC, symBinAddr: 0x22114, symSize: 0x48 }
  - { offset: 0x134E45, size: 0x8, addend: 0x0, symName: __ZNSt3__120__r_anchor_multilineIcED1Ev, symObjAddr: 0x213EC, symBinAddr: 0x22114, symSize: 0x48 }
  - { offset: 0x134E8D, size: 0x8, addend: 0x0, symName: __ZNSt3__120__r_anchor_multilineIcED0Ev, symObjAddr: 0x21434, symBinAddr: 0x2215C, symSize: 0x48 }
  - { offset: 0x134EBE, size: 0x8, addend: 0x0, symName: __ZNSt3__120__r_anchor_multilineIcED0Ev, symObjAddr: 0x21434, symBinAddr: 0x2215C, symSize: 0x48 }
  - { offset: 0x134EDE, size: 0x8, addend: 0x0, symName: __ZNSt3__120__r_anchor_multilineIcED0Ev, symObjAddr: 0x21434, symBinAddr: 0x2215C, symSize: 0x48 }
  - { offset: 0x134EFE, size: 0x8, addend: 0x0, symName: __ZNSt3__120__r_anchor_multilineIcED0Ev, symObjAddr: 0x21434, symBinAddr: 0x2215C, symSize: 0x48 }
  - { offset: 0x134F2A, size: 0x8, addend: 0x0, symName: __ZNKSt3__120__r_anchor_multilineIcE6__execERNS_7__stateIcEE, symObjAddr: 0x2147C, symBinAddr: 0x221A4, symSize: 0x54 }
  - { offset: 0x134F8F, size: 0x8, addend: 0x0, symName: __ZNSt3__115__word_boundaryIcNS_12regex_traitsIcEEED1Ev, symObjAddr: 0x214D0, symBinAddr: 0x221F8, symSize: 0x58 }
  - { offset: 0x135046, size: 0x8, addend: 0x0, symName: __ZNSt3__115__word_boundaryIcNS_12regex_traitsIcEEED0Ev, symObjAddr: 0x21528, symBinAddr: 0x22250, symSize: 0x58 }
  - { offset: 0x135166, size: 0x8, addend: 0x0, symName: __ZNKSt3__115__word_boundaryIcNS_12regex_traitsIcEEE6__execERNS_7__stateIcEE, symObjAddr: 0x21580, symBinAddr: 0x222A8, symSize: 0x154 }
  - { offset: 0x13533A, size: 0x8, addend: 0x0, symName: __ZNSt3__111__lookaheadIcNS_12regex_traitsIcEEED1Ev, symObjAddr: 0x216D4, symBinAddr: 0x223FC, symSize: 0x8C }
  - { offset: 0x1354AC, size: 0x8, addend: 0x0, symName: __ZNSt3__111__lookaheadIcNS_12regex_traitsIcEEED0Ev, symObjAddr: 0x21760, symBinAddr: 0x22488, symSize: 0x8C }
  - { offset: 0x1356F5, size: 0x8, addend: 0x0, symName: __ZNKSt3__111__lookaheadIcNS_12regex_traitsIcEEE6__execERNS_7__stateIcEE, symObjAddr: 0x217EC, symBinAddr: 0x22514, symSize: 0x174 }
  - { offset: 0x135CB7, size: 0x8, addend: 0x0, symName: __ZNSt3__16vectorINS_9sub_matchIPKcEENS_9allocatorIS4_EEE6assignEmRKS4_, symObjAddr: 0x21DE4, symBinAddr: 0x22B0C, symSize: 0x1E4 }
  - { offset: 0x1362B2, size: 0x8, addend: 0x0, symName: __ZNKSt3__16vectorINS_9sub_matchIPKcEENS_9allocatorIS4_EEE20__throw_length_errorB8ne190102Ev, symObjAddr: 0x21FC8, symBinAddr: 0x22CF0, symSize: 0x14 }
  - { offset: 0x1362C5, size: 0x8, addend: 0x0, symName: __ZNKSt3__111basic_regexIcNS_12regex_traitsIcEEE21__match_at_start_ecmaINS_9allocatorINS_9sub_matchIPKcEEEEEEbS8_S8_RNS_13match_resultsIS8_T_EENS_15regex_constants15match_flag_typeEb, symObjAddr: 0x21960, symBinAddr: 0x22688, symSize: 0x484 }
  - { offset: 0x137CE0, size: 0x8, addend: 0x0, symName: __ZNSt3__16vectorINS_7__stateIcEENS_9allocatorIS2_EEE21__push_back_slow_pathIS2_EEPS2_OT_, symObjAddr: 0x22134, symBinAddr: 0x22E5C, symSize: 0x180 }
  - { offset: 0x1384B9, size: 0x8, addend: 0x0, symName: __ZNSt3__16vectorINS_9sub_matchIPKcEENS_9allocatorIS4_EEE8__appendEmRKS4_, symObjAddr: 0x22460, symBinAddr: 0x23188, symSize: 0x18C }
  - { offset: 0x138972, size: 0x8, addend: 0x0, symName: __ZNSt3__16vectorINS_4pairImPKcEENS_9allocatorIS4_EEE8__appendEm, symObjAddr: 0x225EC, symBinAddr: 0x23314, symSize: 0x124 }
  - { offset: 0x13897D, size: 0x8, addend: 0x0, symName: __ZNSt3__16vectorINS_4pairImPKcEENS_9allocatorIS4_EEE8__appendEm, symObjAddr: 0x225EC, symBinAddr: 0x23314, symSize: 0x124 }
  - { offset: 0x138E17, size: 0x8, addend: 0x0, symName: __ZNKSt3__16vectorINS_4pairImPKcEENS_9allocatorIS4_EEE20__throw_length_errorB8ne190102Ev, symObjAddr: 0x22710, symBinAddr: 0x23438, symSize: 0x14 }
  - { offset: 0x138E22, size: 0x8, addend: 0x0, symName: __ZNSt3__17__stateIcEC2ERKS1_, symObjAddr: 0x22724, symBinAddr: 0x2344C, symSize: 0x174 }
  - { offset: 0x1394F0, size: 0x8, addend: 0x0, symName: __ZNSt3__16vectorINS_7__stateIcEENS_9allocatorIS2_EEED1B8ne190102Ev, symObjAddr: 0x220B4, symBinAddr: 0x22DDC, symSize: 0x80 }
  - { offset: 0x139961, size: 0x8, addend: 0x0, symName: __ZNSt3__17__stateIcED1Ev, symObjAddr: 0x21FDC, symBinAddr: 0x22D04, symSize: 0x40 }
  - { offset: 0x139ED3, size: 0x8, addend: 0x0, symName: __ZNKSt3__16vectorINS_9sub_matchIPKcEENS_9allocatorIS4_EEE20__throw_length_errorB8ne190102Ev, symObjAddr: 0x21FC8, symBinAddr: 0x22CF0, symSize: 0x14 }
  - { offset: 0x139EFD, size: 0x8, addend: 0x0, symName: __ZNSt3__17__stateIcED1Ev, symObjAddr: 0x21FDC, symBinAddr: 0x22D04, symSize: 0x40 }
  - { offset: 0x13A174, size: 0x8, addend: 0x0, symName: __ZNSt3__16vectorINS_7__stateIcEENS_9allocatorIS2_EEE26__swap_out_circular_bufferERNS_14__split_bufferIS2_RS4_EE, symObjAddr: 0x222B4, symBinAddr: 0x22FDC, symSize: 0x124 }
  - { offset: 0x13A78B, size: 0x8, addend: 0x0, symName: __ZNKSt3__16vectorINS_7__stateIcEENS_9allocatorIS2_EEE20__throw_length_errorB8ne190102Ev, symObjAddr: 0x2244C, symBinAddr: 0x23174, symSize: 0x14 }
  - { offset: 0x13A7B5, size: 0x8, addend: 0x0, symName: __ZNSt3__16vectorINS_9sub_matchIPKcEENS_9allocatorIS4_EEE8__appendEmRKS4_, symObjAddr: 0x22460, symBinAddr: 0x23188, symSize: 0x18C }
  - { offset: 0x13A7C0, size: 0x8, addend: 0x0, symName: __ZNSt3__114__split_bufferINS_7__stateIcEERNS_9allocatorIS2_EEED1Ev, symObjAddr: 0x223D8, symBinAddr: 0x23100, symSize: 0x74 }
  - { offset: 0x13B0A7, size: 0x8, addend: 0x0, symName: __ZNKSt3__16vectorINS_4pairImPKcEENS_9allocatorIS4_EEE20__throw_length_errorB8ne190102Ev, symObjAddr: 0x22710, symBinAddr: 0x23438, symSize: 0x14 }
  - { offset: 0x13B0D1, size: 0x8, addend: 0x0, symName: __ZNSt3__17__stateIcEC2ERKS1_, symObjAddr: 0x22724, symBinAddr: 0x2344C, symSize: 0x174 }
  - { offset: 0x13B50A, size: 0x8, addend: 0x0, symName: __ZNSt3__111basic_regexIcNS_12regex_traitsIcEEE11__push_charEc, symObjAddr: 0x232C8, symBinAddr: 0x23FF0, symSize: 0x13C }
  - { offset: 0x13B8B7, size: 0x8, addend: 0x0, symName: __ZNSt3__111basic_regexIcNS_12regex_traitsIcEEE15__push_back_refEi, symObjAddr: 0x23450, symBinAddr: 0x24178, symSize: 0xCC }
  - { offset: 0x13BA8E, size: 0x8, addend: 0x0, symName: __ZNSt3__111basic_regexIcNS_12regex_traitsIcEEE30__parse_character_class_escapeINS_11__wrap_iterIPKcEEEET_S9_S9_, symObjAddr: 0x22CE0, symBinAddr: 0x23A08, symSize: 0x25C }
  - { offset: 0x13BF58, size: 0x8, addend: 0x0, symName: __ZNSt3__111basic_regexIcNS_12regex_traitsIcEEE24__parse_character_escapeINS_11__wrap_iterIPKcEEEET_S9_S9_PNS_12basic_stringIcNS_11char_traitsIcEENS_9allocatorIcEEEE, symObjAddr: 0x22F3C, symBinAddr: 0x23C64, symSize: 0x38C }
  - { offset: 0x13C359, size: 0x8, addend: 0x0, symName: __ZNSt3__111basic_regexIcNS_12regex_traitsIcEEE11__push_charEc, symObjAddr: 0x232C8, symBinAddr: 0x23FF0, symSize: 0x13C }
  - { offset: 0x13C445, size: 0x8, addend: 0x0, symName: __ZNSt3__120__bracket_expressionIcNS_12regex_traitsIcEEEC2B8ne190102ERKS2_PNS_6__nodeIcEEbbb, symObjAddr: 0x23DF8, symBinAddr: 0x24B20, symSize: 0x19C }
  - { offset: 0x13CB90, size: 0x8, addend: 0x0, symName: __ZNSt3__120__bracket_expressionIcNS_12regex_traitsIcEEE10__add_charB8ne190102Ec, symObjAddr: 0x23C68, symBinAddr: 0x24990, symSize: 0x190 }
  - { offset: 0x13CE44, size: 0x8, addend: 0x0, symName: __ZNSt3__120__bracket_expressionIcNS_12regex_traitsIcEEEC2B8ne190102ERKS2_PNS_6__nodeIcEEbbb, symObjAddr: 0x23DF8, symBinAddr: 0x24B20, symSize: 0x19C }
  - { offset: 0x13CE57, size: 0x8, addend: 0x0, symName: __ZNSt3__111basic_regexIcNS_12regex_traitsIcEEE23__parse_expression_termINS_11__wrap_iterIPKcEEEET_S9_S9_PNS_20__bracket_expressionIcS2_EE, symObjAddr: 0x24FCC, symBinAddr: 0x25CF4, symSize: 0x454 }
  - { offset: 0x13DD90, size: 0x8, addend: 0x0, symName: __ZNSt3__123__match_any_but_newlineIcED1Ev, symObjAddr: 0x22C04, symBinAddr: 0x2392C, symSize: 0x48 }
  - { offset: 0x13DDB6, size: 0x8, addend: 0x0, symName: __ZNSt3__123__match_any_but_newlineIcED1Ev, symObjAddr: 0x22C04, symBinAddr: 0x2392C, symSize: 0x48 }
  - { offset: 0x13DDD6, size: 0x8, addend: 0x0, symName: __ZNSt3__123__match_any_but_newlineIcED1Ev, symObjAddr: 0x22C04, symBinAddr: 0x2392C, symSize: 0x48 }
  - { offset: 0x13DE1E, size: 0x8, addend: 0x0, symName: __ZNSt3__123__match_any_but_newlineIcED0Ev, symObjAddr: 0x22C4C, symBinAddr: 0x23974, symSize: 0x48 }
  - { offset: 0x13DE4F, size: 0x8, addend: 0x0, symName: __ZNSt3__123__match_any_but_newlineIcED0Ev, symObjAddr: 0x22C4C, symBinAddr: 0x23974, symSize: 0x48 }
  - { offset: 0x13DE6F, size: 0x8, addend: 0x0, symName: __ZNSt3__123__match_any_but_newlineIcED0Ev, symObjAddr: 0x22C4C, symBinAddr: 0x23974, symSize: 0x48 }
  - { offset: 0x13DE8F, size: 0x8, addend: 0x0, symName: __ZNSt3__123__match_any_but_newlineIcED0Ev, symObjAddr: 0x22C4C, symBinAddr: 0x23974, symSize: 0x48 }
  - { offset: 0x13E2DE, size: 0x8, addend: 0x0, symName: __ZNSt3__118__match_char_icaseIcNS_12regex_traitsIcEEED1Ev, symObjAddr: 0x2351C, symBinAddr: 0x24244, symSize: 0x58 }
  - { offset: 0x13E395, size: 0x8, addend: 0x0, symName: __ZNSt3__118__match_char_icaseIcNS_12regex_traitsIcEEED0Ev, symObjAddr: 0x23574, symBinAddr: 0x2429C, symSize: 0x58 }
  - { offset: 0x13E459, size: 0x8, addend: 0x0, symName: __ZNKSt3__118__match_char_icaseIcNS_12regex_traitsIcEEE6__execERNS_7__stateIcEE, symObjAddr: 0x235CC, symBinAddr: 0x242F4, symSize: 0x84 }
  - { offset: 0x13E519, size: 0x8, addend: 0x0, symName: __ZNSt3__120__match_char_collateIcNS_12regex_traitsIcEEED1Ev, symObjAddr: 0x23650, symBinAddr: 0x24378, symSize: 0x58 }
  - { offset: 0x13E5D0, size: 0x8, addend: 0x0, symName: __ZNSt3__120__match_char_collateIcNS_12regex_traitsIcEEED0Ev, symObjAddr: 0x236A8, symBinAddr: 0x243D0, symSize: 0x58 }
  - { offset: 0x13E694, size: 0x8, addend: 0x0, symName: __ZNKSt3__120__match_char_collateIcNS_12regex_traitsIcEEE6__execERNS_7__stateIcEE, symObjAddr: 0x23700, symBinAddr: 0x24428, symSize: 0x48 }
  - { offset: 0x13E704, size: 0x8, addend: 0x0, symName: __ZNSt3__112__match_charIcED1Ev, symObjAddr: 0x23748, symBinAddr: 0x24470, symSize: 0x48 }
  - { offset: 0x13E72A, size: 0x8, addend: 0x0, symName: __ZNSt3__112__match_charIcED1Ev, symObjAddr: 0x23748, symBinAddr: 0x24470, symSize: 0x48 }
  - { offset: 0x13E74A, size: 0x8, addend: 0x0, symName: __ZNSt3__112__match_charIcED1Ev, symObjAddr: 0x23748, symBinAddr: 0x24470, symSize: 0x48 }
  - { offset: 0x13E792, size: 0x8, addend: 0x0, symName: __ZNSt3__112__match_charIcED0Ev, symObjAddr: 0x23790, symBinAddr: 0x244B8, symSize: 0x48 }
  - { offset: 0x13E7C3, size: 0x8, addend: 0x0, symName: __ZNSt3__112__match_charIcED0Ev, symObjAddr: 0x23790, symBinAddr: 0x244B8, symSize: 0x48 }
  - { offset: 0x13E7E3, size: 0x8, addend: 0x0, symName: __ZNSt3__112__match_charIcED0Ev, symObjAddr: 0x23790, symBinAddr: 0x244B8, symSize: 0x48 }
  - { offset: 0x13E803, size: 0x8, addend: 0x0, symName: __ZNSt3__112__match_charIcED0Ev, symObjAddr: 0x23790, symBinAddr: 0x244B8, symSize: 0x48 }
  - { offset: 0x13E82F, size: 0x8, addend: 0x0, symName: __ZNKSt3__112__match_charIcE6__execERNS_7__stateIcEE, symObjAddr: 0x237D8, symBinAddr: 0x24500, symSize: 0x48 }
  - { offset: 0x13E89F, size: 0x8, addend: 0x0, symName: __ZNSt3__116__back_ref_icaseIcNS_12regex_traitsIcEEED1Ev, symObjAddr: 0x23820, symBinAddr: 0x24548, symSize: 0x58 }
  - { offset: 0x13E956, size: 0x8, addend: 0x0, symName: __ZNSt3__116__back_ref_icaseIcNS_12regex_traitsIcEEED0Ev, symObjAddr: 0x23878, symBinAddr: 0x245A0, symSize: 0x58 }
  - { offset: 0x13EA1A, size: 0x8, addend: 0x0, symName: __ZNKSt3__116__back_ref_icaseIcNS_12regex_traitsIcEEE6__execERNS_7__stateIcEE, symObjAddr: 0x238D0, symBinAddr: 0x245F8, symSize: 0xFC }
  - { offset: 0x13EB92, size: 0x8, addend: 0x0, symName: __ZNSt3__118__back_ref_collateIcNS_12regex_traitsIcEEED1Ev, symObjAddr: 0x239CC, symBinAddr: 0x246F4, symSize: 0x58 }
  - { offset: 0x13EC49, size: 0x8, addend: 0x0, symName: __ZNSt3__118__back_ref_collateIcNS_12regex_traitsIcEEED0Ev, symObjAddr: 0x23A24, symBinAddr: 0x2474C, symSize: 0x58 }
  - { offset: 0x13ED0D, size: 0x8, addend: 0x0, symName: __ZNKSt3__118__back_ref_collateIcNS_12regex_traitsIcEEE6__execERNS_7__stateIcEE, symObjAddr: 0x23A7C, symBinAddr: 0x247A4, symSize: 0x8C }
  - { offset: 0x13EDE7, size: 0x8, addend: 0x0, symName: __ZNSt3__110__back_refIcED1Ev, symObjAddr: 0x23B08, symBinAddr: 0x24830, symSize: 0x48 }
  - { offset: 0x13EE0D, size: 0x8, addend: 0x0, symName: __ZNSt3__110__back_refIcED1Ev, symObjAddr: 0x23B08, symBinAddr: 0x24830, symSize: 0x48 }
  - { offset: 0x13EE2D, size: 0x8, addend: 0x0, symName: __ZNSt3__110__back_refIcED1Ev, symObjAddr: 0x23B08, symBinAddr: 0x24830, symSize: 0x48 }
  - { offset: 0x13EE75, size: 0x8, addend: 0x0, symName: __ZNSt3__110__back_refIcED0Ev, symObjAddr: 0x23B50, symBinAddr: 0x24878, symSize: 0x48 }
  - { offset: 0x13EEA6, size: 0x8, addend: 0x0, symName: __ZNSt3__110__back_refIcED0Ev, symObjAddr: 0x23B50, symBinAddr: 0x24878, symSize: 0x48 }
  - { offset: 0x13EEC6, size: 0x8, addend: 0x0, symName: __ZNSt3__110__back_refIcED0Ev, symObjAddr: 0x23B50, symBinAddr: 0x24878, symSize: 0x48 }
  - { offset: 0x13EEE6, size: 0x8, addend: 0x0, symName: __ZNSt3__110__back_refIcED0Ev, symObjAddr: 0x23B50, symBinAddr: 0x24878, symSize: 0x48 }
  - { offset: 0x13EF18, size: 0x8, addend: 0x0, symName: __ZNKSt3__110__back_refIcE6__execERNS_7__stateIcEE, symObjAddr: 0x23B98, symBinAddr: 0x248C0, symSize: 0xD0 }
  - { offset: 0x13F0AB, size: 0x8, addend: 0x0, symName: __ZNSt3__120__bracket_expressionIcNS_12regex_traitsIcEEE10__add_charB8ne190102Ec, symObjAddr: 0x23C68, symBinAddr: 0x24990, symSize: 0x190 }
  - { offset: 0x13F301, size: 0x8, addend: 0x0, symName: __ZNSt3__16vectorINS_4pairINS_12basic_stringIcNS_11char_traitsIcEENS_9allocatorIcEEEES7_EENS5_IS8_EEED1B8ne190102Ev, symObjAddr: 0x23F94, symBinAddr: 0x24CBC, symSize: 0x94 }
  - { offset: 0x13F85F, size: 0x8, addend: 0x0, symName: __ZNSt3__120__bracket_expressionIcNS_12regex_traitsIcEEED1Ev, symObjAddr: 0x24028, symBinAddr: 0x24D50, symSize: 0x4 }
  - { offset: 0x13F883, size: 0x8, addend: 0x0, symName: __ZNSt3__120__bracket_expressionIcNS_12regex_traitsIcEEED1Ev, symObjAddr: 0x24028, symBinAddr: 0x24D50, symSize: 0x4 }
  - { offset: 0x13F897, size: 0x8, addend: 0x0, symName: __ZNSt3__120__bracket_expressionIcNS_12regex_traitsIcEEED2Ev, symObjAddr: 0x2491C, symBinAddr: 0x25644, symSize: 0x148 }
  - { offset: 0x140402, size: 0x8, addend: 0x0, symName: __ZNSt3__120__bracket_expressionIcNS_12regex_traitsIcEEED0Ev, symObjAddr: 0x2402C, symBinAddr: 0x24D54, symSize: 0x14 }
  - { offset: 0x140885, size: 0x8, addend: 0x0, symName: __ZNKSt3__120__bracket_expressionIcNS_12regex_traitsIcEEE6__execERNS_7__stateIcEE, symObjAddr: 0x24040, symBinAddr: 0x24D68, symSize: 0x884 }
  - { offset: 0x14233D, size: 0x8, addend: 0x0, symName: __ZNKSt3__112regex_traitsIcE20__lookup_collatenameIPcEENS_12basic_stringIcNS_11char_traitsIcEENS_9allocatorIcEEEET_SA_c, symObjAddr: 0x24B9C, symBinAddr: 0x258C4, symSize: 0x240 }
  - { offset: 0x142FE4, size: 0x8, addend: 0x0, symName: __ZNKSt3__112regex_traitsIcE9transformIPcEENS_12basic_stringIcNS_11char_traitsIcEENS_9allocatorIcEEEET_SA_, symObjAddr: 0x24A64, symBinAddr: 0x2578C, symSize: 0x138 }
  - { offset: 0x143654, size: 0x8, addend: 0x0, symName: __ZNKSt3__112regex_traitsIcE19__transform_primaryIPcEENS_12basic_stringIcNS_11char_traitsIcEENS_9allocatorIcEEEET_SA_c, symObjAddr: 0x24DDC, symBinAddr: 0x25B04, symSize: 0x1A4 }
  - { offset: 0x143E5C, size: 0x8, addend: 0x0, symName: __ZNSt3__14pairINS_12basic_stringIcNS_11char_traitsIcEENS_9allocatorIcEEEES6_ED1Ev, symObjAddr: 0x248C4, symBinAddr: 0x255EC, symSize: 0x58 }
  - { offset: 0x144150, size: 0x8, addend: 0x0, symName: __ZNSt3__111basic_regexIcNS_12regex_traitsIcEEE25__parse_equivalence_classINS_11__wrap_iterIPKcEEEET_S9_S9_PNS_20__bracket_expressionIcS2_EE, symObjAddr: 0x25420, symBinAddr: 0x26148, symSize: 0x28C }
  - { offset: 0x144CA2, size: 0x8, addend: 0x0, symName: __ZNSt3__111basic_regexIcNS_12regex_traitsIcEEE18__parse_awk_escapeINS_11__wrap_iterIPKcEEEET_S9_S9_PNS_12basic_stringIcNS_11char_traitsIcEENS_9allocatorIcEEEE, symObjAddr: 0x259C0, symBinAddr: 0x266E8, symSize: 0x2F8 }
  - { offset: 0x144E95, size: 0x8, addend: 0x0, symName: __ZNSt3__120__bracket_expressionIcNS_12regex_traitsIcEEE11__add_rangeB8ne190102ENS_12basic_stringIcNS_11char_traitsIcEENS_9allocatorIcEEEES9_, symObjAddr: 0x25CB8, symBinAddr: 0x269E0, symSize: 0x608 }
  - { offset: 0x144EA9, size: 0x8, addend: 0x0, symName: __ZNSt3__111basic_regexIcNS_12regex_traitsIcEEE24__parse_collating_symbolINS_11__wrap_iterIPKcEEEET_S9_S9_RNS_12basic_stringIcNS_11char_traitsIcEENS_9allocatorIcEEEE, symObjAddr: 0x25758, symBinAddr: 0x26480, symSize: 0xE0 }
  - { offset: 0x145249, size: 0x8, addend: 0x0, symName: __ZNSt3__111basic_regexIcNS_12regex_traitsIcEEE20__parse_class_escapeINS_11__wrap_iterIPKcEEEET_S9_S9_RNS_12basic_stringIcNS_11char_traitsIcEENS_9allocatorIcEEEEPNS_20__bracket_expressionIcS2_EE, symObjAddr: 0x25838, symBinAddr: 0x26560, symSize: 0x188 }
  - { offset: 0x14525D, size: 0x8, addend: 0x0, symName: __ZNSt3__111basic_regexIcNS_12regex_traitsIcEEE23__parse_character_classINS_11__wrap_iterIPKcEEEET_S9_S9_PNS_20__bracket_expressionIcS2_EE, symObjAddr: 0x256AC, symBinAddr: 0x263D4, symSize: 0xAC }
  - { offset: 0x1454D5, size: 0x8, addend: 0x0, symName: __ZNSt3__111basic_regexIcNS_12regex_traitsIcEEE24__parse_collating_symbolINS_11__wrap_iterIPKcEEEET_S9_S9_RNS_12basic_stringIcNS_11char_traitsIcEENS_9allocatorIcEEEE, symObjAddr: 0x25758, symBinAddr: 0x26480, symSize: 0xE0 }
  - { offset: 0x1454F5, size: 0x8, addend: 0x0, symName: __ZNSt3__120__bracket_expressionIcNS_12regex_traitsIcEEE13__add_digraphB8ne190102Ecc, symObjAddr: 0x262C0, symBinAddr: 0x26FE8, symSize: 0x224 }
  - { offset: 0x145EBB, size: 0x8, addend: 0x0, symName: __ZNSt3__119__throw_regex_errorB8ne190102ILNS_15regex_constants10error_typeE1EEEvv, symObjAddr: 0x264E4, symBinAddr: 0x2720C, symSize: 0x4C }
  - { offset: 0x145EC6, size: 0x8, addend: 0x0, symName: __ZNSt3__111basic_regexIcNS_12regex_traitsIcEEE20__parse_class_escapeINS_11__wrap_iterIPKcEEEET_S9_S9_RNS_12basic_stringIcNS_11char_traitsIcEENS_9allocatorIcEEEEPNS_20__bracket_expressionIcS2_EE, symObjAddr: 0x25838, symBinAddr: 0x26560, symSize: 0x188 }
  - { offset: 0x1460B2, size: 0x8, addend: 0x0, symName: __ZNSt3__111basic_regexIcNS_12regex_traitsIcEEE18__parse_awk_escapeINS_11__wrap_iterIPKcEEEET_S9_S9_PNS_12basic_stringIcNS_11char_traitsIcEENS_9allocatorIcEEEE, symObjAddr: 0x259C0, symBinAddr: 0x266E8, symSize: 0x2F8 }
  - { offset: 0x1460C6, size: 0x8, addend: 0x0, symName: __ZNSt3__120__bracket_expressionIcNS_12regex_traitsIcEEE11__add_rangeB8ne190102ENS_12basic_stringIcNS_11char_traitsIcEENS_9allocatorIcEEEES9_, symObjAddr: 0x25CB8, symBinAddr: 0x269E0, symSize: 0x608 }
  - { offset: 0x147E4A, size: 0x8, addend: 0x0, symName: __ZNKSt3__112regex_traitsIcE20__lookup_collatenameINS_11__wrap_iterIPKcEEEENS_12basic_stringIcNS_11char_traitsIcEENS_9allocatorIcEEEET_SD_c, symObjAddr: 0x26530, symBinAddr: 0x27258, symSize: 0x240 }
  - { offset: 0x148B06, size: 0x8, addend: 0x0, symName: __ZNKSt3__112regex_traitsIcE19__transform_primaryINS_11__wrap_iterIPcEEEENS_12basic_stringIcNS_11char_traitsIcEENS_9allocatorIcEEEET_SC_c, symObjAddr: 0x26770, symBinAddr: 0x27498, symSize: 0x1A4 }
  - { offset: 0x149323, size: 0x8, addend: 0x0, symName: __ZNSt3__16vectorINS_12basic_stringIcNS_11char_traitsIcEENS_9allocatorIcEEEENS4_IS6_EEE21__push_back_slow_pathIRKS6_EEPS6_OT_, symObjAddr: 0x26914, symBinAddr: 0x2763C, symSize: 0x158 }
  - { offset: 0x149856, size: 0x8, addend: 0x0, symName: __ZNKSt3__112regex_traitsIcE18__lookup_classnameINS_11__wrap_iterIPKcEEEEjT_S7_bc, symObjAddr: 0x26B30, symBinAddr: 0x27858, symSize: 0x158 }
  - { offset: 0x149FE0, size: 0x8, addend: 0x0, symName: __ZNSt3__120__bracket_expressionIcNS_12regex_traitsIcEEE14__add_neg_charB8ne190102Ec, symObjAddr: 0x26C88, symBinAddr: 0x279B0, symSize: 0x190 }
  - { offset: 0x14A294, size: 0x8, addend: 0x0, symName: __ZNKSt3__112regex_traitsIcE9transformINS_11__wrap_iterIPcEEEENS_12basic_stringIcNS_11char_traitsIcEENS_9allocatorIcEEEET_SC_, symObjAddr: 0x26E18, symBinAddr: 0x27B40, symSize: 0x138 }
  - { offset: 0x14A673, size: 0x8, addend: 0x0, symName: __ZNKSt3__112regex_traitsIcE9transformINS_11__wrap_iterIPcEEEENS_12basic_stringIcNS_11char_traitsIcEENS_9allocatorIcEEEET_SC_, symObjAddr: 0x26E18, symBinAddr: 0x27B40, symSize: 0x138 }
  - { offset: 0x14AD1A, size: 0x8, addend: 0x0, symName: __ZNKSt3__16vectorINS_4pairINS_12basic_stringIcNS_11char_traitsIcEENS_9allocatorIcEEEES7_EENS5_IS8_EEE20__throw_length_errorB8ne190102Ev, symObjAddr: 0x26F9C, symBinAddr: 0x27CC4, symSize: 0x14 }
  - { offset: 0x14AD44, size: 0x8, addend: 0x0, symName: __ZNKSt3__16vectorINS_4pairIccEENS_9allocatorIS2_EEE20__throw_length_errorB8ne190102Ev, symObjAddr: 0x26FB0, symBinAddr: 0x27CD8, symSize: 0x14 }
  - { offset: 0x14B022, size: 0x8, addend: 0x0, symName: __ZNKSt3__16vectorINS_4pairIccEENS_9allocatorIS2_EEE20__throw_length_errorB8ne190102Ev, symObjAddr: 0x26FB0, symBinAddr: 0x27CD8, symSize: 0x14 }
  - { offset: 0x14B04C, size: 0x8, addend: 0x0, symName: __ZNSt3__128__begin_marked_subexpressionIcED1Ev, symObjAddr: 0x26FC4, symBinAddr: 0x27CEC, symSize: 0x48 }
  - { offset: 0x14B298, size: 0x8, addend: 0x0, symName: __ZNSt3__114__split_bufferINS_12basic_stringIcNS_11char_traitsIcEENS_9allocatorIcEEEERNS4_IS6_EEED1Ev, symObjAddr: 0x26A6C, symBinAddr: 0x27794, symSize: 0x64 }
  - { offset: 0x14B5B0, size: 0x8, addend: 0x0, symName: __ZNSt3__128__begin_marked_subexpressionIcED1Ev, symObjAddr: 0x26FC4, symBinAddr: 0x27CEC, symSize: 0x48 }
  - { offset: 0x14B5D6, size: 0x8, addend: 0x0, symName: __ZNSt3__128__begin_marked_subexpressionIcED1Ev, symObjAddr: 0x26FC4, symBinAddr: 0x27CEC, symSize: 0x48 }
  - { offset: 0x14B5F6, size: 0x8, addend: 0x0, symName: __ZNSt3__128__begin_marked_subexpressionIcED1Ev, symObjAddr: 0x26FC4, symBinAddr: 0x27CEC, symSize: 0x48 }
  - { offset: 0x14B63E, size: 0x8, addend: 0x0, symName: __ZNSt3__128__begin_marked_subexpressionIcED0Ev, symObjAddr: 0x2700C, symBinAddr: 0x27D34, symSize: 0x48 }
  - { offset: 0x14B66F, size: 0x8, addend: 0x0, symName: __ZNSt3__128__begin_marked_subexpressionIcED0Ev, symObjAddr: 0x2700C, symBinAddr: 0x27D34, symSize: 0x48 }
  - { offset: 0x14B68F, size: 0x8, addend: 0x0, symName: __ZNSt3__128__begin_marked_subexpressionIcED0Ev, symObjAddr: 0x2700C, symBinAddr: 0x27D34, symSize: 0x48 }
  - { offset: 0x14B6AF, size: 0x8, addend: 0x0, symName: __ZNSt3__128__begin_marked_subexpressionIcED0Ev, symObjAddr: 0x2700C, symBinAddr: 0x27D34, symSize: 0x48 }
  - { offset: 0x14B6DB, size: 0x8, addend: 0x0, symName: __ZNKSt3__128__begin_marked_subexpressionIcE6__execERNS_7__stateIcEE, symObjAddr: 0x27054, symBinAddr: 0x27D7C, symSize: 0x30 }
  - { offset: 0x14B76C, size: 0x8, addend: 0x0, symName: __ZNSt3__126__end_marked_subexpressionIcED1Ev, symObjAddr: 0x27084, symBinAddr: 0x27DAC, symSize: 0x48 }
  - { offset: 0x14B792, size: 0x8, addend: 0x0, symName: __ZNSt3__126__end_marked_subexpressionIcED1Ev, symObjAddr: 0x27084, symBinAddr: 0x27DAC, symSize: 0x48 }
  - { offset: 0x14B7B2, size: 0x8, addend: 0x0, symName: __ZNSt3__126__end_marked_subexpressionIcED1Ev, symObjAddr: 0x27084, symBinAddr: 0x27DAC, symSize: 0x48 }
  - { offset: 0x14B7FA, size: 0x8, addend: 0x0, symName: __ZNSt3__126__end_marked_subexpressionIcED0Ev, symObjAddr: 0x270CC, symBinAddr: 0x27DF4, symSize: 0x48 }
  - { offset: 0x14B82B, size: 0x8, addend: 0x0, symName: __ZNSt3__126__end_marked_subexpressionIcED0Ev, symObjAddr: 0x270CC, symBinAddr: 0x27DF4, symSize: 0x48 }
  - { offset: 0x14B84B, size: 0x8, addend: 0x0, symName: __ZNSt3__126__end_marked_subexpressionIcED0Ev, symObjAddr: 0x270CC, symBinAddr: 0x27DF4, symSize: 0x48 }
  - { offset: 0x14B86B, size: 0x8, addend: 0x0, symName: __ZNSt3__126__end_marked_subexpressionIcED0Ev, symObjAddr: 0x270CC, symBinAddr: 0x27DF4, symSize: 0x48 }
  - { offset: 0x14B897, size: 0x8, addend: 0x0, symName: __ZNKSt3__126__end_marked_subexpressionIcE6__execERNS_7__stateIcEE, symObjAddr: 0x27114, symBinAddr: 0x27E3C, symSize: 0x38 }
  - { offset: 0x14BBC2, size: 0x8, addend: 0x0, symName: __ZNSt3__16__loopIcED0Ev, symObjAddr: 0x27384, symBinAddr: 0x280AC, symSize: 0x68 }
  - { offset: 0x14BCBB, size: 0x8, addend: 0x0, symName: __ZNSt3__16__loopIcED1Ev, symObjAddr: 0x2731C, symBinAddr: 0x28044, symSize: 0x68 }
  - { offset: 0x14BDE6, size: 0x8, addend: 0x0, symName: __ZNKSt3__16__loopIcE6__execERNS_7__stateIcEE, symObjAddr: 0x273EC, symBinAddr: 0x28114, symSize: 0x1F8 }
  - { offset: 0x14BF2E, size: 0x8, addend: 0x0, symName: __ZNKSt3__16__loopIcE12__exec_splitEbRNS_7__stateIcEE, symObjAddr: 0x275E4, symBinAddr: 0x2830C, symSize: 0xD8 }
  - { offset: 0x14C00A, size: 0x8, addend: 0x0, symName: __ZNSt3__117__owns_two_statesIcED1Ev, symObjAddr: 0x276BC, symBinAddr: 0x283E4, symSize: 0x68 }
  - { offset: 0x14C09D, size: 0x8, addend: 0x0, symName: __ZNSt3__117__owns_two_statesIcED0Ev, symObjAddr: 0x27724, symBinAddr: 0x2844C, symSize: 0x68 }
  - { offset: 0x14C13D, size: 0x8, addend: 0x0, symName: __ZNSt3__117__repeat_one_loopIcED1Ev, symObjAddr: 0x2778C, symBinAddr: 0x284B4, symSize: 0x4 }
  - { offset: 0x14C169, size: 0x8, addend: 0x0, symName: __ZNSt3__117__repeat_one_loopIcED0Ev, symObjAddr: 0x27790, symBinAddr: 0x284B8, symSize: 0x4 }
  - { offset: 0x14C195, size: 0x8, addend: 0x0, symName: __ZNKSt3__117__repeat_one_loopIcE6__execERNS_7__stateIcEE, symObjAddr: 0x27794, symBinAddr: 0x284BC, symSize: 0x14 }
  - { offset: 0x14C205, size: 0x8, addend: 0x0, symName: __ZNSt3__111__alternateIcED1Ev, symObjAddr: 0x277A8, symBinAddr: 0x284D0, symSize: 0x68 }
  - { offset: 0x14C2BA, size: 0x8, addend: 0x0, symName: __ZNSt3__111__alternateIcED0Ev, symObjAddr: 0x27810, symBinAddr: 0x28538, symSize: 0x68 }
  - { offset: 0x14C37C, size: 0x8, addend: 0x0, symName: __ZNKSt3__111__alternateIcE6__execERNS_7__stateIcEE, symObjAddr: 0x27878, symBinAddr: 0x285A0, symSize: 0xC }
  - { offset: 0x14C3B0, size: 0x8, addend: 0x0, symName: __ZNKSt3__111__alternateIcE12__exec_splitEbRNS_7__stateIcEE, symObjAddr: 0x27884, symBinAddr: 0x285AC, symSize: 0x24 }
  - { offset: 0x14C3F8, size: 0x8, addend: 0x0, symName: __ZNSt3__121__empty_non_own_stateIcED1Ev, symObjAddr: 0x278A8, symBinAddr: 0x285D0, symSize: 0x4 }
  - { offset: 0x14C424, size: 0x8, addend: 0x0, symName: __ZNSt3__121__empty_non_own_stateIcED0Ev, symObjAddr: 0x278AC, symBinAddr: 0x285D4, symSize: 0x4 }
  - { offset: 0x14C450, size: 0x8, addend: 0x0, symName: __ZNKSt3__121__empty_non_own_stateIcE6__execERNS_7__stateIcEE, symObjAddr: 0x278B0, symBinAddr: 0x285D8, symSize: 0x14 }
  - { offset: 0x14C5A7, size: 0x8, addend: 0x0, symName: __ZNSt3__111basic_regexIcNS_12regex_traitsIcEEE32__parse_one_char_or_coll_elem_REINS_11__wrap_iterIPKcEEEET_S9_S9_, symObjAddr: 0x27DA0, symBinAddr: 0x28AC8, symSize: 0x194 }
  - { offset: 0x14C95B, size: 0x8, addend: 0x0, symName: __ZNSt3__111__match_anyIcED1Ev, symObjAddr: 0x27F34, symBinAddr: 0x28C5C, symSize: 0x48 }
  - { offset: 0x14C981, size: 0x8, addend: 0x0, symName: __ZNSt3__111__match_anyIcED1Ev, symObjAddr: 0x27F34, symBinAddr: 0x28C5C, symSize: 0x48 }
  - { offset: 0x14C9A1, size: 0x8, addend: 0x0, symName: __ZNSt3__111__match_anyIcED1Ev, symObjAddr: 0x27F34, symBinAddr: 0x28C5C, symSize: 0x48 }
  - { offset: 0x14C9E9, size: 0x8, addend: 0x0, symName: __ZNSt3__111__match_anyIcED0Ev, symObjAddr: 0x27F7C, symBinAddr: 0x28CA4, symSize: 0x48 }
  - { offset: 0x14CA1A, size: 0x8, addend: 0x0, symName: __ZNSt3__111__match_anyIcED0Ev, symObjAddr: 0x27F7C, symBinAddr: 0x28CA4, symSize: 0x48 }
  - { offset: 0x14CA3A, size: 0x8, addend: 0x0, symName: __ZNSt3__111__match_anyIcED0Ev, symObjAddr: 0x27F7C, symBinAddr: 0x28CA4, symSize: 0x48 }
  - { offset: 0x14CA5A, size: 0x8, addend: 0x0, symName: __ZNSt3__111__match_anyIcED0Ev, symObjAddr: 0x27F7C, symBinAddr: 0x28CA4, symSize: 0x48 }
  - { offset: 0x14CA86, size: 0x8, addend: 0x0, symName: __ZNKSt3__111__match_anyIcE6__execERNS_7__stateIcEE, symObjAddr: 0x27FC4, symBinAddr: 0x28CEC, symSize: 0x40 }
  - { offset: 0x14CAD9, size: 0x8, addend: 0x0, symName: __ZNSt3__111basic_regexIcNS_12regex_traitsIcEEE15__test_back_refEc, symObjAddr: 0x28004, symBinAddr: 0x28D2C, symSize: 0x60 }
  - { offset: 0x14CBE1, size: 0x8, addend: 0x0, symName: __ZNSt3__111basic_regexIcNS_12regex_traitsIcEEE22__parse_ERE_expressionINS_11__wrap_iterIPKcEEEET_S9_S9_, symObjAddr: 0x28064, symBinAddr: 0x28D8C, symSize: 0x208 }
  - { offset: 0x14CBEC, size: 0x8, addend: 0x0, symName: __ZNSt3__111basic_regexIcNS_12regex_traitsIcEEE33__parse_one_char_or_coll_elem_EREINS_11__wrap_iterIPKcEEEET_S9_S9_, symObjAddr: 0x2826C, symBinAddr: 0x28F94, symSize: 0x160 }
  - { offset: 0x14CE2F, size: 0x8, addend: 0x0, symName: __ZNSt3__111basic_regexIcNS_12regex_traitsIcEEE23__parse_QUOTED_CHAR_EREINS_11__wrap_iterIPKcEEEET_S9_S9_, symObjAddr: 0x283CC, symBinAddr: 0x290F4, symSize: 0xC8 }
  - { offset: 0x14CFE5, size: 0x8, addend: 0x0, symName: __ZNKSt3__111basic_regexIcNS_12regex_traitsIcEEE27__match_at_start_posix_subsINS_9allocatorINS_9sub_matchIPKcEEEEEEbS8_S8_RNS_13match_resultsIS8_T_EENS_15regex_constants15match_flag_typeEb, symObjAddr: 0x29224, symBinAddr: 0x29F4C, symSize: 0x5AC }
  - { offset: 0x14F045, size: 0x8, addend: 0x0, symName: __ZNKSt3__111basic_regexIcNS_12regex_traitsIcEEE29__match_at_start_posix_nosubsINS_9allocatorINS_9sub_matchIPKcEEEEEEbS8_S8_RNS_13match_resultsIS8_T_EENS_15regex_constants15match_flag_typeEb, symObjAddr: 0x28948, symBinAddr: 0x29670, symSize: 0x8DC }
  - { offset: 0x15129E, size: 0x8, addend: 0x0, symName: __ZNSt3__16vectorINS_9sub_matchINS_11__wrap_iterIPKcEEEENS_9allocatorIS6_EEE8__appendEm, symObjAddr: 0x2AC14, symBinAddr: 0x2B93C, symSize: 0x17C }
  - { offset: 0x151790, size: 0x8, addend: 0x0, symName: __ZNKSt3__16vectorINS_9sub_matchINS_11__wrap_iterIPKcEEEENS_9allocatorIS6_EEE20__throw_length_errorB8ne190102Ev, symObjAddr: 0x2AD90, symBinAddr: 0x2BAB8, symSize: 0x14 }
  - { offset: 0x151C02, size: 0x8, addend: 0x0, symName: __ZNSt3__15dequeINS_7__stateIcEENS_9allocatorIS2_EEE19__add_back_capacityEv, symObjAddr: 0x299A0, symBinAddr: 0x2A6C8, symSize: 0x558 }
  - { offset: 0x152F98, size: 0x8, addend: 0x0, symName: __ZNSt3__15dequeINS_7__stateIcEENS_9allocatorIS2_EEE20__add_front_capacityEv, symObjAddr: 0x2A20C, symBinAddr: 0x2AF34, symSize: 0x374 }
  - { offset: 0x153E59, size: 0x8, addend: 0x0, symName: __ZNSt3__15dequeINS_7__stateIcEENS_9allocatorIS2_EEED1B8ne190102Ev, symObjAddr: 0x2992C, symBinAddr: 0x2A654, symSize: 0x74 }
  - { offset: 0x154234, size: 0x8, addend: 0x0, symName: __ZNSt3__16vectorINS_9sub_matchIPKcEENS_9allocatorIS4_EEE18__assign_with_sizeB8ne190102IPS4_S9_EEvT_T0_l, symObjAddr: 0x2A710, symBinAddr: 0x2B438, symSize: 0x204 }
  - { offset: 0x154A92, size: 0x8, addend: 0x0, symName: __ZNSt3__16vectorINS_4pairImPKcEENS_9allocatorIS4_EEE18__assign_with_sizeB8ne190102IPS4_S9_EEvT_T0_l, symObjAddr: 0x2A914, symBinAddr: 0x2B63C, symSize: 0x300 }
  - { offset: 0x154AB7, size: 0x8, addend: 0x0, symName: __ZNSt3__16vectorINS_4pairImPKcEENS_9allocatorIS4_EEE18__assign_with_sizeB8ne190102IPS4_S9_EEvT_T0_l, symObjAddr: 0x2A914, symBinAddr: 0x2B63C, symSize: 0x300 }
  - { offset: 0x1552DE, size: 0x8, addend: 0x0, symName: __ZNSt3__16vectorINS_9sub_matchINS_11__wrap_iterIPKcEEEENS_9allocatorIS6_EEE8__appendEm, symObjAddr: 0x2AC14, symBinAddr: 0x2B93C, symSize: 0x17C }
  - { offset: 0x155319, size: 0x8, addend: 0x0, symName: __ZNSt3__15dequeINS_7__stateIcEENS_9allocatorIS2_EEE5clearEv, symObjAddr: 0x297D0, symBinAddr: 0x2A4F8, symSize: 0x15C }
  - { offset: 0x155E57, size: 0x8, addend: 0x0, symName: __ZNSt3__114__split_bufferIPNS_7__stateIcEENS_9allocatorIS3_EEE9push_backEOS3_, symObjAddr: 0x29EF8, symBinAddr: 0x2AC20, symSize: 0x184 }
  - { offset: 0x156326, size: 0x8, addend: 0x0, symName: __ZNSt3__114__split_bufferIPNS_7__stateIcEENS_9allocatorIS3_EEE10push_frontEOS3_, symObjAddr: 0x2A07C, symBinAddr: 0x2ADA4, symSize: 0x190 }
  - { offset: 0x156331, size: 0x8, addend: 0x0, symName: __ZNSt3__114__split_bufferIPNS_7__stateIcEENS_9allocatorIS3_EEE10push_frontEOS3_, symObjAddr: 0x2A07C, symBinAddr: 0x2ADA4, symSize: 0x190 }
  - { offset: 0x156838, size: 0x8, addend: 0x0, symName: __ZNSt3__15dequeINS_7__stateIcEENS_9allocatorIS2_EEE20__add_front_capacityEv, symObjAddr: 0x2A20C, symBinAddr: 0x2AF34, symSize: 0x374 }
  - { offset: 0x1568A7, size: 0x8, addend: 0x0, symName: __ZNSt3__114__split_bufferIPNS_7__stateIcEENS_9allocatorIS3_EEE10push_frontERKS3_, symObjAddr: 0x2A580, symBinAddr: 0x2B2A8, symSize: 0x190 }
  - { offset: 0x156DAE, size: 0x8, addend: 0x0, symName: __ZNSt3__16vectorINS_9sub_matchIPKcEENS_9allocatorIS4_EEE18__assign_with_sizeB8ne190102IPS4_S9_EEvT_T0_l, symObjAddr: 0x2A710, symBinAddr: 0x2B438, symSize: 0x204 }
  - { offset: 0x1571CA, size: 0x8, addend: 0x0, symName: __ZNKSt3__16vectorINS_9sub_matchINS_11__wrap_iterIPKcEEEENS_9allocatorIS6_EEE20__throw_length_errorB8ne190102Ev, symObjAddr: 0x2AD90, symBinAddr: 0x2BAB8, symSize: 0x14 }
  - { offset: 0x1571F4, size: 0x8, addend: 0x0, symName: __ZNKSt3__112basic_stringIcNS_11char_traitsIcEENS_9allocatorIcEEE20__throw_out_of_rangeB8ne190102Ev, symObjAddr: 0x2ADA4, symBinAddr: 0x2BACC, symSize: 0x14 }
  - { offset: 0x15725B, size: 0x8, addend: 0x0, symName: '__ZZ38whisper_vad_init_from_file_with_paramsEN3$_08__invokeEPvS0_m', symObjAddr: 0x2ADB8, symBinAddr: 0x2BAE0, symSize: 0x24 }
  - { offset: 0x15731C, size: 0x8, addend: 0x0, symName: '__ZZ38whisper_vad_init_from_file_with_paramsEN3$_18__invokeEPv', symObjAddr: 0x2ADDC, symBinAddr: 0x2BB04, symSize: 0x18 }
  - { offset: 0x157349, size: 0x8, addend: 0x0, symName: '__ZZ38whisper_vad_init_from_file_with_paramsEN3$_18__invokeEPv', symObjAddr: 0x2ADDC, symBinAddr: 0x2BB04, symSize: 0x18 }
  - { offset: 0x1573F3, size: 0x8, addend: 0x0, symName: '__ZZ38whisper_vad_init_from_file_with_paramsEN3$_28__invokeEPv', symObjAddr: 0x2ADF4, symBinAddr: 0x2BB1C, symSize: 0x48 }
  - { offset: 0x1574A5, size: 0x8, addend: 0x0, symName: '__ZNSt3__110__function6__funcIZL24whisper_vad_init_contextP19whisper_vad_contextE3$_0NS_9allocatorIS4_EEFP11ggml_cgraphvEED1Ev', symObjAddr: 0x2AE90, symBinAddr: 0x2BBB8, symSize: 0x4 }
  - { offset: 0x1574D0, size: 0x8, addend: 0x0, symName: '__ZNSt3__110__function6__funcIZL24whisper_vad_init_contextP19whisper_vad_contextE3$_0NS_9allocatorIS4_EEFP11ggml_cgraphvEED0Ev', symObjAddr: 0x2AE94, symBinAddr: 0x2BBBC, symSize: 0x4 }
  - { offset: 0x157586, size: 0x8, addend: 0x0, symName: '__ZNKSt3__110__function6__funcIZL24whisper_vad_init_contextP19whisper_vad_contextE3$_0NS_9allocatorIS4_EEFP11ggml_cgraphvEE7__cloneEv', symObjAddr: 0x2AE98, symBinAddr: 0x2BBC0, symSize: 0x34 }
  - { offset: 0x1576DA, size: 0x8, addend: 0x0, symName: '__ZNKSt3__110__function6__funcIZL24whisper_vad_init_contextP19whisper_vad_contextE3$_0NS_9allocatorIS4_EEFP11ggml_cgraphvEE7__cloneEPNS0_6__baseIS9_EE', symObjAddr: 0x2AECC, symBinAddr: 0x2BBF4, symSize: 0x14 }
  - { offset: 0x15774C, size: 0x8, addend: 0x0, symName: '__ZNSt3__110__function6__funcIZL24whisper_vad_init_contextP19whisper_vad_contextE3$_0NS_9allocatorIS4_EEFP11ggml_cgraphvEE7destroyEv', symObjAddr: 0x2AEE0, symBinAddr: 0x2BC08, symSize: 0x4 }
  - { offset: 0x15779B, size: 0x8, addend: 0x0, symName: '__ZNSt3__110__function6__funcIZL24whisper_vad_init_contextP19whisper_vad_contextE3$_0NS_9allocatorIS4_EEFP11ggml_cgraphvEE18destroy_deallocateEv', symObjAddr: 0x2AEE4, symBinAddr: 0x2BC0C, symSize: 0x4 }
  - { offset: 0x1577D1, size: 0x8, addend: 0x0, symName: '__ZNSt3__110__function6__funcIZL24whisper_vad_init_contextP19whisper_vad_contextE3$_0NS_9allocatorIS4_EEFP11ggml_cgraphvEE18destroy_deallocateEv', symObjAddr: 0x2AEE4, symBinAddr: 0x2BC0C, symSize: 0x4 }
  - { offset: 0x1577F6, size: 0x8, addend: 0x0, symName: '__ZNSt3__110__function6__funcIZL24whisper_vad_init_contextP19whisper_vad_contextE3$_0NS_9allocatorIS4_EEFP11ggml_cgraphvEE18destroy_deallocateEv', symObjAddr: 0x2AEE4, symBinAddr: 0x2BC0C, symSize: 0x4 }
  - { offset: 0x157825, size: 0x8, addend: 0x0, symName: '__ZNSt3__110__function6__funcIZL24whisper_vad_init_contextP19whisper_vad_contextE3$_0NS_9allocatorIS4_EEFP11ggml_cgraphvEE18destroy_deallocateEv', symObjAddr: 0x2AEE4, symBinAddr: 0x2BC0C, symSize: 0x4 }
  - { offset: 0x15784E, size: 0x8, addend: 0x0, symName: '__ZNSt3__110__function6__funcIZL24whisper_vad_init_contextP19whisper_vad_contextE3$_0NS_9allocatorIS4_EEFP11ggml_cgraphvEE18destroy_deallocateEv', symObjAddr: 0x2AEE4, symBinAddr: 0x2BC0C, symSize: 0x4 }
  - { offset: 0x1578CD, size: 0x8, addend: 0x0, symName: '__ZNSt3__110__function6__funcIZL24whisper_vad_init_contextP19whisper_vad_contextE3$_0NS_9allocatorIS4_EEFP11ggml_cgraphvEEclEv', symObjAddr: 0x2AEE8, symBinAddr: 0x2BC10, symSize: 0xC }
  - { offset: 0x15795A, size: 0x8, addend: 0x0, symName: '__ZNKSt3__110__function6__funcIZL24whisper_vad_init_contextP19whisper_vad_contextE3$_0NS_9allocatorIS4_EEFP11ggml_cgraphvEE6targetERKSt9type_info', symObjAddr: 0x2AEF4, symBinAddr: 0x2BC1C, symSize: 0x64 }
  - { offset: 0x157A18, size: 0x8, addend: 0x0, symName: '__ZNKSt3__110__function6__funcIZL24whisper_vad_init_contextP19whisper_vad_contextE3$_0NS_9allocatorIS4_EEFP11ggml_cgraphvEE11target_typeEv', symObjAddr: 0x2AF58, symBinAddr: 0x2BC80, symSize: 0xC }
  - { offset: 0x157F44, size: 0x8, addend: 0x0, symName: __ZNSt3__16vectorINS0_IPK23whisper_grammar_elementNS_9allocatorIS3_EEEENS4_IS6_EEE21__push_back_slow_pathIRKS6_EEPS6_OT_, symObjAddr: 0x2B694, symBinAddr: 0x2C3BC, symSize: 0x17C }
  - { offset: 0x15883B, size: 0x8, addend: 0x0, symName: __ZL29whisper_grammar_advance_stackRKNSt3__16vectorINS0_I23whisper_grammar_elementNS_9allocatorIS1_EEEENS2_IS4_EEEERKNS0_IPKS1_NS2_ISA_EEEERNS0_ISC_NS2_ISC_EEEE.cold.1, symObjAddr: 0x3A328, symBinAddr: 0x105C54, symSize: 0x38 }
  - { offset: 0x1588B5, size: 0x8, addend: 0x0, symName: __ZNSt3__114__split_bufferINS_6vectorIPK23whisper_grammar_elementNS_9allocatorIS4_EEEERNS5_IS7_EEED1Ev, symObjAddr: 0x2B614, symBinAddr: 0x2C33C, symSize: 0x6C }
  - { offset: 0x158C5C, size: 0x8, addend: 0x0, symName: __ZNSt3__111basic_regexIcNS_12regex_traitsIcEEE7__parseIPKcEET_S7_S7_, symObjAddr: 0x2B8D8, symBinAddr: 0x2C600, symSize: 0x358 }
  - { offset: 0x1595C8, size: 0x8, addend: 0x0, symName: __ZNSt3__111basic_regexIcNS_12regex_traitsIcEEE13__parse_egrepIPKcEET_S7_S7_, symObjAddr: 0x2C298, symBinAddr: 0x2CFC0, symSize: 0x1B8 }
  - { offset: 0x159B7D, size: 0x8, addend: 0x0, symName: __ZNSt3__111basic_regexIcNS_12regex_traitsIcEEE24__parse_extended_reg_expIPKcEET_S7_S7_, symObjAddr: 0x2BF7C, symBinAddr: 0x2CCA4, symSize: 0x164 }
  - { offset: 0x159EE1, size: 0x8, addend: 0x0, symName: __ZNSt3__111basic_regexIcNS_12regex_traitsIcEEE12__parse_grepIPKcEET_S7_S7_, symObjAddr: 0x2C0E0, symBinAddr: 0x2CE08, symSize: 0x1B8 }
  - { offset: 0x159EF5, size: 0x8, addend: 0x0, symName: __ZNSt3__111basic_regexIcNS_12regex_traitsIcEEE21__parse_basic_reg_expIPKcEET_S7_S7_, symObjAddr: 0x2BDF4, symBinAddr: 0x2CB1C, symSize: 0x188 }
  - { offset: 0x15A28F, size: 0x8, addend: 0x0, symName: __ZNSt3__111basic_regexIcNS_12regex_traitsIcEEE24__parse_extended_reg_expIPKcEET_S7_S7_, symObjAddr: 0x2BF7C, symBinAddr: 0x2CCA4, symSize: 0x164 }
  - { offset: 0x15A2A3, size: 0x8, addend: 0x0, symName: __ZNSt3__111basic_regexIcNS_12regex_traitsIcEEE12__parse_grepIPKcEET_S7_S7_, symObjAddr: 0x2C0E0, symBinAddr: 0x2CE08, symSize: 0x1B8 }
  - { offset: 0x15A858, size: 0x8, addend: 0x0, symName: __ZNSt3__111basic_regexIcNS_12regex_traitsIcEEE19__parse_alternativeIPKcEET_S7_S7_, symObjAddr: 0x2C450, symBinAddr: 0x2D178, symSize: 0xA0 }
  - { offset: 0x15A9B8, size: 0x8, addend: 0x0, symName: __ZNSt3__111basic_regexIcNS_12regex_traitsIcEEE16__parse_ecma_expIPKcEET_S7_S7_, symObjAddr: 0x2BC30, symBinAddr: 0x2C958, symSize: 0x1C4 }
  - { offset: 0x15AE0B, size: 0x8, addend: 0x0, symName: __ZNSt3__111basic_regexIcNS_12regex_traitsIcEEE12__parse_termIPKcEET_S7_S7_, symObjAddr: 0x2C4F0, symBinAddr: 0x2D218, symSize: 0x94 }
  - { offset: 0x15AF70, size: 0x8, addend: 0x0, symName: __ZNSt3__111basic_regexIcNS_12regex_traitsIcEEE18__parse_nondupl_REIPKcEET_S7_S7_, symObjAddr: 0x2E994, symBinAddr: 0x2F6BC, symSize: 0x1FC }
  - { offset: 0x15B4F3, size: 0x8, addend: 0x0, symName: __ZNSt3__111basic_regexIcNS_12regex_traitsIcEEE22__parse_RE_dupl_symbolIPKcEET_S7_S7_PNS_16__owns_one_stateIcEEjj, symObjAddr: 0x2EB90, symBinAddr: 0x2F8B8, symSize: 0x274 }
  - { offset: 0x15B507, size: 0x8, addend: 0x0, symName: __ZNSt3__111basic_regexIcNS_12regex_traitsIcEEE22__parse_RE_dupl_symbolIPKcEET_S7_S7_PNS_16__owns_one_stateIcEEjj, symObjAddr: 0x2EB90, symBinAddr: 0x2F8B8, symSize: 0x274 }
  - { offset: 0x15BAC2, size: 0x8, addend: 0x0, symName: __ZNSt3__111basic_regexIcNS_12regex_traitsIcEEE32__parse_one_char_or_coll_elem_REIPKcEET_S7_S7_, symObjAddr: 0x2EE04, symBinAddr: 0x2FB2C, symSize: 0x11C }
  - { offset: 0x15BB1A, size: 0x8, addend: 0x0, symName: __ZNSt3__111basic_regexIcNS_12regex_traitsIcEEE22__parse_ERE_expressionIPKcEET_S7_S7_, symObjAddr: 0x2EF20, symBinAddr: 0x2FC48, symSize: 0x208 }
  - { offset: 0x15BEEA, size: 0x8, addend: 0x0, symName: __ZNSt3__111basic_regexIcNS_12regex_traitsIcEEE33__parse_one_char_or_coll_elem_EREIPKcEET_S7_S7_, symObjAddr: 0x2F128, symBinAddr: 0x2FE50, symSize: 0x160 }
  - { offset: 0x15BF5F, size: 0x8, addend: 0x0, symName: __ZNSt3__111basic_regexIcNS_12regex_traitsIcEEE23__parse_ERE_dupl_symbolIPKcEET_S7_S7_PNS_16__owns_one_stateIcEEjj, symObjAddr: 0x2CB60, symBinAddr: 0x2D888, symSize: 0x3E4 }
  - { offset: 0x15C554, size: 0x8, addend: 0x0, symName: __ZNSt3__111basic_regexIcNS_12regex_traitsIcEEE19__parse_atom_escapeIPKcEET_S7_S7_, symObjAddr: 0x2CF44, symBinAddr: 0x2DC6C, symSize: 0x180 }
  - { offset: 0x15C568, size: 0x8, addend: 0x0, symName: __ZNSt3__111basic_regexIcNS_12regex_traitsIcEEE17__parse_assertionIPKcEET_S7_S7_, symObjAddr: 0x2C584, symBinAddr: 0x2D2AC, symSize: 0x38C }
  - { offset: 0x15CBF2, size: 0x8, addend: 0x0, symName: __ZNSt3__111basic_regexIcNS_12regex_traitsIcEEE12__parse_atomIPKcEET_S7_S7_, symObjAddr: 0x2C910, symBinAddr: 0x2D638, symSize: 0x250 }
  - { offset: 0x15CF8E, size: 0x8, addend: 0x0, symName: __ZNSt3__111basic_regexIcNS_12regex_traitsIcEEE23__parse_ERE_dupl_symbolIPKcEET_S7_S7_PNS_16__owns_one_stateIcEEjj, symObjAddr: 0x2CB60, symBinAddr: 0x2D888, symSize: 0x3E4 }
  - { offset: 0x15CFA2, size: 0x8, addend: 0x0, symName: __ZNSt3__111basic_regexIcNS_12regex_traitsIcEEE26__parse_bracket_expressionIPKcEET_S7_S7_, symObjAddr: 0x2D0C4, symBinAddr: 0x2DDEC, symSize: 0x160 }
  - { offset: 0x15D19B, size: 0x8, addend: 0x0, symName: __ZNSt3__111basic_regexIcNS_12regex_traitsIcEEE19__parse_atom_escapeIPKcEET_S7_S7_, symObjAddr: 0x2CF44, symBinAddr: 0x2DC6C, symSize: 0x180 }
  - { offset: 0x15D340, size: 0x8, addend: 0x0, symName: __ZNSt3__111basic_regexIcNS_12regex_traitsIcEEE26__parse_bracket_expressionIPKcEET_S7_S7_, symObjAddr: 0x2D0C4, symBinAddr: 0x2DDEC, symSize: 0x160 }
  - { offset: 0x15D354, size: 0x8, addend: 0x0, symName: __ZNSt3__111basic_regexIcNS_12regex_traitsIcEEE25__parse_pattern_characterIPKcEET_S7_S7_, symObjAddr: 0x2D224, symBinAddr: 0x2DF4C, symSize: 0x7C }
  - { offset: 0x15D44E, size: 0x8, addend: 0x0, symName: __ZNSt3__111basic_regexIcNS_12regex_traitsIcEEE30__parse_character_class_escapeIPKcEET_S7_S7_, symObjAddr: 0x2D2A0, symBinAddr: 0x2DFC8, symSize: 0x25C }
  - { offset: 0x15D904, size: 0x8, addend: 0x0, symName: __ZNSt3__111basic_regexIcNS_12regex_traitsIcEEE24__parse_character_escapeIPKcEET_S7_S7_PNS_12basic_stringIcNS_11char_traitsIcEENS_9allocatorIcEEEE, symObjAddr: 0x2D4FC, symBinAddr: 0x2E224, symSize: 0x40C }
  - { offset: 0x15DD49, size: 0x8, addend: 0x0, symName: __ZNSt3__111basic_regexIcNS_12regex_traitsIcEEE23__parse_expression_termIPKcEET_S7_S7_PNS_20__bracket_expressionIcS2_EE, symObjAddr: 0x2D908, symBinAddr: 0x2E630, symSize: 0x54C }
  - { offset: 0x15DDB0, size: 0x8, addend: 0x0, symName: __ZNSt3__111basic_regexIcNS_12regex_traitsIcEEE23__parse_expression_termIPKcEET_S7_S7_PNS_20__bracket_expressionIcS2_EE, symObjAddr: 0x2D908, symBinAddr: 0x2E630, symSize: 0x54C }
  - { offset: 0x15F475, size: 0x8, addend: 0x0, symName: __ZNSt3__111basic_regexIcNS_12regex_traitsIcEEE25__parse_equivalence_classIPKcEET_S7_S7_PNS_20__bracket_expressionIcS2_EE, symObjAddr: 0x2DE54, symBinAddr: 0x2EB7C, symSize: 0x270 }
  - { offset: 0x16000A, size: 0x8, addend: 0x0, symName: __ZNSt3__111basic_regexIcNS_12regex_traitsIcEEE18__parse_awk_escapeIPKcEET_S7_S7_PNS_12basic_stringIcNS_11char_traitsIcEENS_9allocatorIcEEEE, symObjAddr: 0x2E318, symBinAddr: 0x2F040, symSize: 0x2E4 }
  - { offset: 0x16012E, size: 0x8, addend: 0x0, symName: __ZNKSt3__112regex_traitsIcE20__lookup_collatenameIPKcEENS_12basic_stringIcNS_11char_traitsIcEENS_9allocatorIcEEEET_SB_c, symObjAddr: 0x2E5FC, symBinAddr: 0x2F324, symSize: 0x240 }
  - { offset: 0x160142, size: 0x8, addend: 0x0, symName: __ZNSt3__111basic_regexIcNS_12regex_traitsIcEEE24__parse_collating_symbolIPKcEET_S7_S7_RNS_12basic_stringIcNS_11char_traitsIcEENS_9allocatorIcEEEE, symObjAddr: 0x2E0C4, symBinAddr: 0x2EDEC, symSize: 0xD0 }
  - { offset: 0x160517, size: 0x8, addend: 0x0, symName: __ZNSt3__111basic_regexIcNS_12regex_traitsIcEEE20__parse_class_escapeIPKcEET_S7_S7_RNS_12basic_stringIcNS_11char_traitsIcEENS_9allocatorIcEEEEPNS_20__bracket_expressionIcS2_EE, symObjAddr: 0x2E194, symBinAddr: 0x2EEBC, symSize: 0x184 }
  - { offset: 0x160522, size: 0x8, addend: 0x0, symName: __ZNKSt3__112regex_traitsIcE20__lookup_collatenameIPKcEENS_12basic_stringIcNS_11char_traitsIcEENS_9allocatorIcEEEET_SB_c, symObjAddr: 0x2E5FC, symBinAddr: 0x2F324, symSize: 0x240 }
  - { offset: 0x1611C9, size: 0x8, addend: 0x0, symName: __ZNKSt3__112regex_traitsIcE18__lookup_classnameIPKcEEjT_S5_bc, symObjAddr: 0x2E83C, symBinAddr: 0x2F564, symSize: 0x158 }
  - { offset: 0x16191C, size: 0x8, addend: 0x0, symName: __ZNSt3__111basic_regexIcNS_12regex_traitsIcEEE20__parse_class_escapeIPKcEET_S7_S7_RNS_12basic_stringIcNS_11char_traitsIcEENS_9allocatorIcEEEEPNS_20__bracket_expressionIcS2_EE, symObjAddr: 0x2E194, symBinAddr: 0x2EEBC, symSize: 0x184 }
  - { offset: 0x161AC8, size: 0x8, addend: 0x0, symName: __ZNSt3__111basic_regexIcNS_12regex_traitsIcEEE18__parse_awk_escapeIPKcEET_S7_S7_PNS_12basic_stringIcNS_11char_traitsIcEENS_9allocatorIcEEEE, symObjAddr: 0x2E318, symBinAddr: 0x2F040, symSize: 0x2E4 }
  - { offset: 0x161D34, size: 0x8, addend: 0x0, symName: __ZNSt3__111basic_regexIcNS_12regex_traitsIcEEE32__parse_one_char_or_coll_elem_REIPKcEET_S7_S7_, symObjAddr: 0x2EE04, symBinAddr: 0x2FB2C, symSize: 0x11C }
  - { offset: 0x162006, size: 0x8, addend: 0x0, symName: __ZNSt3__111basic_regexIcNS_12regex_traitsIcEEE33__parse_one_char_or_coll_elem_EREIPKcEET_S7_S7_, symObjAddr: 0x2F128, symBinAddr: 0x2FE50, symSize: 0x160 }
  - { offset: 0x162211, size: 0x8, addend: 0x0, symName: __ZNSt3__111basic_regexIcNS_12regex_traitsIcEEE23__parse_QUOTED_CHAR_EREIPKcEET_S7_S7_, symObjAddr: 0x2F288, symBinAddr: 0x2FFB0, symSize: 0xD8 }
  - { offset: 0x1625E1, size: 0x8, addend: 0x0, symName: __ZL43whisper_grammar_reject_candidates_for_stackRKNSt3__16vectorINS0_I23whisper_grammar_elementNS_9allocatorIS1_EEEENS2_IS4_EEEERKNS0_IPKS1_NS2_ISA_EEEERKNS0_I25whisper_grammar_candidateNS2_ISF_EEEE, symObjAddr: 0x2F9D4, symBinAddr: 0x306FC, symSize: 0xAD4 }
  - { offset: 0x165219, size: 0x8, addend: 0x0, symName: __ZNSt3__16vectorIdNS_9allocatorIdEEE13shrink_to_fitEv, symObjAddr: 0x307C0, symBinAddr: 0x314E8, symSize: 0xB8 }
  - { offset: 0x16596E, size: 0x8, addend: 0x0, symName: __ZNSt3__128__exception_guard_exceptionsINS_29_AllocatorDestroyRangeReverseINS_9allocatorINS_6vectorI23whisper_grammar_elementNS2_IS4_EEEEEEPS6_EEED1B8ne190102Ev, symObjAddr: 0x30F68, symBinAddr: 0x31C90, symSize: 0x6C }
  - { offset: 0x165B6F, size: 0x8, addend: 0x0, symName: __ZNSt3__128__exception_guard_exceptionsINS_29_AllocatorDestroyRangeReverseINS_9allocatorINS_6vectorIPK23whisper_grammar_elementNS2_IS6_EEEEEEPS8_EEED1B8ne190102Ev, symObjAddr: 0x31154, symBinAddr: 0x31E7C, symSize: 0x6C }
  - { offset: 0x165EAB, size: 0x8, addend: 0x0, symName: __ZNSt3__16vectorI23whisper_grammar_elementNS_9allocatorIS1_EEE18__assign_with_sizeB8ne190102IPS1_S6_EEvT_T0_l, symObjAddr: 0x315B0, symBinAddr: 0x322D8, symSize: 0x14C }
  - { offset: 0x1669B8, size: 0x8, addend: 0x0, symName: __ZNSt3__16vectorINS0_IPK23whisper_grammar_elementNS_9allocatorIS3_EEEENS4_IS6_EEE18__assign_with_sizeB8ne190102IPS6_SA_EEvT_T0_l, symObjAddr: 0x316FC, symBinAddr: 0x32424, symSize: 0x260 }
  - { offset: 0x166AFA, size: 0x8, addend: 0x0, symName: __ZNSt3__16vectorIPK23whisper_grammar_elementNS_9allocatorIS3_EEE18__assign_with_sizeB8ne190102IPS3_S8_EEvT_T0_l, symObjAddr: 0x3195C, symBinAddr: 0x32684, symSize: 0x14C }
  - { offset: 0x167607, size: 0x8, addend: 0x0, symName: __ZNSt3__16__treeINS_12__value_typeIiiEENS_19__map_value_compareIiS2_NS_4lessIiEELb1EEENS_9allocatorIS2_EEE7destroyEPNS_11__tree_nodeIS2_PvEE, symObjAddr: 0x31AA8, symBinAddr: 0x327D0, symSize: 0x44 }
  - { offset: 0x167B6B, size: 0x8, addend: 0x0, symName: __ZL13median_filterP11ggml_tensorPKS_iiPv, symObjAddr: 0x32CFC, symBinAddr: 0x33A24, symSize: 0x3AC }
  - { offset: 0x16881D, size: 0x8, addend: 0x0, symName: __ZL13median_filterP11ggml_tensorPKS_iiPv.cold.1, symObjAddr: 0x3A360, symBinAddr: 0x105C8C, symSize: 0x38 }
  - { offset: 0x168835, size: 0x8, addend: 0x0, symName: __ZL13median_filterP11ggml_tensorPKS_iiPv.cold.4, symObjAddr: 0x3A408, symBinAddr: 0x105D34, symSize: 0x38 }
  - { offset: 0x16884D, size: 0x8, addend: 0x0, symName: __ZL13median_filterP11ggml_tensorPKS_iiPv.cold.2, symObjAddr: 0x3A398, symBinAddr: 0x105CC4, symSize: 0x38 }
  - { offset: 0x168865, size: 0x8, addend: 0x0, symName: __ZL13median_filterP11ggml_tensorPKS_iiPv.cold.3, symObjAddr: 0x3A3D0, symBinAddr: 0x105CFC, symSize: 0x38 }
  - { offset: 0x1689D0, size: 0x8, addend: 0x0, symName: __ZNSt3__13mapI10asr_tensorPKcNS_4lessIS1_EENS_9allocatorINS_4pairIKS1_S3_EEEEEC2B8ne190102ESt16initializer_listIS9_ERKS5_, symObjAddr: 0x330BC, symBinAddr: 0x33DE4, symSize: 0xF4 }
  - { offset: 0x1692B0, size: 0x8, addend: 0x0, symName: __ZNSt3__16__treeINS_12__value_typeI10asr_systemNS_3mapI10asr_tensorPKcNS_4lessIS4_EENS_9allocatorINS_4pairIKS4_S6_EEEEEEEENS_19__map_value_compareIS2_SF_NS7_IS2_EELb1EEENS9_ISF_EEE30__emplace_hint_unique_key_argsIS2_JRKNSA_IKS2_SE_EEEEENSA_INS_15__tree_iteratorISF_PNS_11__tree_nodeISF_PvEElEEbEENS_21__tree_const_iteratorISF_SU_lEERKT_DpOT0_, symObjAddr: 0x331B0, symBinAddr: 0x33ED8, symSize: 0x10C }
  - { offset: 0x16988A, size: 0x8, addend: 0x0, symName: __ZNSt3__16__treeINS_12__value_typeI10asr_systemNS_3mapI10asr_tensorPKcNS_4lessIS4_EENS_9allocatorINS_4pairIKS4_S6_EEEEEEEENS_19__map_value_compareIS2_SF_NS7_IS2_EELb1EEENS9_ISF_EEE12__find_equalIS2_EERPNS_16__tree_node_baseIPvEENS_21__tree_const_iteratorISF_PNS_11__tree_nodeISF_SN_EElEERPNS_15__tree_end_nodeISP_EESQ_RKT_, symObjAddr: 0x332BC, symBinAddr: 0x33FE4, symSize: 0x1B0 }
  - { offset: 0x1698F2, size: 0x8, addend: 0x0, symName: __ZNSt3__16__treeINS_12__value_typeI10asr_systemNS_3mapI10asr_tensorPKcNS_4lessIS4_EENS_9allocatorINS_4pairIKS4_S6_EEEEEEEENS_19__map_value_compareIS2_SF_NS7_IS2_EELb1EEENS9_ISF_EEE12__find_equalIS2_EERPNS_16__tree_node_baseIPvEENS_21__tree_const_iteratorISF_PNS_11__tree_nodeISF_SN_EElEERPNS_15__tree_end_nodeISP_EESQ_RKT_, symObjAddr: 0x332BC, symBinAddr: 0x33FE4, symSize: 0x1B0 }
  - { offset: 0x169910, size: 0x8, addend: 0x0, symName: __ZNSt3__16__treeINS_12__value_typeI10asr_systemNS_3mapI10asr_tensorPKcNS_4lessIS4_EENS_9allocatorINS_4pairIKS4_S6_EEEEEEEENS_19__map_value_compareIS2_SF_NS7_IS2_EELb1EEENS9_ISF_EEE12__find_equalIS2_EERPNS_16__tree_node_baseIPvEENS_21__tree_const_iteratorISF_PNS_11__tree_nodeISF_SN_EElEERPNS_15__tree_end_nodeISP_EESQ_RKT_, symObjAddr: 0x332BC, symBinAddr: 0x33FE4, symSize: 0x1B0 }
  - { offset: 0x169C8B, size: 0x8, addend: 0x0, symName: __ZNSt3__110unique_ptrINS_11__tree_nodeINS_12__value_typeI10asr_systemNS_3mapI10asr_tensorPKcNS_4lessIS5_EENS_9allocatorINS_4pairIKS5_S7_EEEEEEEEPvEENS_22__tree_node_destructorINSA_ISI_EEEEED1B8ne190102Ev, symObjAddr: 0x3346C, symBinAddr: 0x34194, symSize: 0x4C }
  - { offset: 0x16A44A, size: 0x8, addend: 0x0, symName: __ZNSt3__13mapI10asr_tensor7ggml_opNS_4lessIS1_EENS_9allocatorINS_4pairIKS1_S2_EEEEEC2B8ne190102ESt16initializer_listIS8_ERKS4_, symObjAddr: 0x33508, symBinAddr: 0x34230, symSize: 0xF4 }
  - { offset: 0x16A86A, size: 0x8, addend: 0x0, symName: __ZNSt3__16__treeINS_12__value_typeI10asr_tensor7ggml_opEENS_19__map_value_compareIS2_S4_NS_4lessIS2_EELb1EEENS_9allocatorIS4_EEE12__find_equalIS2_EERPNS_16__tree_node_baseIPvEENS_21__tree_const_iteratorIS4_PNS_11__tree_nodeIS4_SE_EElEERPNS_15__tree_end_nodeISG_EESH_RKT_, symObjAddr: 0x335FC, symBinAddr: 0x34324, symSize: 0x1B0 }
  - { offset: 0x16A8D2, size: 0x8, addend: 0x0, symName: __ZNSt3__16__treeINS_12__value_typeI10asr_tensor7ggml_opEENS_19__map_value_compareIS2_S4_NS_4lessIS2_EELb1EEENS_9allocatorIS4_EEE12__find_equalIS2_EERPNS_16__tree_node_baseIPvEENS_21__tree_const_iteratorIS4_PNS_11__tree_nodeIS4_SE_EElEERPNS_15__tree_end_nodeISG_EESH_RKT_, symObjAddr: 0x335FC, symBinAddr: 0x34324, symSize: 0x1B0 }
  - { offset: 0x16A8F0, size: 0x8, addend: 0x0, symName: __ZNSt3__16__treeINS_12__value_typeI10asr_tensor7ggml_opEENS_19__map_value_compareIS2_S4_NS_4lessIS2_EELb1EEENS_9allocatorIS4_EEE12__find_equalIS2_EERPNS_16__tree_node_baseIPvEENS_21__tree_const_iteratorIS4_PNS_11__tree_nodeIS4_SE_EElEERPNS_15__tree_end_nodeISG_EESH_RKT_, symObjAddr: 0x335FC, symBinAddr: 0x34324, symSize: 0x1B0 }
  - { offset: 0x16B0CB, size: 0x8, addend: 0x0, symName: __ZNSt3__13mapI10vad_tensor7ggml_opNS_4lessIS1_EENS_9allocatorINS_4pairIKS1_S2_EEEEEC2B8ne190102ESt16initializer_listIS8_ERKS4_, symObjAddr: 0x337F0, symBinAddr: 0x34518, symSize: 0xF4 }
  - { offset: 0x16B4EB, size: 0x8, addend: 0x0, symName: __ZNSt3__16__treeINS_12__value_typeI10vad_tensor7ggml_opEENS_19__map_value_compareIS2_S4_NS_4lessIS2_EELb1EEENS_9allocatorIS4_EEE12__find_equalIS2_EERPNS_16__tree_node_baseIPvEENS_21__tree_const_iteratorIS4_PNS_11__tree_nodeIS4_SE_EElEERPNS_15__tree_end_nodeISG_EESH_RKT_, symObjAddr: 0x338E4, symBinAddr: 0x3460C, symSize: 0x1B0 }
  - { offset: 0x16B553, size: 0x8, addend: 0x0, symName: __ZNSt3__16__treeINS_12__value_typeI10vad_tensor7ggml_opEENS_19__map_value_compareIS2_S4_NS_4lessIS2_EELb1EEENS_9allocatorIS4_EEE12__find_equalIS2_EERPNS_16__tree_node_baseIPvEENS_21__tree_const_iteratorIS4_PNS_11__tree_nodeIS4_SE_EElEERPNS_15__tree_end_nodeISG_EESH_RKT_, symObjAddr: 0x338E4, symBinAddr: 0x3460C, symSize: 0x1B0 }
  - { offset: 0x16B571, size: 0x8, addend: 0x0, symName: __ZNSt3__16__treeINS_12__value_typeI10vad_tensor7ggml_opEENS_19__map_value_compareIS2_S4_NS_4lessIS2_EELb1EEENS_9allocatorIS4_EEE12__find_equalIS2_EERPNS_16__tree_node_baseIPvEENS_21__tree_const_iteratorIS4_PNS_11__tree_nodeIS4_SE_EElEERPNS_15__tree_end_nodeISG_EESH_RKT_, symObjAddr: 0x338E4, symBinAddr: 0x3460C, symSize: 0x1B0 }
  - { offset: 0x16BD4C, size: 0x8, addend: 0x0, symName: __ZNSt3__13mapI10vad_tensorPKcNS_4lessIS1_EENS_9allocatorINS_4pairIKS1_S3_EEEEEC2B8ne190102ESt16initializer_listIS9_ERKS5_, symObjAddr: 0x33AD8, symBinAddr: 0x34800, symSize: 0xF4 }
  - { offset: 0x16C16C, size: 0x8, addend: 0x0, symName: __ZNSt3__16__treeINS_12__value_typeI10vad_tensorPKcEENS_19__map_value_compareIS2_S5_NS_4lessIS2_EELb1EEENS_9allocatorIS5_EEE12__find_equalIS2_EERPNS_16__tree_node_baseIPvEENS_21__tree_const_iteratorIS5_PNS_11__tree_nodeIS5_SF_EElEERPNS_15__tree_end_nodeISH_EESI_RKT_, symObjAddr: 0x33BCC, symBinAddr: 0x348F4, symSize: 0x1B0 }
  - { offset: 0x16C1D4, size: 0x8, addend: 0x0, symName: __ZNSt3__16__treeINS_12__value_typeI10vad_tensorPKcEENS_19__map_value_compareIS2_S5_NS_4lessIS2_EELb1EEENS_9allocatorIS5_EEE12__find_equalIS2_EERPNS_16__tree_node_baseIPvEENS_21__tree_const_iteratorIS5_PNS_11__tree_nodeIS5_SF_EElEERPNS_15__tree_end_nodeISH_EESI_RKT_, symObjAddr: 0x33BCC, symBinAddr: 0x348F4, symSize: 0x1B0 }
  - { offset: 0x16C1F2, size: 0x8, addend: 0x0, symName: __ZNSt3__16__treeINS_12__value_typeI10vad_tensorPKcEENS_19__map_value_compareIS2_S5_NS_4lessIS2_EELb1EEENS_9allocatorIS5_EEE12__find_equalIS2_EERPNS_16__tree_node_baseIPvEENS_21__tree_const_iteratorIS5_PNS_11__tree_nodeIS5_SF_EElEERPNS_15__tree_end_nodeISH_EESI_RKT_, symObjAddr: 0x33BCC, symBinAddr: 0x348F4, symSize: 0x1B0 }
  - { offset: 0x16C97F, size: 0x8, addend: 0x0, symName: __ZNSt3__16__treeINS_12__value_typeI7e_modelNS_12basic_stringIcNS_11char_traitsIcEENS_9allocatorIcEEEEEENS_19__map_value_compareIS2_S9_NS_4lessIS2_EELb1EEENS6_IS9_EEE30__emplace_hint_unique_key_argsIS2_JRKNS_4pairIKS2_S8_EEEEENSH_INS_15__tree_iteratorIS9_PNS_11__tree_nodeIS9_PvEElEEbEENS_21__tree_const_iteratorIS9_SQ_lEERKT_DpOT0_, symObjAddr: 0x33DC0, symBinAddr: 0x34AE8, symSize: 0x118 }
  - { offset: 0x16CD98, size: 0x8, addend: 0x0, symName: __ZNSt3__16__treeINS_12__value_typeI7e_modelNS_12basic_stringIcNS_11char_traitsIcEENS_9allocatorIcEEEEEENS_19__map_value_compareIS2_S9_NS_4lessIS2_EELb1EEENS6_IS9_EEE12__find_equalIS2_EERPNS_16__tree_node_baseIPvEENS_21__tree_const_iteratorIS9_PNS_11__tree_nodeIS9_SI_EElEERPNS_15__tree_end_nodeISK_EESL_RKT_, symObjAddr: 0x33ED8, symBinAddr: 0x34C00, symSize: 0x1B0 }
  - { offset: 0x16CE00, size: 0x8, addend: 0x0, symName: __ZNSt3__16__treeINS_12__value_typeI7e_modelNS_12basic_stringIcNS_11char_traitsIcEENS_9allocatorIcEEEEEENS_19__map_value_compareIS2_S9_NS_4lessIS2_EELb1EEENS6_IS9_EEE12__find_equalIS2_EERPNS_16__tree_node_baseIPvEENS_21__tree_const_iteratorIS9_PNS_11__tree_nodeIS9_SI_EElEERPNS_15__tree_end_nodeISK_EESL_RKT_, symObjAddr: 0x33ED8, symBinAddr: 0x34C00, symSize: 0x1B0 }
  - { offset: 0x16CE1E, size: 0x8, addend: 0x0, symName: __ZNSt3__16__treeINS_12__value_typeI7e_modelNS_12basic_stringIcNS_11char_traitsIcEENS_9allocatorIcEEEEEENS_19__map_value_compareIS2_S9_NS_4lessIS2_EELb1EEENS6_IS9_EEE12__find_equalIS2_EERPNS_16__tree_node_baseIPvEENS_21__tree_const_iteratorIS9_PNS_11__tree_nodeIS9_SI_EElEERPNS_15__tree_end_nodeISK_EESL_RKT_, symObjAddr: 0x33ED8, symBinAddr: 0x34C00, symSize: 0x1B0 }
  - { offset: 0x16D199, size: 0x8, addend: 0x0, symName: __ZNSt3__110unique_ptrINS_11__tree_nodeINS_12__value_typeI7e_modelNS_12basic_stringIcNS_11char_traitsIcEENS_9allocatorIcEEEEEEPvEENS_22__tree_node_destructorINS7_ISC_EEEEED1B8ne190102Ev, symObjAddr: 0x34088, symBinAddr: 0x34DB0, symSize: 0x60 }
  - { offset: 0x16D913, size: 0x8, addend: 0x0, symName: __ZNSt3__13mapINS_12basic_stringIcNS_11char_traitsIcEENS_9allocatorIcEEEENS_4pairIiS6_EENS_4lessIS6_EENS4_INS7_IKS6_S8_EEEEEC2B8ne190102ESt16initializer_listISC_ERKSA_, symObjAddr: 0x341D4, symBinAddr: 0x34EFC, symSize: 0x104 }
  - { offset: 0x16DC4E, size: 0x8, addend: 0x0, symName: __ZNSt3__16__treeINS_12__value_typeINS_12basic_stringIcNS_11char_traitsIcEENS_9allocatorIcEEEENS_4pairIiS7_EEEENS_19__map_value_compareIS7_SA_NS_4lessIS7_EELb1EEENS5_ISA_EEE12__find_equalIS7_EERPNS_16__tree_node_baseIPvEENS_21__tree_const_iteratorISA_PNS_11__tree_nodeISA_SJ_EElEERPNS_15__tree_end_nodeISL_EESM_RKT_, symObjAddr: 0x342D8, symBinAddr: 0x35000, symSize: 0x3F8 }
  - { offset: 0x16EA14, size: 0x8, addend: 0x0, symName: __ZNSt3__16__treeINS_12__value_typeINS_12basic_stringIcNS_11char_traitsIcEENS_9allocatorIcEEEENS_4pairIiS7_EEEENS_19__map_value_compareIS7_SA_NS_4lessIS7_EELb1EEENS5_ISA_EEE16__construct_nodeIJRKNS8_IKS7_S9_EEEEENS_10unique_ptrINS_11__tree_nodeISA_PvEENS_22__tree_node_destructorINS5_ISP_EEEEEEDpOT_, symObjAddr: 0x346D0, symBinAddr: 0x353F8, symSize: 0xF0 }
  - { offset: 0x16F1CB, size: 0x8, addend: 0x0, symName: __ZNSt3__110unique_ptrINS_11__tree_nodeINS_12__value_typeINS_12basic_stringIcNS_11char_traitsIcEENS_9allocatorIcEEEENS_4pairIiS8_EEEEPvEENS_22__tree_node_destructorINS6_ISD_EEEEED1B8ne190102Ev, symObjAddr: 0x347C0, symBinAddr: 0x354E8, symSize: 0x6C }
  - { offset: 0x16FA86, size: 0x8, addend: 0x0, symName: __ZNSt3__13mapI30whisper_alignment_heads_preset14whisper_aheadsNS_4lessIS1_EENS_9allocatorINS_4pairIKS1_S2_EEEEEC2B8ne190102ESt16initializer_listIS8_ERKS4_, symObjAddr: 0x348A4, symBinAddr: 0x355CC, symSize: 0x100 }
  - { offset: 0x16FEA6, size: 0x8, addend: 0x0, symName: __ZNSt3__16__treeINS_12__value_typeI30whisper_alignment_heads_preset14whisper_aheadsEENS_19__map_value_compareIS2_S4_NS_4lessIS2_EELb1EEENS_9allocatorIS4_EEE12__find_equalIS2_EERPNS_16__tree_node_baseIPvEENS_21__tree_const_iteratorIS4_PNS_11__tree_nodeIS4_SE_EElEERPNS_15__tree_end_nodeISG_EESH_RKT_, symObjAddr: 0x349A4, symBinAddr: 0x356CC, symSize: 0x1B0 }
  - { offset: 0x16FF0E, size: 0x8, addend: 0x0, symName: __ZNSt3__16__treeINS_12__value_typeI30whisper_alignment_heads_preset14whisper_aheadsEENS_19__map_value_compareIS2_S4_NS_4lessIS2_EELb1EEENS_9allocatorIS4_EEE12__find_equalIS2_EERPNS_16__tree_node_baseIPvEENS_21__tree_const_iteratorIS4_PNS_11__tree_nodeIS4_SE_EElEERPNS_15__tree_end_nodeISG_EESH_RKT_, symObjAddr: 0x349A4, symBinAddr: 0x356CC, symSize: 0x1B0 }
  - { offset: 0x16FF2C, size: 0x8, addend: 0x0, symName: __ZNSt3__16__treeINS_12__value_typeI30whisper_alignment_heads_preset14whisper_aheadsEENS_19__map_value_compareIS2_S4_NS_4lessIS2_EELb1EEENS_9allocatorIS4_EEE12__find_equalIS2_EERPNS_16__tree_node_baseIPvEENS_21__tree_const_iteratorIS4_PNS_11__tree_nodeIS4_SE_EElEERPNS_15__tree_end_nodeISG_EESH_RKT_, symObjAddr: 0x349A4, symBinAddr: 0x356CC, symSize: 0x1B0 }
  - { offset: 0x1707AF, size: 0x8, addend: 0x0, symName: '__ZNSt3__110__function6__funcIZ18whisper_init_stateE3$_0NS_9allocatorIS2_EEFP11ggml_cgraphvEED1Ev', symObjAddr: 0x34F24, symBinAddr: 0x35C4C, symSize: 0x4 }
  - { offset: 0x1707DA, size: 0x8, addend: 0x0, symName: '__ZNSt3__110__function6__funcIZ18whisper_init_stateE3$_0NS_9allocatorIS2_EEFP11ggml_cgraphvEED0Ev', symObjAddr: 0x34F28, symBinAddr: 0x35C50, symSize: 0x4 }
  - { offset: 0x1709DE, size: 0x8, addend: 0x0, symName: '__ZNKSt3__110__function6__funcIZ18whisper_init_stateE3$_0NS_9allocatorIS2_EEFP11ggml_cgraphvEE7__cloneEv', symObjAddr: 0x34F2C, symBinAddr: 0x35C54, symSize: 0x38 }
  - { offset: 0x170D1B, size: 0x8, addend: 0x0, symName: '__ZNKSt3__110__function6__funcIZ18whisper_init_stateE3$_0NS_9allocatorIS2_EEFP11ggml_cgraphvEE7__cloneEPNS0_6__baseIS7_EE', symObjAddr: 0x34F64, symBinAddr: 0x35C8C, symSize: 0x18 }
  - { offset: 0x170D52, size: 0x8, addend: 0x0, symName: '__ZNKSt3__110__function6__funcIZ18whisper_init_stateE3$_0NS_9allocatorIS2_EEFP11ggml_cgraphvEE7__cloneEPNS0_6__baseIS7_EE', symObjAddr: 0x34F64, symBinAddr: 0x35C8C, symSize: 0x18 }
  - { offset: 0x170D7A, size: 0x8, addend: 0x0, symName: '__ZNKSt3__110__function6__funcIZ18whisper_init_stateE3$_0NS_9allocatorIS2_EEFP11ggml_cgraphvEE7__cloneEPNS0_6__baseIS7_EE', symObjAddr: 0x34F64, symBinAddr: 0x35C8C, symSize: 0x18 }
  - { offset: 0x170E74, size: 0x8, addend: 0x0, symName: '__ZNSt3__110__function6__funcIZ18whisper_init_stateE3$_0NS_9allocatorIS2_EEFP11ggml_cgraphvEE7destroyEv', symObjAddr: 0x34F7C, symBinAddr: 0x35CA4, symSize: 0x4 }
  - { offset: 0x170EC3, size: 0x8, addend: 0x0, symName: '__ZNSt3__110__function6__funcIZ18whisper_init_stateE3$_0NS_9allocatorIS2_EEFP11ggml_cgraphvEE18destroy_deallocateEv', symObjAddr: 0x34F80, symBinAddr: 0x35CA8, symSize: 0x4 }
  - { offset: 0x170EF9, size: 0x8, addend: 0x0, symName: '__ZNSt3__110__function6__funcIZ18whisper_init_stateE3$_0NS_9allocatorIS2_EEFP11ggml_cgraphvEE18destroy_deallocateEv', symObjAddr: 0x34F80, symBinAddr: 0x35CA8, symSize: 0x4 }
  - { offset: 0x170F1E, size: 0x8, addend: 0x0, symName: '__ZNSt3__110__function6__funcIZ18whisper_init_stateE3$_0NS_9allocatorIS2_EEFP11ggml_cgraphvEE18destroy_deallocateEv', symObjAddr: 0x34F80, symBinAddr: 0x35CA8, symSize: 0x4 }
  - { offset: 0x170F4D, size: 0x8, addend: 0x0, symName: '__ZNSt3__110__function6__funcIZ18whisper_init_stateE3$_0NS_9allocatorIS2_EEFP11ggml_cgraphvEE18destroy_deallocateEv', symObjAddr: 0x34F80, symBinAddr: 0x35CA8, symSize: 0x4 }
  - { offset: 0x170F76, size: 0x8, addend: 0x0, symName: '__ZNSt3__110__function6__funcIZ18whisper_init_stateE3$_0NS_9allocatorIS2_EEFP11ggml_cgraphvEE18destroy_deallocateEv', symObjAddr: 0x34F80, symBinAddr: 0x35CA8, symSize: 0x4 }
  - { offset: 0x170FF5, size: 0x8, addend: 0x0, symName: '__ZNSt3__110__function6__funcIZ18whisper_init_stateE3$_0NS_9allocatorIS2_EEFP11ggml_cgraphvEEclEv', symObjAddr: 0x34F84, symBinAddr: 0x35CAC, symSize: 0x10 }
  - { offset: 0x171082, size: 0x8, addend: 0x0, symName: '__ZNKSt3__110__function6__funcIZ18whisper_init_stateE3$_0NS_9allocatorIS2_EEFP11ggml_cgraphvEE6targetERKSt9type_info', symObjAddr: 0x34F94, symBinAddr: 0x35CBC, symSize: 0x64 }
  - { offset: 0x171140, size: 0x8, addend: 0x0, symName: '__ZNKSt3__110__function6__funcIZ18whisper_init_stateE3$_0NS_9allocatorIS2_EEFP11ggml_cgraphvEE11target_typeEv', symObjAddr: 0x34FF8, symBinAddr: 0x35D20, symSize: 0xC }
  - { offset: 0x171163, size: 0x8, addend: 0x0, symName: '__ZNSt3__110__function6__funcIZ18whisper_init_stateE3$_1NS_9allocatorIS2_EEFP11ggml_cgraphvEED1Ev', symObjAddr: 0x35004, symBinAddr: 0x35D2C, symSize: 0x4 }
  - { offset: 0x17118E, size: 0x8, addend: 0x0, symName: '__ZNSt3__110__function6__funcIZ18whisper_init_stateE3$_1NS_9allocatorIS2_EEFP11ggml_cgraphvEED0Ev', symObjAddr: 0x35008, symBinAddr: 0x35D30, symSize: 0x4 }
  - { offset: 0x171392, size: 0x8, addend: 0x0, symName: '__ZNKSt3__110__function6__funcIZ18whisper_init_stateE3$_1NS_9allocatorIS2_EEFP11ggml_cgraphvEE7__cloneEv', symObjAddr: 0x3500C, symBinAddr: 0x35D34, symSize: 0x38 }
  - { offset: 0x1716CF, size: 0x8, addend: 0x0, symName: '__ZNKSt3__110__function6__funcIZ18whisper_init_stateE3$_1NS_9allocatorIS2_EEFP11ggml_cgraphvEE7__cloneEPNS0_6__baseIS7_EE', symObjAddr: 0x35044, symBinAddr: 0x35D6C, symSize: 0x18 }
  - { offset: 0x171706, size: 0x8, addend: 0x0, symName: '__ZNKSt3__110__function6__funcIZ18whisper_init_stateE3$_1NS_9allocatorIS2_EEFP11ggml_cgraphvEE7__cloneEPNS0_6__baseIS7_EE', symObjAddr: 0x35044, symBinAddr: 0x35D6C, symSize: 0x18 }
  - { offset: 0x17172E, size: 0x8, addend: 0x0, symName: '__ZNKSt3__110__function6__funcIZ18whisper_init_stateE3$_1NS_9allocatorIS2_EEFP11ggml_cgraphvEE7__cloneEPNS0_6__baseIS7_EE', symObjAddr: 0x35044, symBinAddr: 0x35D6C, symSize: 0x18 }
  - { offset: 0x171828, size: 0x8, addend: 0x0, symName: '__ZNSt3__110__function6__funcIZ18whisper_init_stateE3$_1NS_9allocatorIS2_EEFP11ggml_cgraphvEE7destroyEv', symObjAddr: 0x3505C, symBinAddr: 0x35D84, symSize: 0x4 }
  - { offset: 0x171877, size: 0x8, addend: 0x0, symName: '__ZNSt3__110__function6__funcIZ18whisper_init_stateE3$_1NS_9allocatorIS2_EEFP11ggml_cgraphvEE18destroy_deallocateEv', symObjAddr: 0x35060, symBinAddr: 0x35D88, symSize: 0x4 }
  - { offset: 0x1718AD, size: 0x8, addend: 0x0, symName: '__ZNSt3__110__function6__funcIZ18whisper_init_stateE3$_1NS_9allocatorIS2_EEFP11ggml_cgraphvEE18destroy_deallocateEv', symObjAddr: 0x35060, symBinAddr: 0x35D88, symSize: 0x4 }
  - { offset: 0x1718D2, size: 0x8, addend: 0x0, symName: '__ZNSt3__110__function6__funcIZ18whisper_init_stateE3$_1NS_9allocatorIS2_EEFP11ggml_cgraphvEE18destroy_deallocateEv', symObjAddr: 0x35060, symBinAddr: 0x35D88, symSize: 0x4 }
  - { offset: 0x171901, size: 0x8, addend: 0x0, symName: '__ZNSt3__110__function6__funcIZ18whisper_init_stateE3$_1NS_9allocatorIS2_EEFP11ggml_cgraphvEE18destroy_deallocateEv', symObjAddr: 0x35060, symBinAddr: 0x35D88, symSize: 0x4 }
  - { offset: 0x17192A, size: 0x8, addend: 0x0, symName: '__ZNSt3__110__function6__funcIZ18whisper_init_stateE3$_1NS_9allocatorIS2_EEFP11ggml_cgraphvEE18destroy_deallocateEv', symObjAddr: 0x35060, symBinAddr: 0x35D88, symSize: 0x4 }
  - { offset: 0x1719A9, size: 0x8, addend: 0x0, symName: '__ZNSt3__110__function6__funcIZ18whisper_init_stateE3$_1NS_9allocatorIS2_EEFP11ggml_cgraphvEEclEv', symObjAddr: 0x35064, symBinAddr: 0x35D8C, symSize: 0x10 }
  - { offset: 0x171A36, size: 0x8, addend: 0x0, symName: '__ZNKSt3__110__function6__funcIZ18whisper_init_stateE3$_1NS_9allocatorIS2_EEFP11ggml_cgraphvEE6targetERKSt9type_info', symObjAddr: 0x35074, symBinAddr: 0x35D9C, symSize: 0x64 }
  - { offset: 0x171AF4, size: 0x8, addend: 0x0, symName: '__ZNKSt3__110__function6__funcIZ18whisper_init_stateE3$_1NS_9allocatorIS2_EEFP11ggml_cgraphvEE11target_typeEv', symObjAddr: 0x350D8, symBinAddr: 0x35E00, symSize: 0xC }
  - { offset: 0x171B17, size: 0x8, addend: 0x0, symName: '__ZNSt3__110__function6__funcIZ18whisper_init_stateE3$_2NS_9allocatorIS2_EEFP11ggml_cgraphvEED1Ev', symObjAddr: 0x350E4, symBinAddr: 0x35E0C, symSize: 0x4 }
  - { offset: 0x171B42, size: 0x8, addend: 0x0, symName: '__ZNSt3__110__function6__funcIZ18whisper_init_stateE3$_2NS_9allocatorIS2_EEFP11ggml_cgraphvEED0Ev', symObjAddr: 0x350E8, symBinAddr: 0x35E10, symSize: 0x4 }
  - { offset: 0x171D46, size: 0x8, addend: 0x0, symName: '__ZNKSt3__110__function6__funcIZ18whisper_init_stateE3$_2NS_9allocatorIS2_EEFP11ggml_cgraphvEE7__cloneEv', symObjAddr: 0x350EC, symBinAddr: 0x35E14, symSize: 0x38 }
  - { offset: 0x172083, size: 0x8, addend: 0x0, symName: '__ZNKSt3__110__function6__funcIZ18whisper_init_stateE3$_2NS_9allocatorIS2_EEFP11ggml_cgraphvEE7__cloneEPNS0_6__baseIS7_EE', symObjAddr: 0x35124, symBinAddr: 0x35E4C, symSize: 0x18 }
  - { offset: 0x1720BA, size: 0x8, addend: 0x0, symName: '__ZNKSt3__110__function6__funcIZ18whisper_init_stateE3$_2NS_9allocatorIS2_EEFP11ggml_cgraphvEE7__cloneEPNS0_6__baseIS7_EE', symObjAddr: 0x35124, symBinAddr: 0x35E4C, symSize: 0x18 }
  - { offset: 0x1720E2, size: 0x8, addend: 0x0, symName: '__ZNKSt3__110__function6__funcIZ18whisper_init_stateE3$_2NS_9allocatorIS2_EEFP11ggml_cgraphvEE7__cloneEPNS0_6__baseIS7_EE', symObjAddr: 0x35124, symBinAddr: 0x35E4C, symSize: 0x18 }
  - { offset: 0x1721DC, size: 0x8, addend: 0x0, symName: '__ZNSt3__110__function6__funcIZ18whisper_init_stateE3$_2NS_9allocatorIS2_EEFP11ggml_cgraphvEE7destroyEv', symObjAddr: 0x3513C, symBinAddr: 0x35E64, symSize: 0x4 }
  - { offset: 0x17222B, size: 0x8, addend: 0x0, symName: '__ZNSt3__110__function6__funcIZ18whisper_init_stateE3$_2NS_9allocatorIS2_EEFP11ggml_cgraphvEE18destroy_deallocateEv', symObjAddr: 0x35140, symBinAddr: 0x35E68, symSize: 0x4 }
  - { offset: 0x172261, size: 0x8, addend: 0x0, symName: '__ZNSt3__110__function6__funcIZ18whisper_init_stateE3$_2NS_9allocatorIS2_EEFP11ggml_cgraphvEE18destroy_deallocateEv', symObjAddr: 0x35140, symBinAddr: 0x35E68, symSize: 0x4 }
  - { offset: 0x172286, size: 0x8, addend: 0x0, symName: '__ZNSt3__110__function6__funcIZ18whisper_init_stateE3$_2NS_9allocatorIS2_EEFP11ggml_cgraphvEE18destroy_deallocateEv', symObjAddr: 0x35140, symBinAddr: 0x35E68, symSize: 0x4 }
  - { offset: 0x1722B5, size: 0x8, addend: 0x0, symName: '__ZNSt3__110__function6__funcIZ18whisper_init_stateE3$_2NS_9allocatorIS2_EEFP11ggml_cgraphvEE18destroy_deallocateEv', symObjAddr: 0x35140, symBinAddr: 0x35E68, symSize: 0x4 }
  - { offset: 0x1722DE, size: 0x8, addend: 0x0, symName: '__ZNSt3__110__function6__funcIZ18whisper_init_stateE3$_2NS_9allocatorIS2_EEFP11ggml_cgraphvEE18destroy_deallocateEv', symObjAddr: 0x35140, symBinAddr: 0x35E68, symSize: 0x4 }
  - { offset: 0x17235D, size: 0x8, addend: 0x0, symName: '__ZNSt3__110__function6__funcIZ18whisper_init_stateE3$_2NS_9allocatorIS2_EEFP11ggml_cgraphvEEclEv', symObjAddr: 0x35144, symBinAddr: 0x35E6C, symSize: 0x10 }
  - { offset: 0x1723EA, size: 0x8, addend: 0x0, symName: '__ZNKSt3__110__function6__funcIZ18whisper_init_stateE3$_2NS_9allocatorIS2_EEFP11ggml_cgraphvEE6targetERKSt9type_info', symObjAddr: 0x35154, symBinAddr: 0x35E7C, symSize: 0x64 }
  - { offset: 0x1724A8, size: 0x8, addend: 0x0, symName: '__ZNKSt3__110__function6__funcIZ18whisper_init_stateE3$_2NS_9allocatorIS2_EEFP11ggml_cgraphvEE11target_typeEv', symObjAddr: 0x351B8, symBinAddr: 0x35EE0, symSize: 0xC }
  - { offset: 0x1724CB, size: 0x8, addend: 0x0, symName: '__ZNSt3__110__function6__funcIZ18whisper_init_stateE3$_3NS_9allocatorIS2_EEFP11ggml_cgraphvEED1Ev', symObjAddr: 0x351C4, symBinAddr: 0x35EEC, symSize: 0x4 }
  - { offset: 0x1724F6, size: 0x8, addend: 0x0, symName: '__ZNSt3__110__function6__funcIZ18whisper_init_stateE3$_3NS_9allocatorIS2_EEFP11ggml_cgraphvEED0Ev', symObjAddr: 0x351C8, symBinAddr: 0x35EF0, symSize: 0x4 }
  - { offset: 0x1726FA, size: 0x8, addend: 0x0, symName: '__ZNKSt3__110__function6__funcIZ18whisper_init_stateE3$_3NS_9allocatorIS2_EEFP11ggml_cgraphvEE7__cloneEv', symObjAddr: 0x351CC, symBinAddr: 0x35EF4, symSize: 0x38 }
  - { offset: 0x172A37, size: 0x8, addend: 0x0, symName: '__ZNKSt3__110__function6__funcIZ18whisper_init_stateE3$_3NS_9allocatorIS2_EEFP11ggml_cgraphvEE7__cloneEPNS0_6__baseIS7_EE', symObjAddr: 0x35204, symBinAddr: 0x35F2C, symSize: 0x18 }
  - { offset: 0x172A6E, size: 0x8, addend: 0x0, symName: '__ZNKSt3__110__function6__funcIZ18whisper_init_stateE3$_3NS_9allocatorIS2_EEFP11ggml_cgraphvEE7__cloneEPNS0_6__baseIS7_EE', symObjAddr: 0x35204, symBinAddr: 0x35F2C, symSize: 0x18 }
  - { offset: 0x172A96, size: 0x8, addend: 0x0, symName: '__ZNKSt3__110__function6__funcIZ18whisper_init_stateE3$_3NS_9allocatorIS2_EEFP11ggml_cgraphvEE7__cloneEPNS0_6__baseIS7_EE', symObjAddr: 0x35204, symBinAddr: 0x35F2C, symSize: 0x18 }
  - { offset: 0x172B90, size: 0x8, addend: 0x0, symName: '__ZNSt3__110__function6__funcIZ18whisper_init_stateE3$_3NS_9allocatorIS2_EEFP11ggml_cgraphvEE7destroyEv', symObjAddr: 0x3521C, symBinAddr: 0x35F44, symSize: 0x4 }
  - { offset: 0x172BDF, size: 0x8, addend: 0x0, symName: '__ZNSt3__110__function6__funcIZ18whisper_init_stateE3$_3NS_9allocatorIS2_EEFP11ggml_cgraphvEE18destroy_deallocateEv', symObjAddr: 0x35220, symBinAddr: 0x35F48, symSize: 0x4 }
  - { offset: 0x172C15, size: 0x8, addend: 0x0, symName: '__ZNSt3__110__function6__funcIZ18whisper_init_stateE3$_3NS_9allocatorIS2_EEFP11ggml_cgraphvEE18destroy_deallocateEv', symObjAddr: 0x35220, symBinAddr: 0x35F48, symSize: 0x4 }
  - { offset: 0x172C3A, size: 0x8, addend: 0x0, symName: '__ZNSt3__110__function6__funcIZ18whisper_init_stateE3$_3NS_9allocatorIS2_EEFP11ggml_cgraphvEE18destroy_deallocateEv', symObjAddr: 0x35220, symBinAddr: 0x35F48, symSize: 0x4 }
  - { offset: 0x172C69, size: 0x8, addend: 0x0, symName: '__ZNSt3__110__function6__funcIZ18whisper_init_stateE3$_3NS_9allocatorIS2_EEFP11ggml_cgraphvEE18destroy_deallocateEv', symObjAddr: 0x35220, symBinAddr: 0x35F48, symSize: 0x4 }
  - { offset: 0x172C92, size: 0x8, addend: 0x0, symName: '__ZNSt3__110__function6__funcIZ18whisper_init_stateE3$_3NS_9allocatorIS2_EEFP11ggml_cgraphvEE18destroy_deallocateEv', symObjAddr: 0x35220, symBinAddr: 0x35F48, symSize: 0x4 }
  - { offset: 0x172D38, size: 0x8, addend: 0x0, symName: '__ZNSt3__110__function6__funcIZ18whisper_init_stateE3$_3NS_9allocatorIS2_EEFP11ggml_cgraphvEEclEv', symObjAddr: 0x35224, symBinAddr: 0x35F4C, symSize: 0x78 }
  - { offset: 0x172D62, size: 0x8, addend: 0x0, symName: '__ZNSt3__110__function6__funcIZ18whisper_init_stateE3$_3NS_9allocatorIS2_EEFP11ggml_cgraphvEEclEv', symObjAddr: 0x35224, symBinAddr: 0x35F4C, symSize: 0x78 }
  - { offset: 0x172D82, size: 0x8, addend: 0x0, symName: '__ZNSt3__110__function6__funcIZ18whisper_init_stateE3$_3NS_9allocatorIS2_EEFP11ggml_cgraphvEEclEv', symObjAddr: 0x35224, symBinAddr: 0x35F4C, symSize: 0x78 }
  - { offset: 0x172DA1, size: 0x8, addend: 0x0, symName: '__ZNSt3__110__function6__funcIZ18whisper_init_stateE3$_3NS_9allocatorIS2_EEFP11ggml_cgraphvEEclEv', symObjAddr: 0x35224, symBinAddr: 0x35F4C, symSize: 0x78 }
  - { offset: 0x172DC0, size: 0x8, addend: 0x0, symName: '__ZNSt3__110__function6__funcIZ18whisper_init_stateE3$_3NS_9allocatorIS2_EEFP11ggml_cgraphvEEclEv', symObjAddr: 0x35224, symBinAddr: 0x35F4C, symSize: 0x78 }
  - { offset: 0x172E6C, size: 0x8, addend: 0x0, symName: '__ZNKSt3__110__function6__funcIZ18whisper_init_stateE3$_3NS_9allocatorIS2_EEFP11ggml_cgraphvEE6targetERKSt9type_info', symObjAddr: 0x3529C, symBinAddr: 0x35FC4, symSize: 0x64 }
  - { offset: 0x172F2A, size: 0x8, addend: 0x0, symName: '__ZNKSt3__110__function6__funcIZ18whisper_init_stateE3$_3NS_9allocatorIS2_EEFP11ggml_cgraphvEE11target_typeEv', symObjAddr: 0x35300, symBinAddr: 0x36028, symSize: 0xC }
  - { offset: 0x173286, size: 0x8, addend: 0x0, symName: __ZNKSt3__16vectorI19whisper_vad_segmentNS_9allocatorIS1_EEE20__throw_length_errorB8ne190102Ev, symObjAddr: 0x36820, symBinAddr: 0x37548, symSize: 0x14 }
  - { offset: 0x1732B0, size: 0x8, addend: 0x0, symName: __ZNSt3__16vectorI18whisper_token_dataNS_9allocatorIS1_EEE8__appendEm, symObjAddr: 0x36834, symBinAddr: 0x3755C, symSize: 0x1A8 }
  - { offset: 0x17350F, size: 0x8, addend: 0x0, symName: __ZNKSt3__16vectorI15whisper_segmentNS_9allocatorIS1_EEE20__throw_length_errorB8ne190102Ev, symObjAddr: 0x36BA4, symBinAddr: 0x378CC, symSize: 0x14 }
  - { offset: 0x173539, size: 0x8, addend: 0x0, symName: __ZNSt3__16vectorINS_12basic_stringIcNS_11char_traitsIcEENS_9allocatorIcEEEENS4_IS6_EEEC2B8ne190102ESt16initializer_listIS6_E, symObjAddr: 0x36BB8, symBinAddr: 0x378E0, symSize: 0x12C }
  - { offset: 0x173639, size: 0x8, addend: 0x0, symName: __ZNSt3__16vectorINS_12basic_stringIcNS_11char_traitsIcEENS_9allocatorIcEEEENS4_IS6_EEEC2B8ne190102ESt16initializer_listIS6_E, symObjAddr: 0x36BB8, symBinAddr: 0x378E0, symSize: 0x12C }
  - { offset: 0x173A09, size: 0x8, addend: 0x0, symName: __ZNSt3__128__exception_guard_exceptionsINS_6vectorINS_12basic_stringIcNS_11char_traitsIcEENS_9allocatorIcEEEENS5_IS7_EEE16__destroy_vectorEED1B8ne190102Ev, symObjAddr: 0x36CE4, symBinAddr: 0x37A0C, symSize: 0x80 }
  - { offset: 0x173CBE, size: 0x8, addend: 0x0, symName: __ZNSt3__128__exception_guard_exceptionsINS_29_AllocatorDestroyRangeReverseINS_9allocatorINS_12basic_stringIcNS_11char_traitsIcEENS2_IcEEEEEEPS7_EEED1B8ne190102Ev, symObjAddr: 0x36D64, symBinAddr: 0x37A8C, symSize: 0x5C }
  - { offset: 0x1750C9, size: 0x8, addend: 0x0, symName: __ZNSt3__110unique_ptrINS_5tupleIJNS0_INS_15__thread_structENS_14default_deleteIS2_EEEEPFiP15whisper_contextP13whisper_state19whisper_full_paramsPKfiES7_S9_SA_SC_iEEENS3_ISF_EEED1B8ne190102Ev, symObjAddr: 0x39F08, symBinAddr: 0x3AC30, symSize: 0x48 }
  - { offset: 0x175E4F, size: 0x8, addend: 0x0, symName: __GLOBAL__sub_I_whisper.cpp, symObjAddr: 0x3C468, symBinAddr: 0x3AE34, symSize: 0x2200 }
  - { offset: 0x180A5F, size: 0x8, addend: 0x0, symName: _OUTLINED_FUNCTION_0, symObjAddr: 0x3A440, symBinAddr: 0x3ADE0, symSize: 0x18 }
  - { offset: 0x180A77, size: 0x8, addend: 0x0, symName: _OUTLINED_FUNCTION_1, symObjAddr: 0x3A458, symBinAddr: 0x3ADF8, symSize: 0x8 }
  - { offset: 0x180A8F, size: 0x8, addend: 0x0, symName: _OUTLINED_FUNCTION_2, symObjAddr: 0x3A460, symBinAddr: 0x3AE00, symSize: 0xC }
  - { offset: 0x180AA7, size: 0x8, addend: 0x0, symName: _OUTLINED_FUNCTION_3, symObjAddr: 0x3A46C, symBinAddr: 0x3AE0C, symSize: 0x8 }
  - { offset: 0x180ABF, size: 0x8, addend: 0x0, symName: _OUTLINED_FUNCTION_4, symObjAddr: 0x3A474, symBinAddr: 0x3AE14, symSize: 0x8 }
  - { offset: 0x180AD7, size: 0x8, addend: 0x0, symName: _OUTLINED_FUNCTION_5, symObjAddr: 0x3A47C, symBinAddr: 0x3AE1C, symSize: 0x8 }
  - { offset: 0x180AEF, size: 0x8, addend: 0x0, symName: _OUTLINED_FUNCTION_6, symObjAddr: 0x3A484, symBinAddr: 0x3AE24, symSize: 0x8 }
  - { offset: 0x180B07, size: 0x8, addend: 0x0, symName: _OUTLINED_FUNCTION_7, symObjAddr: 0x3A48C, symBinAddr: 0x3AE2C, symSize: 0x8 }
  - { offset: 0x187EE9, size: 0x8, addend: 0x0, symName: __ZNSt3__14__fs10filesystemdvB8ne190102ERKNS1_4pathES4_, symObjAddr: 0x2EA0, symBinAddr: 0x3FD88, symSize: 0xC0 }
  - { offset: 0x197731, size: 0x8, addend: 0x0, symName: _ggml_backend_register, symObjAddr: 0x0, symBinAddr: 0x3D034, symSize: 0xD0 }
  - { offset: 0x197910, size: 0x8, addend: 0x0, symName: __ZN21ggml_backend_registry16register_backendEP16ggml_backend_regNSt3__110unique_ptrIv17dl_handle_deleterEE, symObjAddr: 0xD0, symBinAddr: 0x3D104, symSize: 0x198 }
  - { offset: 0x197FAE, size: 0x8, addend: 0x0, symName: __ZN21ggml_backend_registryC2Ev, symObjAddr: 0x2898, symBinAddr: 0x3F8CC, symSize: 0x104 }
  - { offset: 0x1985DF, size: 0x8, addend: 0x0, symName: __ZNSt3__110unique_ptrIv17dl_handle_deleterED1B8ne190102Ev, symObjAddr: 0x268, symBinAddr: 0x3D29C, symSize: 0x34 }
  - { offset: 0x198BE4, size: 0x8, addend: 0x0, symName: __ZNSt3__16vectorI22ggml_backend_reg_entryNS_9allocatorIS1_EEE21__push_back_slow_pathIS1_EEPS1_OT_, symObjAddr: 0x2AFC, symBinAddr: 0x3FB20, symSize: 0x1E4 }
  - { offset: 0x199313, size: 0x8, addend: 0x0, symName: __ZNKSt3__16vectorIP19ggml_backend_deviceNS_9allocatorIS2_EEE20__throw_length_errorB8ne190102Ev, symObjAddr: 0x2D90, symBinAddr: 0x3FD18, symSize: 0x14 }
  - { offset: 0x199348, size: 0x8, addend: 0x0, symName: __ZN22ggml_backend_reg_entryD1Ev, symObjAddr: 0x2A20, symBinAddr: 0x3FA44, symSize: 0x34 }
  - { offset: 0x199418, size: 0x8, addend: 0x0, symName: _ggml_backend_device_register, symObjAddr: 0x29C, symBinAddr: 0x3D2D0, symSize: 0x160 }
  - { offset: 0x199837, size: 0x8, addend: 0x0, symName: _ggml_backend_reg_count, symObjAddr: 0x3FC, symBinAddr: 0x3D430, symSize: 0x98 }
  - { offset: 0x1998DB, size: 0x8, addend: 0x0, symName: _ggml_backend_reg_get, symObjAddr: 0x494, symBinAddr: 0x3D4C8, symSize: 0x148 }
  - { offset: 0x199A4D, size: 0x8, addend: 0x0, symName: _ggml_backend_reg_by_name, symObjAddr: 0x5DC, symBinAddr: 0x3D610, symSize: 0x134 }
  - { offset: 0x199BEE, size: 0x8, addend: 0x0, symName: _ggml_backend_dev_count, symObjAddr: 0x710, symBinAddr: 0x3D744, symSize: 0x98 }
  - { offset: 0x199C87, size: 0x8, addend: 0x0, symName: _ggml_backend_dev_get, symObjAddr: 0x7A8, symBinAddr: 0x3D7DC, symSize: 0x144 }
  - { offset: 0x199D8B, size: 0x8, addend: 0x0, symName: _ggml_backend_dev_by_name, symObjAddr: 0x8EC, symBinAddr: 0x3D920, symSize: 0x138 }
  - { offset: 0x199F0B, size: 0x8, addend: 0x0, symName: _ggml_backend_dev_by_type, symObjAddr: 0xA24, symBinAddr: 0x3DA58, symSize: 0xE8 }
  - { offset: 0x19A01A, size: 0x8, addend: 0x0, symName: _ggml_backend_init_by_name, symObjAddr: 0xB0C, symBinAddr: 0x3DB40, symSize: 0x34 }
  - { offset: 0x19A0A5, size: 0x8, addend: 0x0, symName: _ggml_backend_init_by_type, symObjAddr: 0xB40, symBinAddr: 0x3DB74, symSize: 0x34 }
  - { offset: 0x19A119, size: 0x8, addend: 0x0, symName: _ggml_backend_init_best, symObjAddr: 0xB74, symBinAddr: 0x3DBA8, symSize: 0x30 }
  - { offset: 0x19A479, size: 0x8, addend: 0x0, symName: _ggml_backend_load, symObjAddr: 0xBA4, symBinAddr: 0x3DBD8, symSize: 0x110 }
  - { offset: 0x19A7C2, size: 0x8, addend: 0x0, symName: __ZNSt3__112basic_stringIcNS_11char_traitsIcEENS_9allocatorIcEEE6appendB8ne190102IPKcLi0EEERS5_T_SA_, symObjAddr: 0x2FD0, symBinAddr: 0x3FEB8, symSize: 0x20C }
  - { offset: 0x19B1A2, size: 0x8, addend: 0x0, symName: __ZN21ggml_backend_registry12load_backendERKNSt3__14__fs10filesystem4pathEb, symObjAddr: 0xCB4, symBinAddr: 0x3DCE8, symSize: 0x548 }
  - { offset: 0x19CF3F, size: 0x8, addend: 0x0, symName: _ggml_backend_unload, symObjAddr: 0x11FC, symBinAddr: 0x3E230, symSize: 0x98 }
  - { offset: 0x19CFBB, size: 0x8, addend: 0x0, symName: __ZN21ggml_backend_registry14unload_backendEP16ggml_backend_regb, symObjAddr: 0x1294, symBinAddr: 0x3E2C8, symSize: 0x1D4 }
  - { offset: 0x19DADD, size: 0x8, addend: 0x0, symName: _ggml_backend_load_all, symObjAddr: 0x1468, symBinAddr: 0x3E49C, symSize: 0x8 }
  - { offset: 0x19DB0A, size: 0x8, addend: 0x0, symName: _ggml_backend_load_all_from_path, symObjAddr: 0x1470, symBinAddr: 0x3E4A4, symSize: 0xF8 }
  - { offset: 0x19DC76, size: 0x8, addend: 0x0, symName: __ZL22ggml_backend_load_bestPKcbS0_, symObjAddr: 0x1568, symBinAddr: 0x3E59C, symSize: 0x132C }
  - { offset: 0x1A619A, size: 0x8, addend: 0x0, symName: __ZNSt3__16vectorINS_4__fs10filesystem4pathENS_9allocatorIS3_EEE21__push_back_slow_pathIS3_EEPS3_OT_, symObjAddr: 0x31DC, symBinAddr: 0x400C4, symSize: 0x154 }
  - { offset: 0x1A68EF, size: 0x8, addend: 0x0, symName: __ZNKSt3__16vectorINS_4__fs10filesystem4pathENS_9allocatorIS3_EEE20__throw_length_errorB8ne190102Ev, symObjAddr: 0x3330, symBinAddr: 0x40218, symSize: 0x14 }
  - { offset: 0x1A6970, size: 0x8, addend: 0x0, symName: __ZNSt3__14__fs10filesystem18directory_iteratorD1B8ne190102Ev, symObjAddr: 0x2E44, symBinAddr: 0x3FD2C, symSize: 0x5C }
  - { offset: 0x1A697B, size: 0x8, addend: 0x0, symName: __ZNSt3__14__fs10filesystem18directory_iteratorD1B8ne190102Ev, symObjAddr: 0x2E44, symBinAddr: 0x3FD2C, symSize: 0x5C }
  - { offset: 0x1A6A4A, size: 0x8, addend: 0x0, symName: __ZNSt3__16vectorINS_4__fs10filesystem4pathENS_9allocatorIS3_EEED1B8ne190102Ev, symObjAddr: 0x2F60, symBinAddr: 0x3FE48, symSize: 0x70 }
  - { offset: 0x1A6D23, size: 0x8, addend: 0x0, symName: __ZN21ggml_backend_registryD1Ev, symObjAddr: 0x2894, symBinAddr: 0x3F8C8, symSize: 0x4 }
  - { offset: 0x1A6D4F, size: 0x8, addend: 0x0, symName: __ZN21ggml_backend_registryD1Ev, symObjAddr: 0x2894, symBinAddr: 0x3F8C8, symSize: 0x4 }
  - { offset: 0x1A6D63, size: 0x8, addend: 0x0, symName: __ZN21ggml_backend_registryD2Ev, symObjAddr: 0x2A54, symBinAddr: 0x3FA78, symSize: 0xA8 }
  - { offset: 0x1A727A, size: 0x8, addend: 0x0, symName: __ZNSt3__16vectorI22ggml_backend_reg_entryNS_9allocatorIS1_EEED1B8ne190102Ev, symObjAddr: 0x299C, symBinAddr: 0x3F9D0, symSize: 0x74 }
  - { offset: 0x1A76D2, size: 0x8, addend: 0x0, symName: __ZNKSt3__16vectorI22ggml_backend_reg_entryNS_9allocatorIS1_EEE20__throw_length_errorB8ne190102Ev, symObjAddr: 0x2CE0, symBinAddr: 0x3FD04, symSize: 0x14 }
  - { offset: 0x1A7C8D, size: 0x8, addend: 0x0, symName: __ZNKSt3__16vectorINS_4__fs10filesystem4pathENS_9allocatorIS3_EEE20__throw_length_errorB8ne190102Ev, symObjAddr: 0x3330, symBinAddr: 0x40218, symSize: 0x14 }
  - { offset: 0x1A9B82, size: 0x8, addend: 0x0, symName: _ggml_tallocr_new, symObjAddr: 0x0, symBinAddr: 0x4022C, symSize: 0x58 }
  - { offset: 0x1AAD05, size: 0x8, addend: 0x0, symName: _ggml_tallocr_new, symObjAddr: 0x0, symBinAddr: 0x4022C, symSize: 0x58 }
  - { offset: 0x1AADBB, size: 0x8, addend: 0x0, symName: _ggml_tallocr_alloc, symObjAddr: 0x58, symBinAddr: 0x40284, symSize: 0xD0 }
  - { offset: 0x1AAE79, size: 0x8, addend: 0x0, symName: _ggml_gallocr_new_n, symObjAddr: 0x128, symBinAddr: 0x40354, symSize: 0x1F0 }
  - { offset: 0x1AAF4C, size: 0x8, addend: 0x0, symName: _ggml_gallocr_new_n, symObjAddr: 0x128, symBinAddr: 0x40354, symSize: 0x1F0 }
  - { offset: 0x1AB11A, size: 0x8, addend: 0x0, symName: _ggml_gallocr_new, symObjAddr: 0x318, symBinAddr: 0x40544, symSize: 0x28 }
  - { offset: 0x1AB16D, size: 0x8, addend: 0x0, symName: _ggml_gallocr_new, symObjAddr: 0x318, symBinAddr: 0x40544, symSize: 0x28 }
  - { offset: 0x1AB1CE, size: 0x8, addend: 0x0, symName: _ggml_gallocr_free, symObjAddr: 0x340, symBinAddr: 0x4056C, symSize: 0xF4 }
  - { offset: 0x1AB70A, size: 0x8, addend: 0x0, symName: _ggml_gallocr_reserve_n, symObjAddr: 0x434, symBinAddr: 0x40660, symSize: 0xD24 }
  - { offset: 0x1AC5BD, size: 0x8, addend: 0x0, symName: _ggml_gallocr_hash_get, symObjAddr: 0x1158, symBinAddr: 0x41384, symSize: 0x90 }
  - { offset: 0x1AC5F3, size: 0x8, addend: 0x0, symName: _ggml_gallocr_allocate_node, symObjAddr: 0x1B90, symBinAddr: 0x41DBC, symSize: 0x54C }
  - { offset: 0x1ACC54, size: 0x8, addend: 0x0, symName: _ggml_gallocr_hash_get, symObjAddr: 0x1158, symBinAddr: 0x41384, symSize: 0x90 }
  - { offset: 0x1ACD46, size: 0x8, addend: 0x0, symName: _ggml_gallocr_reserve, symObjAddr: 0x11E8, symBinAddr: 0x41414, symSize: 0xC }
  - { offset: 0x1ACEDA, size: 0x8, addend: 0x0, symName: _ggml_gallocr_alloc_graph, symObjAddr: 0x11F4, symBinAddr: 0x41420, symSize: 0x568 }
  - { offset: 0x1AD3A1, size: 0x8, addend: 0x0, symName: _ggml_gallocr_get_buffer_size, symObjAddr: 0x175C, symBinAddr: 0x41988, symSize: 0x88 }
  - { offset: 0x1AD408, size: 0x8, addend: 0x0, symName: _ggml_backend_alloc_ctx_tensors_from_buft, symObjAddr: 0x17E4, symBinAddr: 0x41A10, symSize: 0x1A8 }
  - { offset: 0x1AD41C, size: 0x8, addend: 0x0, symName: _ggml_backend_alloc_ctx_tensors_from_buft, symObjAddr: 0x17E4, symBinAddr: 0x41A10, symSize: 0x1A8 }
  - { offset: 0x1AD652, size: 0x8, addend: 0x0, symName: _alloc_tensor_range, symObjAddr: 0x198C, symBinAddr: 0x41BB8, symSize: 0x1D8 }
  - { offset: 0x1AD6D2, size: 0x8, addend: 0x0, symName: _alloc_tensor_range, symObjAddr: 0x198C, symBinAddr: 0x41BB8, symSize: 0x1D8 }
  - { offset: 0x1ADAC0, size: 0x8, addend: 0x0, symName: _ggml_backend_alloc_ctx_tensors, symObjAddr: 0x1B64, symBinAddr: 0x41D90, symSize: 0x2C }
  - { offset: 0x1ADCAD, size: 0x8, addend: 0x0, symName: _ggml_backend_buft_name, symObjAddr: 0x0, symBinAddr: 0x42308, symSize: 0x8 }
  - { offset: 0x1ADCCE, size: 0x8, addend: 0x0, symName: _ggml_backend_cpu_buffer_type, symObjAddr: 0x5194, symBinAddr: 0x4749C, symSize: 0xC }
  - { offset: 0x1ADCF6, size: 0x8, addend: 0x0, symName: __ZZ28ggml_backend_cpu_buffer_typeE28ggml_backend_cpu_buffer_type, symObjAddr: 0x6500, symBinAddr: 0x138390, symSize: 0x0 }
  - { offset: 0x1ADD97, size: 0x8, addend: 0x0, symName: __ZL27ggml_backend_multi_buffer_i, symObjAddr: 0x6428, symBinAddr: 0x1315E0, symSize: 0x0 }
  - { offset: 0x1ADDB7, size: 0x8, addend: 0x0, symName: __ZL25ggml_backend_cpu_buffer_i, symObjAddr: 0x64B8, symBinAddr: 0x131670, symSize: 0x0 }
  - { offset: 0x1ADDD2, size: 0x8, addend: 0x0, symName: __ZL34ggml_backend_cpu_buffer_from_ptr_i, symObjAddr: 0x6470, symBinAddr: 0x131628, symSize: 0x0 }
  - { offset: 0x1AE0A0, size: 0x8, addend: 0x0, symName: _ggml_backend_buft_name, symObjAddr: 0x0, symBinAddr: 0x42308, symSize: 0x8 }
  - { offset: 0x1AE118, size: 0x8, addend: 0x0, symName: _ggml_backend_buft_alloc_buffer, symObjAddr: 0x8, symBinAddr: 0x42310, symSize: 0x48 }
  - { offset: 0x1AE183, size: 0x8, addend: 0x0, symName: _ggml_backend_buffer_init, symObjAddr: 0x50, symBinAddr: 0x42358, symSize: 0x58 }
  - { offset: 0x1AE1CA, size: 0x8, addend: 0x0, symName: _ggml_backend_buft_get_alignment, symObjAddr: 0xA8, symBinAddr: 0x423B0, symSize: 0x8 }
  - { offset: 0x1AE1FC, size: 0x8, addend: 0x0, symName: _ggml_backend_buft_get_max_size, symObjAddr: 0xB0, symBinAddr: 0x423B8, symSize: 0x14 }
  - { offset: 0x1AE227, size: 0x8, addend: 0x0, symName: _ggml_backend_buft_get_alloc_size, symObjAddr: 0xC4, symBinAddr: 0x423CC, symSize: 0x14 }
  - { offset: 0x1AE290, size: 0x8, addend: 0x0, symName: _ggml_backend_buft_is_host, symObjAddr: 0xD8, symBinAddr: 0x423E0, symSize: 0x14 }
  - { offset: 0x1AE2BB, size: 0x8, addend: 0x0, symName: _ggml_backend_buft_get_device, symObjAddr: 0xEC, symBinAddr: 0x423F4, symSize: 0x8 }
  - { offset: 0x1AE318, size: 0x8, addend: 0x0, symName: _ggml_backend_buffer_name, symObjAddr: 0xF4, symBinAddr: 0x423FC, symSize: 0xC }
  - { offset: 0x1AE33A, size: 0x8, addend: 0x0, symName: _ggml_backend_buffer_name, symObjAddr: 0xF4, symBinAddr: 0x423FC, symSize: 0xC }
  - { offset: 0x1AE37F, size: 0x8, addend: 0x0, symName: _ggml_backend_buffer_get_type, symObjAddr: 0x100, symBinAddr: 0x42408, symSize: 0x8 }
  - { offset: 0x1AE39E, size: 0x8, addend: 0x0, symName: _ggml_backend_buffer_free, symObjAddr: 0x108, symBinAddr: 0x42410, symSize: 0x34 }
  - { offset: 0x1AE3C9, size: 0x8, addend: 0x0, symName: _ggml_backend_buffer_get_size, symObjAddr: 0x13C, symBinAddr: 0x42444, symSize: 0x8 }
  - { offset: 0x1AE3E8, size: 0x8, addend: 0x0, symName: _ggml_backend_buffer_get_base, symObjAddr: 0x144, symBinAddr: 0x4244C, symSize: 0x60 }
  - { offset: 0x1AE420, size: 0x8, addend: 0x0, symName: _ggml_backend_buffer_init_tensor, symObjAddr: 0x1A4, symBinAddr: 0x424AC, symSize: 0x14 }
  - { offset: 0x1AE44D, size: 0x8, addend: 0x0, symName: _ggml_backend_buffer_init_tensor, symObjAddr: 0x1A4, symBinAddr: 0x424AC, symSize: 0x14 }
  - { offset: 0x1AE480, size: 0x8, addend: 0x0, symName: _ggml_backend_buffer_clear, symObjAddr: 0x1B8, symBinAddr: 0x424C0, symSize: 0x14 }
  - { offset: 0x1AE4CA, size: 0x8, addend: 0x0, symName: _ggml_backend_buffer_get_alignment, symObjAddr: 0x1CC, symBinAddr: 0x424D4, symSize: 0xC }
  - { offset: 0x1AE4F8, size: 0x8, addend: 0x0, symName: _ggml_backend_buffer_get_alignment, symObjAddr: 0x1CC, symBinAddr: 0x424D4, symSize: 0xC }
  - { offset: 0x1AE556, size: 0x8, addend: 0x0, symName: _ggml_backend_buffer_get_max_size, symObjAddr: 0x1D8, symBinAddr: 0x424E0, symSize: 0x18 }
  - { offset: 0x1AE584, size: 0x8, addend: 0x0, symName: _ggml_backend_buffer_get_max_size, symObjAddr: 0x1D8, symBinAddr: 0x424E0, symSize: 0x18 }
  - { offset: 0x1AE5FC, size: 0x8, addend: 0x0, symName: _ggml_backend_buffer_get_alloc_size, symObjAddr: 0x1F0, symBinAddr: 0x424F8, symSize: 0x18 }
  - { offset: 0x1AE626, size: 0x8, addend: 0x0, symName: _ggml_backend_buffer_get_alloc_size, symObjAddr: 0x1F0, symBinAddr: 0x424F8, symSize: 0x18 }
  - { offset: 0x1AE694, size: 0x8, addend: 0x0, symName: _ggml_backend_buffer_is_host, symObjAddr: 0x208, symBinAddr: 0x42510, symSize: 0x18 }
  - { offset: 0x1AE6B6, size: 0x8, addend: 0x0, symName: _ggml_backend_buffer_is_host, symObjAddr: 0x208, symBinAddr: 0x42510, symSize: 0x18 }
  - { offset: 0x1AE756, size: 0x8, addend: 0x0, symName: _ggml_backend_buffer_set_usage, symObjAddr: 0x220, symBinAddr: 0x42528, symSize: 0x70 }
  - { offset: 0x1AE80E, size: 0x8, addend: 0x0, symName: _ggml_backend_buffer_is_multi_buffer, symObjAddr: 0x290, symBinAddr: 0x42598, symSize: 0x18 }
  - { offset: 0x1AE82D, size: 0x8, addend: 0x0, symName: _ggml_backend_multi_buffer_set_usage, symObjAddr: 0x2A8, symBinAddr: 0x425B0, symSize: 0x94 }
  - { offset: 0x1AE8B1, size: 0x8, addend: 0x0, symName: _ggml_backend_buffer_get_usage, symObjAddr: 0x33C, symBinAddr: 0x42644, symSize: 0x8 }
  - { offset: 0x1AE8C5, size: 0x8, addend: 0x0, symName: _ggml_backend_buffer_get_usage, symObjAddr: 0x33C, symBinAddr: 0x42644, symSize: 0x8 }
  - { offset: 0x1AE8F0, size: 0x8, addend: 0x0, symName: _ggml_backend_buffer_reset, symObjAddr: 0x344, symBinAddr: 0x4264C, symSize: 0x10 }
  - { offset: 0x1AE921, size: 0x8, addend: 0x0, symName: _ggml_backend_buffer_copy_tensor, symObjAddr: 0x354, symBinAddr: 0x4265C, symSize: 0x2C }
  - { offset: 0x1AE960, size: 0x8, addend: 0x0, symName: _ggml_backend_guid, symObjAddr: 0x380, symBinAddr: 0x42688, symSize: 0xC }
  - { offset: 0x1AE98B, size: 0x8, addend: 0x0, symName: _ggml_backend_name, symObjAddr: 0x38C, symBinAddr: 0x42694, symSize: 0x18 }
  - { offset: 0x1AE9B6, size: 0x8, addend: 0x0, symName: _ggml_backend_free, symObjAddr: 0x3A4, symBinAddr: 0x426AC, symSize: 0x10 }
  - { offset: 0x1AEA02, size: 0x8, addend: 0x0, symName: _ggml_backend_get_default_buffer_type, symObjAddr: 0x3B4, symBinAddr: 0x426BC, symSize: 0xC }
  - { offset: 0x1AEA4B, size: 0x8, addend: 0x0, symName: _ggml_backend_dev_buffer_type, symObjAddr: 0x3C0, symBinAddr: 0x426C8, symSize: 0x8 }
  - { offset: 0x1AEABA, size: 0x8, addend: 0x0, symName: _ggml_backend_alloc_buffer, symObjAddr: 0x3C8, symBinAddr: 0x426D0, symSize: 0x64 }
  - { offset: 0x1AEBAB, size: 0x8, addend: 0x0, symName: _ggml_backend_get_alignment, symObjAddr: 0x42C, symBinAddr: 0x42734, symSize: 0x20 }
  - { offset: 0x1AEC4A, size: 0x8, addend: 0x0, symName: _ggml_backend_get_max_size, symObjAddr: 0x44C, symBinAddr: 0x42754, symSize: 0x30 }
  - { offset: 0x1AECE9, size: 0x8, addend: 0x0, symName: _ggml_backend_tensor_set_async, symObjAddr: 0x47C, symBinAddr: 0x42784, symSize: 0xEC }
  - { offset: 0x1AED92, size: 0x8, addend: 0x0, symName: _ggml_backend_tensor_set, symObjAddr: 0x568, symBinAddr: 0x42870, symSize: 0x138 }
  - { offset: 0x1AEDA6, size: 0x8, addend: 0x0, symName: _ggml_backend_tensor_set, symObjAddr: 0x568, symBinAddr: 0x42870, symSize: 0x138 }
  - { offset: 0x1AEE7D, size: 0x8, addend: 0x0, symName: _ggml_backend_tensor_get_async, symObjAddr: 0x6A0, symBinAddr: 0x429A8, symSize: 0xEC }
  - { offset: 0x1AEE91, size: 0x8, addend: 0x0, symName: _ggml_backend_tensor_get_async, symObjAddr: 0x6A0, symBinAddr: 0x429A8, symSize: 0xEC }
  - { offset: 0x1AEF3A, size: 0x8, addend: 0x0, symName: _ggml_backend_tensor_get, symObjAddr: 0x78C, symBinAddr: 0x42A94, symSize: 0x138 }
  - { offset: 0x1AEF4E, size: 0x8, addend: 0x0, symName: _ggml_backend_tensor_get, symObjAddr: 0x78C, symBinAddr: 0x42A94, symSize: 0x138 }
  - { offset: 0x1AF025, size: 0x8, addend: 0x0, symName: _ggml_backend_tensor_memset, symObjAddr: 0x8C4, symBinAddr: 0x42BCC, symSize: 0x138 }
  - { offset: 0x1AF039, size: 0x8, addend: 0x0, symName: _ggml_backend_tensor_memset, symObjAddr: 0x8C4, symBinAddr: 0x42BCC, symSize: 0x138 }
  - { offset: 0x1AF110, size: 0x8, addend: 0x0, symName: _ggml_backend_synchronize, symObjAddr: 0x9FC, symBinAddr: 0x42D04, symSize: 0x10 }
  - { offset: 0x1AF124, size: 0x8, addend: 0x0, symName: _ggml_backend_synchronize, symObjAddr: 0x9FC, symBinAddr: 0x42D04, symSize: 0x10 }
  - { offset: 0x1AF14D, size: 0x8, addend: 0x0, symName: _ggml_backend_graph_plan_create, symObjAddr: 0xA0C, symBinAddr: 0x42D14, symSize: 0x3C }
  - { offset: 0x1AF19A, size: 0x8, addend: 0x0, symName: _ggml_backend_graph_plan_free, symObjAddr: 0xA48, symBinAddr: 0x42D50, symSize: 0x3C }
  - { offset: 0x1AF1AE, size: 0x8, addend: 0x0, symName: _ggml_backend_graph_plan_free, symObjAddr: 0xA48, symBinAddr: 0x42D50, symSize: 0x3C }
  - { offset: 0x1AF1F7, size: 0x8, addend: 0x0, symName: _ggml_backend_graph_plan_compute, symObjAddr: 0xA84, symBinAddr: 0x42D8C, symSize: 0x3C }
  - { offset: 0x1AF20B, size: 0x8, addend: 0x0, symName: _ggml_backend_graph_plan_compute, symObjAddr: 0xA84, symBinAddr: 0x42D8C, symSize: 0x3C }
  - { offset: 0x1AF258, size: 0x8, addend: 0x0, symName: _ggml_backend_graph_compute, symObjAddr: 0xAC0, symBinAddr: 0x42DC8, symSize: 0x40 }
  - { offset: 0x1AF2AA, size: 0x8, addend: 0x0, symName: _ggml_backend_graph_compute, symObjAddr: 0xAC0, symBinAddr: 0x42DC8, symSize: 0x40 }
  - { offset: 0x1AF34E, size: 0x8, addend: 0x0, symName: _ggml_backend_graph_compute_async, symObjAddr: 0xB00, symBinAddr: 0x42E08, symSize: 0x8 }
  - { offset: 0x1AF3B7, size: 0x8, addend: 0x0, symName: _ggml_backend_supports_op, symObjAddr: 0xB08, symBinAddr: 0x42E10, symSize: 0xC }
  - { offset: 0x1AF41A, size: 0x8, addend: 0x0, symName: _ggml_backend_dev_supports_op, symObjAddr: 0xB14, symBinAddr: 0x42E1C, symSize: 0x8 }
  - { offset: 0x1AF483, size: 0x8, addend: 0x0, symName: _ggml_backend_supports_buft, symObjAddr: 0xB1C, symBinAddr: 0x42E24, symSize: 0xC }
  - { offset: 0x1AF4E6, size: 0x8, addend: 0x0, symName: _ggml_backend_dev_supports_buft, symObjAddr: 0xB28, symBinAddr: 0x42E30, symSize: 0x8 }
  - { offset: 0x1AF54F, size: 0x8, addend: 0x0, symName: _ggml_backend_offload_op, symObjAddr: 0xB30, symBinAddr: 0x42E38, symSize: 0x18 }
  - { offset: 0x1AF5A1, size: 0x8, addend: 0x0, symName: _ggml_backend_dev_offload_op, symObjAddr: 0xB48, symBinAddr: 0x42E50, symSize: 0x14 }
  - { offset: 0x1AF5D4, size: 0x8, addend: 0x0, symName: _ggml_backend_get_device, symObjAddr: 0xB5C, symBinAddr: 0x42E64, symSize: 0x8 }
  - { offset: 0x1AF677, size: 0x8, addend: 0x0, symName: _ggml_backend_tensor_copy, symObjAddr: 0xB64, symBinAddr: 0x42E6C, symSize: 0x1F8 }
  - { offset: 0x1AF923, size: 0x8, addend: 0x0, symName: _ggml_backend_tensor_copy_async, symObjAddr: 0xD5C, symBinAddr: 0x43064, symSize: 0x150 }
  - { offset: 0x1AF956, size: 0x8, addend: 0x0, symName: _ggml_backend_tensor_copy_async, symObjAddr: 0xD5C, symBinAddr: 0x43064, symSize: 0x150 }
  - { offset: 0x1AFA87, size: 0x8, addend: 0x0, symName: _ggml_backend_event_new, symObjAddr: 0xEAC, symBinAddr: 0x431B4, symSize: 0x18 }
  - { offset: 0x1AFA9B, size: 0x8, addend: 0x0, symName: _ggml_backend_event_new, symObjAddr: 0xEAC, symBinAddr: 0x431B4, symSize: 0x18 }
  - { offset: 0x1AFAC6, size: 0x8, addend: 0x0, symName: _ggml_backend_event_free, symObjAddr: 0xEC4, symBinAddr: 0x431CC, symSize: 0x18 }
  - { offset: 0x1AFAF1, size: 0x8, addend: 0x0, symName: _ggml_backend_event_record, symObjAddr: 0xEDC, symBinAddr: 0x431E4, symSize: 0x48 }
  - { offset: 0x1AFB29, size: 0x8, addend: 0x0, symName: _ggml_backend_event_synchronize, symObjAddr: 0xF24, symBinAddr: 0x4322C, symSize: 0x44 }
  - { offset: 0x1AFB3D, size: 0x8, addend: 0x0, symName: _ggml_backend_event_synchronize, symObjAddr: 0xF24, symBinAddr: 0x4322C, symSize: 0x44 }
  - { offset: 0x1AFB6B, size: 0x8, addend: 0x0, symName: _ggml_backend_event_wait, symObjAddr: 0xF68, symBinAddr: 0x43270, symSize: 0x3C }
  - { offset: 0x1AFB7F, size: 0x8, addend: 0x0, symName: _ggml_backend_event_wait, symObjAddr: 0xF68, symBinAddr: 0x43270, symSize: 0x3C }
  - { offset: 0x1AFBB7, size: 0x8, addend: 0x0, symName: _ggml_backend_dev_name, symObjAddr: 0xFA4, symBinAddr: 0x432AC, symSize: 0x8 }
  - { offset: 0x1AFBCB, size: 0x8, addend: 0x0, symName: _ggml_backend_dev_name, symObjAddr: 0xFA4, symBinAddr: 0x432AC, symSize: 0x8 }
  - { offset: 0x1AFC0B, size: 0x8, addend: 0x0, symName: _ggml_backend_dev_description, symObjAddr: 0xFAC, symBinAddr: 0x432B4, symSize: 0x8 }
  - { offset: 0x1AFC4B, size: 0x8, addend: 0x0, symName: _ggml_backend_dev_memory, symObjAddr: 0xFB4, symBinAddr: 0x432BC, symSize: 0x8 }
  - { offset: 0x1AFCB5, size: 0x8, addend: 0x0, symName: _ggml_backend_dev_type, symObjAddr: 0xFBC, symBinAddr: 0x432C4, symSize: 0x8 }
  - { offset: 0x1AFCE7, size: 0x8, addend: 0x0, symName: _ggml_backend_dev_get_props, symObjAddr: 0xFC4, symBinAddr: 0x432CC, symSize: 0x14 }
  - { offset: 0x1AFD3A, size: 0x8, addend: 0x0, symName: _ggml_backend_dev_backend_reg, symObjAddr: 0xFD8, symBinAddr: 0x432E0, symSize: 0x8 }
  - { offset: 0x1AFD67, size: 0x8, addend: 0x0, symName: _ggml_backend_dev_init, symObjAddr: 0xFE0, symBinAddr: 0x432E8, symSize: 0x8 }
  - { offset: 0x1AFDBE, size: 0x8, addend: 0x0, symName: _ggml_backend_dev_host_buffer_type, symObjAddr: 0xFE8, symBinAddr: 0x432F0, symSize: 0x14 }
  - { offset: 0x1AFDF7, size: 0x8, addend: 0x0, symName: _ggml_backend_dev_buffer_from_host_ptr, symObjAddr: 0xFFC, symBinAddr: 0x43304, symSize: 0x8 }
  - { offset: 0x1AFE7C, size: 0x8, addend: 0x0, symName: _ggml_backend_reg_name, symObjAddr: 0x1004, symBinAddr: 0x4330C, symSize: 0x8 }
  - { offset: 0x1AFEBC, size: 0x8, addend: 0x0, symName: _ggml_backend_reg_dev_count, symObjAddr: 0x100C, symBinAddr: 0x43314, symSize: 0x8 }
  - { offset: 0x1AFEFC, size: 0x8, addend: 0x0, symName: _ggml_backend_reg_dev_get, symObjAddr: 0x1014, symBinAddr: 0x4331C, symSize: 0x8 }
  - { offset: 0x1AFF53, size: 0x8, addend: 0x0, symName: _ggml_backend_reg_get_proc_address, symObjAddr: 0x101C, symBinAddr: 0x43324, symSize: 0x14 }
  - { offset: 0x1AFFB4, size: 0x8, addend: 0x0, symName: _ggml_backend_multi_buffer_alloc_buffer, symObjAddr: 0x1030, symBinAddr: 0x43338, symSize: 0x168 }
  - { offset: 0x1B00B6, size: 0x8, addend: 0x0, symName: __ZL37ggml_backend_multi_buffer_free_bufferP19ggml_backend_buffer, symObjAddr: 0x1198, symBinAddr: 0x434A0, symSize: 0x78 }
  - { offset: 0x1B00DF, size: 0x8, addend: 0x0, symName: __ZL37ggml_backend_multi_buffer_free_bufferP19ggml_backend_buffer, symObjAddr: 0x1198, symBinAddr: 0x434A0, symSize: 0x78 }
  - { offset: 0x1B0221, size: 0x8, addend: 0x0, symName: _ggml_backend_sched_new, symObjAddr: 0x1210, symBinAddr: 0x43518, symSize: 0x48C }
  - { offset: 0x1B0652, size: 0x8, addend: 0x0, symName: _ggml_backend_sched_reset, symObjAddr: 0x169C, symBinAddr: 0x439A4, symSize: 0x6C }
  - { offset: 0x1B0706, size: 0x8, addend: 0x0, symName: _ggml_backend_sched_reset, symObjAddr: 0x169C, symBinAddr: 0x439A4, symSize: 0x6C }
  - { offset: 0x1B0753, size: 0x8, addend: 0x0, symName: _ggml_backend_sched_free, symObjAddr: 0x1708, symBinAddr: 0x43A10, symSize: 0x108 }
  - { offset: 0x1B08FB, size: 0x8, addend: 0x0, symName: _ggml_backend_sched_reserve, symObjAddr: 0x1810, symBinAddr: 0x43B18, symSize: 0x144 }
  - { offset: 0x1B0A03, size: 0x8, addend: 0x0, symName: __ZL30ggml_backend_sched_split_graphP18ggml_backend_schedP11ggml_cgraph, symObjAddr: 0x1954, symBinAddr: 0x43C5C, symSize: 0x20C0 }
  - { offset: 0x1B0A17, size: 0x8, addend: 0x0, symName: __ZL30ggml_backend_sched_split_graphP18ggml_backend_schedP11ggml_cgraph, symObjAddr: 0x1954, symBinAddr: 0x43C5C, symSize: 0x20C0 }
  - { offset: 0x1B359E, size: 0x8, addend: 0x0, symName: _ggml_backend_sched_synchronize, symObjAddr: 0x3A14, symBinAddr: 0x45D1C, symSize: 0x6C }
  - { offset: 0x1B46A7, size: 0x8, addend: 0x0, symName: __ZL38ggml_backend_sched_backend_id_from_curP18ggml_backend_schedP11ggml_tensor, symObjAddr: 0x5354, symBinAddr: 0x4765C, symSize: 0x450 }
  - { offset: 0x1B4C61, size: 0x8, addend: 0x0, symName: __ZL35ggml_backend_sched_buffer_supportedP18ggml_backend_schedP11ggml_tensori, symObjAddr: 0x57A4, symBinAddr: 0x47AAC, symSize: 0x15C }
  - { offset: 0x1B4C75, size: 0x8, addend: 0x0, symName: __ZL35ggml_backend_sched_buffer_supportedP18ggml_backend_schedP11ggml_tensori, symObjAddr: 0x57A4, symBinAddr: 0x47AAC, symSize: 0x15C }
  - { offset: 0x1B4F7E, size: 0x8, addend: 0x0, symName: _ggml_backend_sched_synchronize, symObjAddr: 0x3A14, symBinAddr: 0x45D1C, symSize: 0x6C }
  - { offset: 0x1B503D, size: 0x8, addend: 0x0, symName: _ggml_backend_sched_alloc_graph, symObjAddr: 0x3A80, symBinAddr: 0x45D88, symSize: 0x1A8 }
  - { offset: 0x1B517C, size: 0x8, addend: 0x0, symName: _ggml_backend_sched_graph_compute, symObjAddr: 0x3C28, symBinAddr: 0x45F30, symSize: 0x78 }
  - { offset: 0x1B51A7, size: 0x8, addend: 0x0, symName: _ggml_backend_sched_graph_compute, symObjAddr: 0x3C28, symBinAddr: 0x45F30, symSize: 0x78 }
  - { offset: 0x1B5278, size: 0x8, addend: 0x0, symName: _ggml_backend_sched_graph_compute_async, symObjAddr: 0x3CA0, symBinAddr: 0x45FA8, symSize: 0x52C }
  - { offset: 0x1B58AB, size: 0x8, addend: 0x0, symName: _ggml_backend_sched_set_eval_callback, symObjAddr: 0x41CC, symBinAddr: 0x464D4, symSize: 0xC }
  - { offset: 0x1B5A20, size: 0x8, addend: 0x0, symName: _ggml_backend_sched_set_eval_callback, symObjAddr: 0x41CC, symBinAddr: 0x464D4, symSize: 0xC }
  - { offset: 0x1B5A65, size: 0x8, addend: 0x0, symName: _ggml_backend_sched_get_n_splits, symObjAddr: 0x41D8, symBinAddr: 0x464E0, symSize: 0x8 }
  - { offset: 0x1B5A92, size: 0x8, addend: 0x0, symName: _ggml_backend_sched_get_n_copies, symObjAddr: 0x41E0, symBinAddr: 0x464E8, symSize: 0x8 }
  - { offset: 0x1B5ABF, size: 0x8, addend: 0x0, symName: _ggml_backend_sched_get_n_backends, symObjAddr: 0x41E8, symBinAddr: 0x464F0, symSize: 0x8 }
  - { offset: 0x1B5AEC, size: 0x8, addend: 0x0, symName: _ggml_backend_sched_get_backend, symObjAddr: 0x41F0, symBinAddr: 0x464F8, symSize: 0x4C }
  - { offset: 0x1B5B2D, size: 0x8, addend: 0x0, symName: _ggml_backend_sched_get_buffer_size, symObjAddr: 0x423C, symBinAddr: 0x46544, symSize: 0x70 }
  - { offset: 0x1B5B7C, size: 0x8, addend: 0x0, symName: _ggml_backend_sched_get_buffer_size, symObjAddr: 0x423C, symBinAddr: 0x46544, symSize: 0x70 }
  - { offset: 0x1B5C49, size: 0x8, addend: 0x0, symName: _ggml_backend_sched_set_tensor_backend, symObjAddr: 0x42AC, symBinAddr: 0x465B4, symSize: 0xF4 }
  - { offset: 0x1B5DBF, size: 0x8, addend: 0x0, symName: _ggml_backend_sched_get_tensor_backend, symObjAddr: 0x43A0, symBinAddr: 0x466A8, symSize: 0xAC }
  - { offset: 0x1B5ED9, size: 0x8, addend: 0x0, symName: _ggml_backend_view_init, symObjAddr: 0x444C, symBinAddr: 0x46754, symSize: 0xF4 }
  - { offset: 0x1B5F81, size: 0x8, addend: 0x0, symName: _ggml_backend_tensor_alloc, symObjAddr: 0x4540, symBinAddr: 0x46848, symSize: 0x1E0 }
  - { offset: 0x1B5FDE, size: 0x8, addend: 0x0, symName: _ggml_backend_tensor_alloc, symObjAddr: 0x4540, symBinAddr: 0x46848, symSize: 0x1E0 }
  - { offset: 0x1B6204, size: 0x8, addend: 0x0, symName: _ggml_backend_graph_copy, symObjAddr: 0x4720, symBinAddr: 0x46A28, symSize: 0x29C }
  - { offset: 0x1B6263, size: 0x8, addend: 0x0, symName: _ggml_backend_graph_copy, symObjAddr: 0x4720, symBinAddr: 0x46A28, symSize: 0x29C }
  - { offset: 0x1B6669, size: 0x8, addend: 0x0, symName: __ZL21graph_copy_dup_tensor13ggml_hash_setPP11ggml_tensorP12ggml_contextS4_S1_, symObjAddr: 0x49BC, symBinAddr: 0x46CC4, symSize: 0x404 }
  - { offset: 0x1B6AB4, size: 0x8, addend: 0x0, symName: __ZL22graph_copy_init_tensorP13ggml_hash_setPP11ggml_tensorPbS2_, symObjAddr: 0x4DC0, symBinAddr: 0x470C8, symSize: 0x1F0 }
  - { offset: 0x1B6AEA, size: 0x8, addend: 0x0, symName: __ZL22graph_copy_init_tensorP13ggml_hash_setPP11ggml_tensorPbS2_, symObjAddr: 0x4DC0, symBinAddr: 0x470C8, symSize: 0x1F0 }
  - { offset: 0x1B6DC7, size: 0x8, addend: 0x0, symName: _ggml_backend_graph_copy_free, symObjAddr: 0x4FB0, symBinAddr: 0x472B8, symSize: 0x48 }
  - { offset: 0x1B6E50, size: 0x8, addend: 0x0, symName: _ggml_backend_graph_copy_free, symObjAddr: 0x4FB0, symBinAddr: 0x472B8, symSize: 0x48 }
  - { offset: 0x1B6F48, size: 0x8, addend: 0x0, symName: _ggml_backend_compare_graph_backend, symObjAddr: 0x4FF8, symBinAddr: 0x47300, symSize: 0x19C }
  - { offset: 0x1B72E7, size: 0x8, addend: 0x0, symName: __ZL37ggml_backend_cpu_buffer_type_get_nameP24ggml_backend_buffer_type, symObjAddr: 0x51A0, symBinAddr: 0x474A8, symSize: 0xC }
  - { offset: 0x1B7313, size: 0x8, addend: 0x0, symName: __ZL41ggml_backend_cpu_buffer_type_alloc_bufferP24ggml_backend_buffer_typem, symObjAddr: 0x51AC, symBinAddr: 0x474B4, symSize: 0xA4 }
  - { offset: 0x1B73E8, size: 0x8, addend: 0x0, symName: __ZL42ggml_backend_cpu_buffer_type_get_alignmentP24ggml_backend_buffer_type, symObjAddr: 0x5250, symBinAddr: 0x47558, symSize: 0x8 }
  - { offset: 0x1B7414, size: 0x8, addend: 0x0, symName: __ZL36ggml_backend_cpu_buffer_type_is_hostP24ggml_backend_buffer_type, symObjAddr: 0x5258, symBinAddr: 0x47560, symSize: 0x8 }
  - { offset: 0x1B7440, size: 0x8, addend: 0x0, symName: _ggml_backend_cpu_buffer_from_ptr, symObjAddr: 0x5260, symBinAddr: 0x47568, symSize: 0x8C }
  - { offset: 0x1B74C6, size: 0x8, addend: 0x0, symName: __ZL31ggml_backend_multi_buffer_clearP19ggml_backend_bufferh, symObjAddr: 0x52EC, symBinAddr: 0x475F4, symSize: 0x68 }
  - { offset: 0x1B74FA, size: 0x8, addend: 0x0, symName: __ZL31ggml_backend_multi_buffer_clearP19ggml_backend_bufferh, symObjAddr: 0x52EC, symBinAddr: 0x475F4, symSize: 0x68 }
  - { offset: 0x1B7638, size: 0x8, addend: 0x0, symName: __ZL35ggml_backend_cpu_buffer_free_bufferP19ggml_backend_buffer, symObjAddr: 0x5900, symBinAddr: 0x47C08, symSize: 0xC }
  - { offset: 0x1B7686, size: 0x8, addend: 0x0, symName: __ZL32ggml_backend_cpu_buffer_get_baseP19ggml_backend_buffer, symObjAddr: 0x590C, symBinAddr: 0x47C14, symSize: 0x18 }
  - { offset: 0x1B76C8, size: 0x8, addend: 0x0, symName: __ZL37ggml_backend_cpu_buffer_memset_tensorP19ggml_backend_bufferP11ggml_tensorhmm, symObjAddr: 0x5924, symBinAddr: 0x47C2C, symSize: 0x14 }
  - { offset: 0x1B7732, size: 0x8, addend: 0x0, symName: __ZL34ggml_backend_cpu_buffer_set_tensorP19ggml_backend_bufferP11ggml_tensorPKvmm, symObjAddr: 0x5938, symBinAddr: 0x47C40, symSize: 0x14 }
  - { offset: 0x1B779C, size: 0x8, addend: 0x0, symName: __ZL34ggml_backend_cpu_buffer_get_tensorP19ggml_backend_bufferPK11ggml_tensorPvmm, symObjAddr: 0x594C, symBinAddr: 0x47C54, symSize: 0x14 }
  - { offset: 0x1B7806, size: 0x8, addend: 0x0, symName: __ZL34ggml_backend_cpu_buffer_cpy_tensorP19ggml_backend_bufferPK11ggml_tensorPS1_, symObjAddr: 0x5960, symBinAddr: 0x47C68, symSize: 0x78 }
  - { offset: 0x1B78D3, size: 0x8, addend: 0x0, symName: __ZL29ggml_backend_cpu_buffer_clearP19ggml_backend_bufferh, symObjAddr: 0x59D8, symBinAddr: 0x47CE0, symSize: 0xC }
  - { offset: 0x1B790F, size: 0x8, addend: 0x0, symName: __ZL46ggml_backend_cpu_buffer_from_ptr_type_get_nameP24ggml_backend_buffer_type, symObjAddr: 0x59E4, symBinAddr: 0x47CEC, symSize: 0xC }
  - { offset: 0x1B97E7, size: 0x8, addend: 0x0, symName: _ggml_opt_dataset_init, symObjAddr: 0x0, symBinAddr: 0x47CF8, symSize: 0x268 }
  - { offset: 0x1C464F, size: 0x8, addend: 0x0, symName: __ZNSt3__124uniform_int_distributionIlEclINS_23mersenne_twister_engineIjLm32ELm624ELm397ELm31ELj2567483615ELm11ELj4294967295ELm7ELj2636928640ELm15ELj4022730752ELm18ELj1812433253EEEEElRT_RKNS1_10param_typeE, symObjAddr: 0x41EC, symBinAddr: 0x4BC6C, symSize: 0x1A4 }
  - { offset: 0x1C46F3, size: 0x8, addend: 0x0, symName: __ZNSt3__124uniform_int_distributionIlEclINS_23mersenne_twister_engineIjLm32ELm624ELm397ELm31ELj2567483615ELm11ELj4294967295ELm7ELj2636928640ELm15ELj4022730752ELm18ELj1812433253EEEEElRT_RKNS1_10param_typeE, symObjAddr: 0x41EC, symBinAddr: 0x4BC6C, symSize: 0x1A4 }
  - { offset: 0x1C4A73, size: 0x8, addend: 0x0, symName: _ggml_opt_dataset_init, symObjAddr: 0x0, symBinAddr: 0x47CF8, symSize: 0x268 }
  - { offset: 0x1C4CF5, size: 0x8, addend: 0x0, symName: _ggml_opt_dataset_free, symObjAddr: 0x268, symBinAddr: 0x47F60, symSize: 0x40 }
  - { offset: 0x1C4D8C, size: 0x8, addend: 0x0, symName: __ZNSt3__16vectorIxNS_9allocatorIxEEE8__appendEm, symObjAddr: 0x40B4, symBinAddr: 0x4BB34, symSize: 0x124 }
  - { offset: 0x1C51D0, size: 0x8, addend: 0x0, symName: __ZNKSt3__16vectorIxNS_9allocatorIxEEE20__throw_length_errorB8ne190102Ev, symObjAddr: 0x41D8, symBinAddr: 0x4BC58, symSize: 0x14 }
  - { offset: 0x1C5325, size: 0x8, addend: 0x0, symName: _ggml_opt_dataset_free, symObjAddr: 0x268, symBinAddr: 0x47F60, symSize: 0x40 }
  - { offset: 0x1C5520, size: 0x8, addend: 0x0, symName: _ggml_opt_dataset_ndata, symObjAddr: 0x2A8, symBinAddr: 0x47FA0, symSize: 0x8 }
  - { offset: 0x1C554B, size: 0x8, addend: 0x0, symName: _ggml_opt_dataset_data, symObjAddr: 0x2B0, symBinAddr: 0x47FA8, symSize: 0x8 }
  - { offset: 0x1C556A, size: 0x8, addend: 0x0, symName: _ggml_opt_dataset_labels, symObjAddr: 0x2B8, symBinAddr: 0x47FB0, symSize: 0x8 }
  - { offset: 0x1C573F, size: 0x8, addend: 0x0, symName: _ggml_opt_dataset_shuffle, symObjAddr: 0x2C0, symBinAddr: 0x47FB8, symSize: 0x188 }
  - { offset: 0x1C5D33, size: 0x8, addend: 0x0, symName: _ggml_opt_dataset_get_batch, symObjAddr: 0x448, symBinAddr: 0x48140, symSize: 0x2B0 }
  - { offset: 0x1C5D87, size: 0x8, addend: 0x0, symName: _ggml_opt_dataset_get_batch, symObjAddr: 0x448, symBinAddr: 0x48140, symSize: 0x2B0 }
  - { offset: 0x1C5FE5, size: 0x8, addend: 0x0, symName: _ggml_opt_dataset_get_batch_host, symObjAddr: 0x6F8, symBinAddr: 0x483F0, symSize: 0x180 }
  - { offset: 0x1C6028, size: 0x8, addend: 0x0, symName: _ggml_opt_dataset_get_batch_host, symObjAddr: 0x6F8, symBinAddr: 0x483F0, symSize: 0x180 }
  - { offset: 0x1C618A, size: 0x8, addend: 0x0, symName: _ggml_opt_get_default_optimizer_params, symObjAddr: 0x878, symBinAddr: 0x48570, symSize: 0x14 }
  - { offset: 0x1C619E, size: 0x8, addend: 0x0, symName: _ggml_opt_get_default_optimizer_params, symObjAddr: 0x878, symBinAddr: 0x48570, symSize: 0x14 }
  - { offset: 0x1C61D3, size: 0x8, addend: 0x0, symName: _ggml_opt_get_constant_optimizer_params, symObjAddr: 0x88C, symBinAddr: 0x48584, symSize: 0x14 }
  - { offset: 0x1C61FC, size: 0x8, addend: 0x0, symName: _ggml_opt_default_params, symObjAddr: 0x8A0, symBinAddr: 0x48598, symSize: 0x30 }
  - { offset: 0x1C655A, size: 0x8, addend: 0x0, symName: _ggml_opt_init, symObjAddr: 0x8D0, symBinAddr: 0x485C8, symSize: 0x220 }
  - { offset: 0x1C6773, size: 0x8, addend: 0x0, symName: __ZL14ggml_opt_buildP16ggml_opt_context, symObjAddr: 0xAF0, symBinAddr: 0x487E8, symSize: 0xD88 }
  - { offset: 0x1C67B7, size: 0x8, addend: 0x0, symName: __ZL14ggml_opt_buildP16ggml_opt_context, symObjAddr: 0xAF0, symBinAddr: 0x487E8, symSize: 0xD88 }
  - { offset: 0x1C92AD, size: 0x8, addend: 0x0, symName: __ZNSt3__16vectorIP11ggml_tensorNS_9allocatorIS2_EEE8__appendEm, symObjAddr: 0x39D4, symBinAddr: 0x4B6CC, symSize: 0x124 }
  - { offset: 0x1C9802, size: 0x8, addend: 0x0, symName: __ZL10map_tensorRNSt3__13mapIP11ggml_tensorS2_NS_4lessIS2_EENS_9allocatorINS_4pairIKS2_S2_EEEEEEP12ggml_contextS2_, symObjAddr: 0x3BBC, symBinAddr: 0x4B7F0, symSize: 0x300 }
  - { offset: 0x1C9909, size: 0x8, addend: 0x0, symName: _ggml_opt_free, symObjAddr: 0x1878, symBinAddr: 0x49570, symSize: 0x78 }
  - { offset: 0x1C9DCA, size: 0x8, addend: 0x0, symName: _ggml_opt_reset, symObjAddr: 0x18F0, symBinAddr: 0x495E8, symSize: 0x3C }
  - { offset: 0x1C9E20, size: 0x8, addend: 0x0, symName: _ggml_opt_static_graphs, symObjAddr: 0x192C, symBinAddr: 0x49624, symSize: 0x8 }
  - { offset: 0x1C9E3F, size: 0x8, addend: 0x0, symName: _ggml_opt_inputs, symObjAddr: 0x1934, symBinAddr: 0x4962C, symSize: 0x8 }
  - { offset: 0x1C9E5E, size: 0x8, addend: 0x0, symName: _ggml_opt_outputs, symObjAddr: 0x193C, symBinAddr: 0x49634, symSize: 0x8 }
  - { offset: 0x1C9E8B, size: 0x8, addend: 0x0, symName: _ggml_opt_labels, symObjAddr: 0x1944, symBinAddr: 0x4963C, symSize: 0x8 }
  - { offset: 0x1C9EB8, size: 0x8, addend: 0x0, symName: _ggml_opt_loss, symObjAddr: 0x194C, symBinAddr: 0x49644, symSize: 0x8 }
  - { offset: 0x1C9EE5, size: 0x8, addend: 0x0, symName: _ggml_opt_pred, symObjAddr: 0x1954, symBinAddr: 0x4964C, symSize: 0x8 }
  - { offset: 0x1C9F12, size: 0x8, addend: 0x0, symName: _ggml_opt_ncorrect, symObjAddr: 0x195C, symBinAddr: 0x49654, symSize: 0x8 }
  - { offset: 0x1C9F3F, size: 0x8, addend: 0x0, symName: _ggml_opt_grad_acc, symObjAddr: 0x1964, symBinAddr: 0x4965C, symSize: 0x8 }
  - { offset: 0x1CA090, size: 0x8, addend: 0x0, symName: _ggml_opt_result_init, symObjAddr: 0x196C, symBinAddr: 0x49664, symSize: 0x30 }
  - { offset: 0x1CA347, size: 0x8, addend: 0x0, symName: _ggml_opt_result_free, symObjAddr: 0x199C, symBinAddr: 0x49694, symSize: 0x48 }
  - { offset: 0x1CA6D7, size: 0x8, addend: 0x0, symName: _ggml_opt_result_reset, symObjAddr: 0x19E4, symBinAddr: 0x496DC, symSize: 0x1C }
  - { offset: 0x1CA80C, size: 0x8, addend: 0x0, symName: _ggml_opt_result_ndata, symObjAddr: 0x1A00, symBinAddr: 0x496F8, symSize: 0xC }
  - { offset: 0x1CA842, size: 0x8, addend: 0x0, symName: _ggml_opt_result_loss, symObjAddr: 0x1A0C, symBinAddr: 0x49704, symSize: 0x388 }
  - { offset: 0x1CA8A4, size: 0x8, addend: 0x0, symName: _ggml_opt_result_loss, symObjAddr: 0x1A0C, symBinAddr: 0x49704, symSize: 0x388 }
  - { offset: 0x1CA901, size: 0x8, addend: 0x0, symName: _ggml_opt_result_pred, symObjAddr: 0x1D94, symBinAddr: 0x49A8C, symSize: 0x84 }
  - { offset: 0x1CA957, size: 0x8, addend: 0x0, symName: _ggml_opt_result_accuracy, symObjAddr: 0x1E18, symBinAddr: 0x49B10, symSize: 0x6C }
  - { offset: 0x1CA984, size: 0x8, addend: 0x0, symName: _ggml_opt_prepare_alloc, symObjAddr: 0x1E84, symBinAddr: 0x49B7C, symSize: 0x50 }
  - { offset: 0x1CA9F4, size: 0x8, addend: 0x0, symName: _ggml_opt_alloc, symObjAddr: 0x1ED4, symBinAddr: 0x49BCC, symSize: 0x4C0 }
  - { offset: 0x1CAD03, size: 0x8, addend: 0x0, symName: _ggml_opt_alloc, symObjAddr: 0x1ED4, symBinAddr: 0x49BCC, symSize: 0x4C0 }
  - { offset: 0x1CB36E, size: 0x8, addend: 0x0, symName: __ZL10map_tensorRNSt3__13mapIP11ggml_tensorS2_NS_4lessIS2_EENS_9allocatorINS_4pairIKS2_S2_EEEEEEP12ggml_contextS2_, symObjAddr: 0x3BBC, symBinAddr: 0x4B7F0, symSize: 0x300 }
  - { offset: 0x1CBC0E, size: 0x8, addend: 0x0, symName: __ZNSt3__16__treeINS_12__value_typeIP11ggml_tensorS3_EENS_19__map_value_compareIS3_S4_NS_4lessIS3_EELb1EEENS_9allocatorIS4_EEE7destroyEPNS_11__tree_nodeIS4_PvEE, symObjAddr: 0x4070, symBinAddr: 0x4BAF0, symSize: 0x44 }
  - { offset: 0x1CC24E, size: 0x8, addend: 0x0, symName: _ggml_opt_eval, symObjAddr: 0x2394, symBinAddr: 0x4A08C, symSize: 0x678 }
  - { offset: 0x1CD64B, size: 0x8, addend: 0x0, symName: _ggml_opt_epoch, symObjAddr: 0x2A0C, symBinAddr: 0x4A704, symSize: 0x2D4 }
  - { offset: 0x1CDA4E, size: 0x8, addend: 0x0, symName: _ggml_opt_epoch_callback_progress_bar, symObjAddr: 0x2CE0, symBinAddr: 0x4A9D8, symSize: 0x770 }
  - { offset: 0x1CDB65, size: 0x8, addend: 0x0, symName: _ggml_opt_epoch_callback_progress_bar, symObjAddr: 0x2CE0, symBinAddr: 0x4A9D8, symSize: 0x770 }
  - { offset: 0x1CE081, size: 0x8, addend: 0x0, symName: _ggml_opt_fit, symObjAddr: 0x3450, symBinAddr: 0x4B148, symSize: 0x584 }
  - { offset: 0x1CF08C, size: 0x8, addend: 0x0, symName: __ZNSt3__16vectorIP11ggml_tensorNS_9allocatorIS2_EEE8__appendEm, symObjAddr: 0x39D4, symBinAddr: 0x4B6CC, symSize: 0x124 }
  - { offset: 0x1CFC83, size: 0x8, addend: 0x0, symName: __ZNKSt3__16vectorIxNS_9allocatorIxEEE20__throw_length_errorB8ne190102Ev, symObjAddr: 0x41D8, symBinAddr: 0x4BC58, symSize: 0x14 }
  - { offset: 0x1CFCAD, size: 0x8, addend: 0x0, symName: __ZNSt3__124uniform_int_distributionIlEclINS_23mersenne_twister_engineIjLm32ELm624ELm397ELm31ELj2567483615ELm11ELj4294967295ELm7ELj2636928640ELm15ELj4022730752ELm18ELj1812433253EEEEElRT_RKNS1_10param_typeE, symObjAddr: 0x41EC, symBinAddr: 0x4BC6C, symSize: 0x1A4 }
  - { offset: 0x1CFD66, size: 0x8, addend: 0x0, symName: __ZNSt3__125__independent_bits_engineINS_23mersenne_twister_engineIjLm32ELm624ELm397ELm31ELj2567483615ELm11ELj4294967295ELm7ELj2636928640ELm15ELj4022730752ELm18ELj1812433253EEEmE6__evalENS_17integral_constantIbLb1EEE, symObjAddr: 0x4390, symBinAddr: 0x4BE10, symSize: 0x330 }
  - { offset: 0x1D227B, size: 0x8, addend: 0x0, symName: _quantize_row_q4_0_ref, symObjAddr: 0x0, symBinAddr: 0x4C140, symSize: 0x344 }
  - { offset: 0x1D2289, size: 0x8, addend: 0x0, symName: _quantize_row_q4_0_ref, symObjAddr: 0x0, symBinAddr: 0x4C140, symSize: 0x344 }
  - { offset: 0x1D2416, size: 0x8, addend: 0x0, symName: _quantize_row_q5_0_ref, symObjAddr: 0x6B8, symBinAddr: 0x4C7F8, symSize: 0x440 }
  - { offset: 0x1D25B5, size: 0x8, addend: 0x0, symName: _dequantize_row_q4_0, symObjAddr: 0x15E4, symBinAddr: 0x4D724, symSize: 0x14C }
  - { offset: 0x1D26BB, size: 0x8, addend: 0x0, symName: _dequantize_row_q4_1, symObjAddr: 0x1730, symBinAddr: 0x4D870, symSize: 0x128 }
  - { offset: 0x1D27F8, size: 0x8, addend: 0x0, symName: _dequantize_row_q5_0, symObjAddr: 0x1858, symBinAddr: 0x4D998, symSize: 0x198 }
  - { offset: 0x1D2923, size: 0x8, addend: 0x0, symName: _dequantize_row_q5_1, symObjAddr: 0x19F0, symBinAddr: 0x4DB30, symSize: 0x1A0 }
  - { offset: 0x1D2A7C, size: 0x8, addend: 0x0, symName: _dequantize_row_q8_0, symObjAddr: 0x1B90, symBinAddr: 0x4DCD0, symSize: 0xC8 }
  - { offset: 0x1D2B5F, size: 0x8, addend: 0x0, symName: _iq2xs_init_impl, symObjAddr: 0x2368C, symBinAddr: 0x6F7CC, symSize: 0xD98 }
  - { offset: 0x1D2B83, size: 0x8, addend: 0x0, symName: _iq2xs_init_impl.kgrid_2bit_256, symObjAddr: 0x3C740, symBinAddr: 0x114078, symSize: 0x0 }
  - { offset: 0x1D2B9A, size: 0x8, addend: 0x0, symName: _iq2xs_init_impl.kgrid_2bit_512, symObjAddr: 0x3C940, symBinAddr: 0x114278, symSize: 0x0 }
  - { offset: 0x1D2BB1, size: 0x8, addend: 0x0, symName: _iq2xs_init_impl.kgrid_1bit_2048, symObjAddr: 0x3CD40, symBinAddr: 0x114678, symSize: 0x0 }
  - { offset: 0x1D2BC8, size: 0x8, addend: 0x0, symName: _iq2xs_init_impl.kgrid_2bit_1024, symObjAddr: 0x3DD40, symBinAddr: 0x115678, symSize: 0x0 }
  - { offset: 0x1D30EA, size: 0x8, addend: 0x0, symName: _iq2_compare_func, symObjAddr: 0x24424, symBinAddr: 0x70564, symSize: 0x40 }
  - { offset: 0x1D3161, size: 0x8, addend: 0x0, symName: _iq3xs_init_impl, symObjAddr: 0x28948, symBinAddr: 0x74A88, symSize: 0x968 }
  - { offset: 0x1D3185, size: 0x8, addend: 0x0, symName: _iq3xs_init_impl.kgrid_256, symObjAddr: 0x3E540, symBinAddr: 0x115E78, symSize: 0x0 }
  - { offset: 0x1D319C, size: 0x8, addend: 0x0, symName: _iq3xs_init_impl.kgrid_512, symObjAddr: 0x3E740, symBinAddr: 0x116078, symSize: 0x0 }
  - { offset: 0x1D3698, size: 0x8, addend: 0x0, symName: _iq3_compare_func, symObjAddr: 0x292B0, symBinAddr: 0x753F0, symSize: 0x40 }
  - { offset: 0x1D36BF, size: 0x8, addend: 0x0, symName: _iq2xxs_grid, symObjAddr: 0x342B0, symBinAddr: 0x10BBE8, symSize: 0x0 }
  - { offset: 0x1D36FE, size: 0x8, addend: 0x0, symName: _ksigns_iq2xs, symObjAddr: 0x34AB0, symBinAddr: 0x10C3E8, symSize: 0x0 }
  - { offset: 0x1D373C, size: 0x8, addend: 0x0, symName: _iq2xs_grid, symObjAddr: 0x34B30, symBinAddr: 0x10C468, symSize: 0x0 }
  - { offset: 0x1D3762, size: 0x8, addend: 0x0, symName: _iq2s_grid, symObjAddr: 0x35B30, symBinAddr: 0x10D468, symSize: 0x0 }
  - { offset: 0x1D3788, size: 0x8, addend: 0x0, symName: _iq3xxs_grid, symObjAddr: 0x37B30, symBinAddr: 0x10F468, symSize: 0x0 }
  - { offset: 0x1D37C7, size: 0x8, addend: 0x0, symName: _iq3s_grid, symObjAddr: 0x37F30, symBinAddr: 0x10F868, symSize: 0x0 }
  - { offset: 0x1D37ED, size: 0x8, addend: 0x0, symName: _iq1s_grid, symObjAddr: 0x38730, symBinAddr: 0x110068, symSize: 0x0 }
  - { offset: 0x1D3813, size: 0x8, addend: 0x0, symName: _kvalues_iq4nl, symObjAddr: 0x3C730, symBinAddr: 0x114068, symSize: 0x0 }
  - { offset: 0x1D3851, size: 0x8, addend: 0x0, symName: _iq2_data, symObjAddr: 0xD9F58, symBinAddr: 0x1A4918, symSize: 0x0 }
  - { offset: 0x1D38C6, size: 0x8, addend: 0x0, symName: _iq3_data, symObjAddr: 0xD9FB8, symBinAddr: 0x1A4978, symSize: 0x0 }
  - { offset: 0x1D43F5, size: 0x8, addend: 0x0, symName: _quantize_row_q4_1_ref, symObjAddr: 0x344, symBinAddr: 0x4C484, symSize: 0x374 }
  - { offset: 0x1D4562, size: 0x8, addend: 0x0, symName: _quantize_row_q5_1_ref, symObjAddr: 0xAF8, symBinAddr: 0x4CC38, symSize: 0x464 }
  - { offset: 0x1D4717, size: 0x8, addend: 0x0, symName: _quantize_row_q8_0_ref, symObjAddr: 0xF5C, symBinAddr: 0x4D09C, symSize: 0x2A8 }
  - { offset: 0x1D4845, size: 0x8, addend: 0x0, symName: _quantize_row_q8_1_ref, symObjAddr: 0x1204, symBinAddr: 0x4D344, symSize: 0x3E0 }
  - { offset: 0x1D4C88, size: 0x8, addend: 0x0, symName: _quantize_row_q2_K_ref, symObjAddr: 0x1C58, symBinAddr: 0x4DD98, symSize: 0xBAC }
  - { offset: 0x1D51E5, size: 0x8, addend: 0x0, symName: _dequantize_row_q2_K, symObjAddr: 0x2804, symBinAddr: 0x4E944, symSize: 0x334 }
  - { offset: 0x1D59E7, size: 0x8, addend: 0x0, symName: _quantize_q2_K, symObjAddr: 0x2B38, symBinAddr: 0x4EC78, symSize: 0x2820 }
  - { offset: 0x1D65DE, size: 0x8, addend: 0x0, symName: _quantize_row_q3_K_ref, symObjAddr: 0x5358, symBinAddr: 0x51498, symSize: 0xC9C }
  - { offset: 0x1D6A35, size: 0x8, addend: 0x0, symName: _dequantize_row_q3_K, symObjAddr: 0x5FF4, symBinAddr: 0x52134, symSize: 0x4F8 }
  - { offset: 0x1D6FB2, size: 0x8, addend: 0x0, symName: _quantize_q3_K, symObjAddr: 0x64EC, symBinAddr: 0x5262C, symSize: 0x13AC }
  - { offset: 0x1D75F0, size: 0x8, addend: 0x0, symName: _quantize_row_q4_K_ref, symObjAddr: 0x7898, symBinAddr: 0x539D8, symSize: 0x13FC }
  - { offset: 0x1D7B43, size: 0x8, addend: 0x0, symName: _dequantize_row_q4_K, symObjAddr: 0x8C94, symBinAddr: 0x54DD4, symSize: 0x6E8 }
  - { offset: 0x1D7F95, size: 0x8, addend: 0x0, symName: _quantize_q4_K, symObjAddr: 0x937C, symBinAddr: 0x554BC, symSize: 0x2C5C }
  - { offset: 0x1D8A12, size: 0x8, addend: 0x0, symName: _quantize_row_q5_K_ref, symObjAddr: 0xBFD8, symBinAddr: 0x58118, symSize: 0x1598 }
  - { offset: 0x1D8FC3, size: 0x8, addend: 0x0, symName: _dequantize_row_q5_K, symObjAddr: 0xD570, symBinAddr: 0x596B0, symSize: 0x478 }
  - { offset: 0x1D9482, size: 0x8, addend: 0x0, symName: _quantize_q5_K, symObjAddr: 0xD9E8, symBinAddr: 0x59B28, symSize: 0x2E5C }
  - { offset: 0x1D9F50, size: 0x8, addend: 0x0, symName: _quantize_row_q6_K_ref, symObjAddr: 0x10844, symBinAddr: 0x5C984, symSize: 0xC00 }
  - { offset: 0x1DA3D4, size: 0x8, addend: 0x0, symName: _make_qx_quants, symObjAddr: 0x11444, symBinAddr: 0x5D584, symSize: 0xEB8 }
  - { offset: 0x1DA471, size: 0x8, addend: 0x0, symName: _make_qx_quants, symObjAddr: 0x11444, symBinAddr: 0x5D584, symSize: 0xEB8 }
  - { offset: 0x1DA5EF, size: 0x8, addend: 0x0, symName: _dequantize_row_q6_K, symObjAddr: 0x122FC, symBinAddr: 0x5E43C, symSize: 0x7E8 }
  - { offset: 0x1DA8FB, size: 0x8, addend: 0x0, symName: _quantize_q6_K, symObjAddr: 0x12AE4, symBinAddr: 0x5EC24, symSize: 0x84A8 }
  - { offset: 0x1DC827, size: 0x8, addend: 0x0, symName: _quantize_q4_0, symObjAddr: 0x1AF8C, symBinAddr: 0x670CC, symSize: 0xC3C }
  - { offset: 0x1DCC68, size: 0x8, addend: 0x0, symName: _quantize_q4_1, symObjAddr: 0x1BBC8, symBinAddr: 0x67D08, symSize: 0x11E0 }
  - { offset: 0x1DD182, size: 0x8, addend: 0x0, symName: _quantize_q5_0, symObjAddr: 0x1CDA8, symBinAddr: 0x68EE8, symSize: 0xE90 }
  - { offset: 0x1DD60B, size: 0x8, addend: 0x0, symName: _quantize_q5_1, symObjAddr: 0x1DC38, symBinAddr: 0x69D78, symSize: 0x1530 }
  - { offset: 0x1DDA1B, size: 0x8, addend: 0x0, symName: _quantize_q8_0, symObjAddr: 0x1F168, symBinAddr: 0x6B2A8, symSize: 0x5C }
  - { offset: 0x1DDAD7, size: 0x8, addend: 0x0, symName: _quantize_row_tq1_0_ref, symObjAddr: 0x1F1C4, symBinAddr: 0x6B304, symSize: 0x360 }
  - { offset: 0x1DDD90, size: 0x8, addend: 0x0, symName: _quantize_row_tq2_0_ref, symObjAddr: 0x1F524, symBinAddr: 0x6B664, symSize: 0x174 }
  - { offset: 0x1DDF30, size: 0x8, addend: 0x0, symName: _quantize_tq1_0, symObjAddr: 0x1F698, symBinAddr: 0x6B7D8, symSize: 0x5C }
  - { offset: 0x1DDFED, size: 0x8, addend: 0x0, symName: _quantize_tq2_0, symObjAddr: 0x1F6F4, symBinAddr: 0x6B834, symSize: 0x5C }
  - { offset: 0x1DE0AA, size: 0x8, addend: 0x0, symName: _dequantize_row_tq1_0, symObjAddr: 0x1F750, symBinAddr: 0x6B890, symSize: 0xC3C }
  - { offset: 0x1DE2D0, size: 0x8, addend: 0x0, symName: _dequantize_row_tq2_0, symObjAddr: 0x2038C, symBinAddr: 0x6C4CC, symSize: 0x348 }
  - { offset: 0x1DE401, size: 0x8, addend: 0x0, symName: _dequantize_row_iq2_xxs, symObjAddr: 0x206D4, symBinAddr: 0x6C814, symSize: 0x32C }
  - { offset: 0x1DE573, size: 0x8, addend: 0x0, symName: _dequantize_row_iq2_xs, symObjAddr: 0x20A00, symBinAddr: 0x6CB40, symSize: 0x45C }
  - { offset: 0x1DE6AE, size: 0x8, addend: 0x0, symName: _dequantize_row_iq2_s, symObjAddr: 0x20E5C, symBinAddr: 0x6CF9C, symSize: 0x378 }
  - { offset: 0x1DE81E, size: 0x8, addend: 0x0, symName: _dequantize_row_iq3_xxs, symObjAddr: 0x211D4, symBinAddr: 0x6D314, symSize: 0x35C }
  - { offset: 0x1DE9AA, size: 0x8, addend: 0x0, symName: _dequantize_row_iq3_s, symObjAddr: 0x21530, symBinAddr: 0x6D670, symSize: 0x6A4 }
  - { offset: 0x1DEB8B, size: 0x8, addend: 0x0, symName: _dequantize_row_iq1_s, symObjAddr: 0x21BD4, symBinAddr: 0x6DD14, symSize: 0x180 }
  - { offset: 0x1DED11, size: 0x8, addend: 0x0, symName: _dequantize_row_iq1_m, symObjAddr: 0x21D54, symBinAddr: 0x6DE94, symSize: 0x204 }
  - { offset: 0x1DEF2B, size: 0x8, addend: 0x0, symName: _dequantize_row_iq4_nl, symObjAddr: 0x21F58, symBinAddr: 0x6E098, symSize: 0x400 }
  - { offset: 0x1DF00C, size: 0x8, addend: 0x0, symName: _dequantize_row_iq4_xs, symObjAddr: 0x22358, symBinAddr: 0x6E498, symSize: 0x424 }
  - { offset: 0x1DF143, size: 0x8, addend: 0x0, symName: _quantize_row_q8_K_ref, symObjAddr: 0x2277C, symBinAddr: 0x6E8BC, symSize: 0x77C }
  - { offset: 0x1DF2D0, size: 0x8, addend: 0x0, symName: _dequantize_row_q8_K, symObjAddr: 0x22EF8, symBinAddr: 0x6F038, symSize: 0x794 }
  - { offset: 0x1DF417, size: 0x8, addend: 0x0, symName: _iq2_compare_func, symObjAddr: 0x24424, symBinAddr: 0x70564, symSize: 0x40 }
  - { offset: 0x1DF473, size: 0x8, addend: 0x0, symName: _iq2xs_free_impl, symObjAddr: 0x24464, symBinAddr: 0x705A4, symSize: 0xF8 }
  - { offset: 0x1DF4F0, size: 0x8, addend: 0x0, symName: _quantize_iq2_xxs, symObjAddr: 0x2455C, symBinAddr: 0x7069C, symSize: 0x26CC }
  - { offset: 0x1DF9D1, size: 0x8, addend: 0x0, symName: _quantize_iq2_xxs, symObjAddr: 0x2455C, symBinAddr: 0x7069C, symSize: 0x26CC }
  - { offset: 0x1E02CD, size: 0x8, addend: 0x0, symName: _quantize_iq2_xs, symObjAddr: 0x26C28, symBinAddr: 0x72D68, symSize: 0x1D20 }
  - { offset: 0x1E02E1, size: 0x8, addend: 0x0, symName: _iq2_find_best_neighbour, symObjAddr: 0x332D0, symBinAddr: 0x7F410, symSize: 0x1E0 }
  - { offset: 0x1E03E1, size: 0x8, addend: 0x0, symName: _iq1_sort_helper, symObjAddr: 0x334B0, symBinAddr: 0x7F5F0, symSize: 0x18 }
  - { offset: 0x1E0A12, size: 0x8, addend: 0x0, symName: _quantize_iq2_xs, symObjAddr: 0x26C28, symBinAddr: 0x72D68, symSize: 0x1D20 }
  - { offset: 0x1E13F5, size: 0x8, addend: 0x0, symName: _iq3xs_init_impl, symObjAddr: 0x28948, symBinAddr: 0x74A88, symSize: 0x968 }
  - { offset: 0x1E1425, size: 0x8, addend: 0x0, symName: _iq3_compare_func, symObjAddr: 0x292B0, symBinAddr: 0x753F0, symSize: 0x40 }
  - { offset: 0x1E1481, size: 0x8, addend: 0x0, symName: _iq3xs_free_impl, symObjAddr: 0x292F0, symBinAddr: 0x75430, symSize: 0x90 }
  - { offset: 0x1E14FA, size: 0x8, addend: 0x0, symName: _quantize_iq3_xxs, symObjAddr: 0x29380, symBinAddr: 0x754C0, symSize: 0xCC }
  - { offset: 0x1E150E, size: 0x8, addend: 0x0, symName: _quantize_iq3_xxs, symObjAddr: 0x29380, symBinAddr: 0x754C0, symSize: 0xCC }
  - { offset: 0x1E15EF, size: 0x8, addend: 0x0, symName: _quantize_row_iq3_xxs_impl, symObjAddr: 0x2944C, symBinAddr: 0x7558C, symSize: 0x1794 }
  - { offset: 0x1E1603, size: 0x8, addend: 0x0, symName: _quantize_row_iq3_xxs_impl, symObjAddr: 0x2944C, symBinAddr: 0x7558C, symSize: 0x1794 }
  - { offset: 0x1E226E, size: 0x8, addend: 0x0, symName: _quantize_row_iq3_xxs_ref, symObjAddr: 0x2ABE0, symBinAddr: 0x76D20, symSize: 0x8 }
  - { offset: 0x1E281A, size: 0x8, addend: 0x0, symName: _quantize_iq3_s, symObjAddr: 0x2ABE8, symBinAddr: 0x76D28, symSize: 0x197C }
  - { offset: 0x1E30F4, size: 0x8, addend: 0x0, symName: _quantize_row_iq3_s_ref, symObjAddr: 0x2C564, symBinAddr: 0x786A4, symSize: 0x10 }
  - { offset: 0x1E3572, size: 0x8, addend: 0x0, symName: _quantize_iq1_s, symObjAddr: 0x2C574, symBinAddr: 0x786B4, symSize: 0x1520 }
  - { offset: 0x1E3C48, size: 0x8, addend: 0x0, symName: _quantize_iq1_m, symObjAddr: 0x2DA94, symBinAddr: 0x79BD4, symSize: 0x1688 }
  - { offset: 0x1E3C5C, size: 0x8, addend: 0x0, symName: _iq1_find_best_neighbour2, symObjAddr: 0x334C8, symBinAddr: 0x7F608, symSize: 0x5A4 }
  - { offset: 0x1E44B8, size: 0x8, addend: 0x0, symName: _quantize_iq1_m, symObjAddr: 0x2DA94, symBinAddr: 0x79BD4, symSize: 0x1688 }
  - { offset: 0x1E4C10, size: 0x8, addend: 0x0, symName: _quantize_iq4_nl, symObjAddr: 0x2F11C, symBinAddr: 0x7B25C, symSize: 0x20C }
  - { offset: 0x1E4DF9, size: 0x8, addend: 0x0, symName: _quantize_row_iq4_nl_impl, symObjAddr: 0x2F328, symBinAddr: 0x7B468, symSize: 0xD60 }
  - { offset: 0x1E553C, size: 0x8, addend: 0x0, symName: _quantize_row_iq4_nl_ref, symObjAddr: 0x30088, symBinAddr: 0x7C1C8, symSize: 0x104 }
  - { offset: 0x1E567A, size: 0x8, addend: 0x0, symName: _quantize_iq4_xs, symObjAddr: 0x3018C, symBinAddr: 0x7C2CC, symSize: 0x220 }
  - { offset: 0x1E58AF, size: 0x8, addend: 0x0, symName: _quantize_row_iq4_xs_ref, symObjAddr: 0x303AC, symBinAddr: 0x7C4EC, symSize: 0x118 }
  - { offset: 0x1E5E81, size: 0x8, addend: 0x0, symName: _quantize_iq2_s, symObjAddr: 0x304C4, symBinAddr: 0x7C604, symSize: 0x1E4C }
  - { offset: 0x1E687E, size: 0x8, addend: 0x0, symName: _quantize_row_iq2_s_ref, symObjAddr: 0x32310, symBinAddr: 0x7E450, symSize: 0x10 }
  - { offset: 0x1E6892, size: 0x8, addend: 0x0, symName: _quantize_row_iq2_s_ref, symObjAddr: 0x32310, symBinAddr: 0x7E450, symSize: 0x10 }
  - { offset: 0x1E69B0, size: 0x8, addend: 0x0, symName: _ggml_validate_row_data, symObjAddr: 0x32320, symBinAddr: 0x7E460, symSize: 0xFB0 }
  - { offset: 0x1E7DD8, size: 0x8, addend: 0x0, symName: _iq1_sort_helper, symObjAddr: 0x334B0, symBinAddr: 0x7F5F0, symSize: 0x18 }
  - { offset: 0x1E8087, size: 0x8, addend: 0x0, symName: _ggml_critical_section_mutex, symObjAddr: 0x38, symBinAddr: 0x138410, symSize: 0x0 }
  - { offset: 0x1E8D7C, size: 0x8, addend: 0x0, symName: _ggml_critical_section_start, symObjAddr: 0x0, symBinAddr: 0x7FBAC, symSize: 0xC }
  - { offset: 0x1E8D92, size: 0x8, addend: 0x0, symName: _ggml_critical_section_end, symObjAddr: 0xC, symBinAddr: 0x7FBB8, symSize: 0xC }
  - { offset: 0x1E8DAF, size: 0x8, addend: 0x0, symName: __GLOBAL__sub_I_ggml_threading.cpp, symObjAddr: 0x18, symBinAddr: 0x7FBC4, symSize: 0x1C }
  - { offset: 0x1E8DC7, size: 0x8, addend: 0x0, symName: __GLOBAL__sub_I_ggml_threading.cpp, symObjAddr: 0x18, symBinAddr: 0x7FBC4, symSize: 0x1C }
  - { offset: 0x1EACE9, size: 0x8, addend: 0x0, symName: _ggml_print_backtrace, symObjAddr: 0x0, symBinAddr: 0x7FBE0, symSize: 0x16C }
  - { offset: 0x1EAD6B, size: 0x8, addend: 0x0, symName: _ggml_init, symObjAddr: 0x13B4, symBinAddr: 0x80F94, symSize: 0x220 }
  - { offset: 0x1EAD93, size: 0x8, addend: 0x0, symName: _ggml_init.is_first_call, symObjAddr: 0x73600, symBinAddr: 0x1A49A8, symSize: 0x0 }
  - { offset: 0x1EAF46, size: 0x8, addend: 0x0, symName: _ggml_reset, symObjAddr: 0x15D4, symBinAddr: 0x811B4, symSize: 0x14 }
  - { offset: 0x1EAFA0, size: 0x8, addend: 0x0, symName: _ggml_hash_size, symObjAddr: 0xC170, symBinAddr: 0x8BD50, symSize: 0x48 }
  - { offset: 0x1EAFC1, size: 0x8, addend: 0x0, symName: _ggml_hash_size.primes, symObjAddr: 0x111F8, symBinAddr: 0x116620, symSize: 0x0 }
  - { offset: 0x1EB034, size: 0x8, addend: 0x0, symName: _ggml_table_f32_f16, symBinAddr: 0x1E4D38, symSize: 0x0 }
  - { offset: 0x1EB063, size: 0x8, addend: 0x0, symName: _type_traits, symObjAddr: 0x13FA0, symBinAddr: 0x1316B8, symSize: 0x0 }
  - { offset: 0x1EB198, size: 0x8, addend: 0x0, symName: _GGML_OP_NAME, symObjAddr: 0x14828, symBinAddr: 0x131F40, symSize: 0x0 }
  - { offset: 0x1EB1BD, size: 0x8, addend: 0x0, symName: _GGML_OP_SYMBOL, symObjAddr: 0x14AB8, symBinAddr: 0x1321D0, symSize: 0x0 }
  - { offset: 0x1EB1D4, size: 0x8, addend: 0x0, symName: _GGML_UNARY_OP_NAME, symObjAddr: 0x14D48, symBinAddr: 0x132460, symSize: 0x0 }
  - { offset: 0x1EB1F8, size: 0x8, addend: 0x0, symName: _g_logger_state.0, symObjAddr: 0x14DE0, symBinAddr: 0x138450, symSize: 0x0 }
  - { offset: 0x1EB203, size: 0x8, addend: 0x0, symName: _g_logger_state.1, symObjAddr: 0x73608, symBinAddr: 0x1A49B0, symSize: 0x0 }
  - { offset: 0x1EBAB1, size: 0x8, addend: 0x0, symName: _ggml_print_backtrace, symObjAddr: 0x0, symBinAddr: 0x7FBE0, symSize: 0x16C }
  - { offset: 0x1EBB7B, size: 0x8, addend: 0x0, symName: _ggml_abort, symObjAddr: 0x16C, symBinAddr: 0x7FD4C, symSize: 0x78 }
  - { offset: 0x1EBC32, size: 0x8, addend: 0x0, symName: _ggml_abort, symObjAddr: 0x16C, symBinAddr: 0x7FD4C, symSize: 0x78 }
  - { offset: 0x1EBCD4, size: 0x8, addend: 0x0, symName: _ggml_log_internal, symObjAddr: 0x1E4, symBinAddr: 0x7FDC4, symSize: 0x118 }
  - { offset: 0x1EBFE9, size: 0x8, addend: 0x0, symName: _ggml_log_internal, symObjAddr: 0x1E4, symBinAddr: 0x7FDC4, symSize: 0x118 }
  - { offset: 0x1EC126, size: 0x8, addend: 0x0, symName: _ggml_log_callback_default, symObjAddr: 0x2FC, symBinAddr: 0x7FEDC, symSize: 0x30 }
  - { offset: 0x1EC1AB, size: 0x8, addend: 0x0, symName: _ggml_aligned_malloc, symObjAddr: 0x32C, symBinAddr: 0x7FF0C, symSize: 0xC8 }
  - { offset: 0x1EC270, size: 0x8, addend: 0x0, symName: _ggml_aligned_free, symObjAddr: 0x3F4, symBinAddr: 0x7FFD4, symSize: 0x4 }
  - { offset: 0x1EC298, size: 0x8, addend: 0x0, symName: _ggml_aligned_free, symObjAddr: 0x3F4, symBinAddr: 0x7FFD4, symSize: 0x4 }
  - { offset: 0x1EC2AC, size: 0x8, addend: 0x0, symName: _ggml_status_to_string, symObjAddr: 0x3F8, symBinAddr: 0x7FFD8, symSize: 0x28 }
  - { offset: 0x1EC309, size: 0x8, addend: 0x0, symName: _ggml_fp16_to_fp32, symObjAddr: 0x420, symBinAddr: 0x80000, symSize: 0xC }
  - { offset: 0x1EC339, size: 0x8, addend: 0x0, symName: _ggml_fp16_to_fp32, symObjAddr: 0x420, symBinAddr: 0x80000, symSize: 0xC }
  - { offset: 0x1EC397, size: 0x8, addend: 0x0, symName: _ggml_fp32_to_fp16, symObjAddr: 0x42C, symBinAddr: 0x8000C, symSize: 0x10 }
  - { offset: 0x1EC3C7, size: 0x8, addend: 0x0, symName: _ggml_fp32_to_fp16, symObjAddr: 0x42C, symBinAddr: 0x8000C, symSize: 0x10 }
  - { offset: 0x1EC445, size: 0x8, addend: 0x0, symName: _ggml_bf16_to_fp32, symObjAddr: 0x43C, symBinAddr: 0x8001C, symSize: 0xC }
  - { offset: 0x1EC473, size: 0x8, addend: 0x0, symName: _ggml_bf16_to_fp32, symObjAddr: 0x43C, symBinAddr: 0x8001C, symSize: 0xC }
  - { offset: 0x1EC4F9, size: 0x8, addend: 0x0, symName: _ggml_fp32_to_bf16, symObjAddr: 0x448, symBinAddr: 0x80028, symSize: 0x38 }
  - { offset: 0x1EC55B, size: 0x8, addend: 0x0, symName: _ggml_fp16_to_fp32_row, symObjAddr: 0x480, symBinAddr: 0x80060, symSize: 0x98 }
  - { offset: 0x1EC59F, size: 0x8, addend: 0x0, symName: _ggml_fp16_to_fp32_row, symObjAddr: 0x480, symBinAddr: 0x80060, symSize: 0x98 }
  - { offset: 0x1EC5D9, size: 0x8, addend: 0x0, symName: _ggml_fp32_to_fp16_row, symObjAddr: 0x518, symBinAddr: 0x800F8, symSize: 0x98 }
  - { offset: 0x1EC633, size: 0x8, addend: 0x0, symName: _ggml_bf16_to_fp32_row, symObjAddr: 0x5B0, symBinAddr: 0x80190, symSize: 0xB0 }
  - { offset: 0x1EC6AC, size: 0x8, addend: 0x0, symName: _ggml_fp32_to_bf16_row_ref, symObjAddr: 0x660, symBinAddr: 0x80240, symSize: 0xE4 }
  - { offset: 0x1EC6D8, size: 0x8, addend: 0x0, symName: _ggml_fp32_to_bf16_row_ref, symObjAddr: 0x660, symBinAddr: 0x80240, symSize: 0xE4 }
  - { offset: 0x1EC70B, size: 0x8, addend: 0x0, symName: _ggml_fp32_to_bf16_row, symObjAddr: 0x744, symBinAddr: 0x80324, symSize: 0xE4 }
  - { offset: 0x1EC77A, size: 0x8, addend: 0x0, symName: _ggml_guid_matches, symObjAddr: 0x828, symBinAddr: 0x80408, symSize: 0x18 }
  - { offset: 0x1EC7B6, size: 0x8, addend: 0x0, symName: _ggml_time_init, symObjAddr: 0x840, symBinAddr: 0x80420, symSize: 0x4 }
  - { offset: 0x1EC7CD, size: 0x8, addend: 0x0, symName: _ggml_time_ms, symObjAddr: 0x844, symBinAddr: 0x80424, symSize: 0x50 }
  - { offset: 0x1EC877, size: 0x8, addend: 0x0, symName: _ggml_time_us, symObjAddr: 0x894, symBinAddr: 0x80474, symSize: 0x54 }
  - { offset: 0x1EC8BF, size: 0x8, addend: 0x0, symName: _ggml_cycles, symObjAddr: 0x8E8, symBinAddr: 0x804C8, symSize: 0x4 }
  - { offset: 0x1EC8DE, size: 0x8, addend: 0x0, symName: _ggml_cycles, symObjAddr: 0x8E8, symBinAddr: 0x804C8, symSize: 0x4 }
  - { offset: 0x1EC8F9, size: 0x8, addend: 0x0, symName: _ggml_cycles_per_ms, symObjAddr: 0x8EC, symBinAddr: 0x804CC, symSize: 0x8 }
  - { offset: 0x1EC914, size: 0x8, addend: 0x0, symName: _ggml_fopen, symObjAddr: 0x8F4, symBinAddr: 0x804D4, symSize: 0x4 }
  - { offset: 0x1EC93C, size: 0x8, addend: 0x0, symName: _ggml_fopen, symObjAddr: 0x8F4, symBinAddr: 0x804D4, symSize: 0x4 }
  - { offset: 0x1EC975, size: 0x8, addend: 0x0, symName: _ggml_get_type_traits, symObjAddr: 0x8F8, symBinAddr: 0x804D8, symSize: 0x4C }
  - { offset: 0x1EC9A5, size: 0x8, addend: 0x0, symName: _ggml_print_object, symObjAddr: 0x944, symBinAddr: 0x80524, symSize: 0x40 }
  - { offset: 0x1EC9B9, size: 0x8, addend: 0x0, symName: _ggml_print_object, symObjAddr: 0x944, symBinAddr: 0x80524, symSize: 0x40 }
  - { offset: 0x1ECA11, size: 0x8, addend: 0x0, symName: _ggml_print_objects, symObjAddr: 0x984, symBinAddr: 0x80564, symSize: 0x94 }
  - { offset: 0x1ECAB0, size: 0x8, addend: 0x0, symName: _ggml_nelements, symObjAddr: 0xA18, symBinAddr: 0x805F8, symSize: 0x18 }
  - { offset: 0x1ECACF, size: 0x8, addend: 0x0, symName: _ggml_nrows, symObjAddr: 0xA30, symBinAddr: 0x80610, symSize: 0x14 }
  - { offset: 0x1ECB34, size: 0x8, addend: 0x0, symName: _ggml_nbytes, symObjAddr: 0xA44, symBinAddr: 0x80624, symSize: 0xB8 }
  - { offset: 0x1ECB66, size: 0x8, addend: 0x0, symName: _ggml_nbytes, symObjAddr: 0xA44, symBinAddr: 0x80624, symSize: 0xB8 }
  - { offset: 0x1ECBC5, size: 0x8, addend: 0x0, symName: _ggml_blck_size, symObjAddr: 0xAFC, symBinAddr: 0x806DC, symSize: 0x18 }
  - { offset: 0x1ECBE4, size: 0x8, addend: 0x0, symName: _ggml_type_size, symObjAddr: 0xB14, symBinAddr: 0x806F4, symSize: 0x18 }
  - { offset: 0x1ECC75, size: 0x8, addend: 0x0, symName: _ggml_nbytes_pad, symObjAddr: 0xB2C, symBinAddr: 0x8070C, symSize: 0xAC }
  - { offset: 0x1ECCCD, size: 0x8, addend: 0x0, symName: _ggml_nbytes_pad, symObjAddr: 0xB2C, symBinAddr: 0x8070C, symSize: 0xAC }
  - { offset: 0x1ECD2A, size: 0x8, addend: 0x0, symName: _ggml_row_size, symObjAddr: 0xBD8, symBinAddr: 0x807B8, symSize: 0x24 }
  - { offset: 0x1ECD54, size: 0x8, addend: 0x0, symName: _ggml_row_size, symObjAddr: 0xBD8, symBinAddr: 0x807B8, symSize: 0x24 }
  - { offset: 0x1ECD86, size: 0x8, addend: 0x0, symName: _ggml_type_sizef, symObjAddr: 0xBFC, symBinAddr: 0x807DC, symSize: 0x28 }
  - { offset: 0x1ECDB1, size: 0x8, addend: 0x0, symName: _ggml_type_name, symObjAddr: 0xC24, symBinAddr: 0x80804, symSize: 0x2C }
  - { offset: 0x1ECDD0, size: 0x8, addend: 0x0, symName: _ggml_is_quantized, symObjAddr: 0xC50, symBinAddr: 0x80830, symSize: 0x18 }
  - { offset: 0x1ECDEF, size: 0x8, addend: 0x0, symName: _ggml_op_name, symObjAddr: 0xC68, symBinAddr: 0x80848, symSize: 0x10 }
  - { offset: 0x1ECE0E, size: 0x8, addend: 0x0, symName: _ggml_op_symbol, symObjAddr: 0xC78, symBinAddr: 0x80858, symSize: 0x10 }
  - { offset: 0x1ECE2D, size: 0x8, addend: 0x0, symName: _ggml_unary_op_name, symObjAddr: 0xC88, symBinAddr: 0x80868, symSize: 0x10 }
  - { offset: 0x1ECEC6, size: 0x8, addend: 0x0, symName: _ggml_op_desc, symObjAddr: 0xC98, symBinAddr: 0x80878, symSize: 0x38 }
  - { offset: 0x1ECF80, size: 0x8, addend: 0x0, symName: _ggml_get_unary_op, symObjAddr: 0xCD0, symBinAddr: 0x808B0, symSize: 0x44 }
  - { offset: 0x1ECFC8, size: 0x8, addend: 0x0, symName: _ggml_element_size, symObjAddr: 0xD14, symBinAddr: 0x808F4, symSize: 0x1C }
  - { offset: 0x1ECFDC, size: 0x8, addend: 0x0, symName: _ggml_element_size, symObjAddr: 0xD14, symBinAddr: 0x808F4, symSize: 0x1C }
  - { offset: 0x1ED011, size: 0x8, addend: 0x0, symName: _ggml_is_scalar, symObjAddr: 0xD30, symBinAddr: 0x80910, symSize: 0x3C }
  - { offset: 0x1ED030, size: 0x8, addend: 0x0, symName: _ggml_is_vector, symObjAddr: 0xD6C, symBinAddr: 0x8094C, symSize: 0x30 }
  - { offset: 0x1ED04F, size: 0x8, addend: 0x0, symName: _ggml_is_matrix, symObjAddr: 0xD9C, symBinAddr: 0x8097C, symSize: 0x24 }
  - { offset: 0x1ED06E, size: 0x8, addend: 0x0, symName: _ggml_is_3d, symObjAddr: 0xDC0, symBinAddr: 0x809A0, symSize: 0x10 }
  - { offset: 0x1ED08D, size: 0x8, addend: 0x0, symName: _ggml_n_dims, symObjAddr: 0xDD0, symBinAddr: 0x809B0, symSize: 0x3C }
  - { offset: 0x1ED0D2, size: 0x8, addend: 0x0, symName: _ggml_ftype_to_ggml_type, symObjAddr: 0xE0C, symBinAddr: 0x809EC, symSize: 0x58 }
  - { offset: 0x1ED113, size: 0x8, addend: 0x0, symName: _ggml_tensor_overhead, symObjAddr: 0xE64, symBinAddr: 0x80A44, symSize: 0x8 }
  - { offset: 0x1ED127, size: 0x8, addend: 0x0, symName: _ggml_tensor_overhead, symObjAddr: 0xE64, symBinAddr: 0x80A44, symSize: 0x8 }
  - { offset: 0x1ED142, size: 0x8, addend: 0x0, symName: _ggml_is_transposed, symObjAddr: 0xE6C, symBinAddr: 0x80A4C, symSize: 0x10 }
  - { offset: 0x1ED1C3, size: 0x8, addend: 0x0, symName: _ggml_is_contiguous, symObjAddr: 0xE7C, symBinAddr: 0x80A5C, symSize: 0x9C }
  - { offset: 0x1ED1E5, size: 0x8, addend: 0x0, symName: _ggml_is_contiguous, symObjAddr: 0xE7C, symBinAddr: 0x80A5C, symSize: 0x9C }
  - { offset: 0x1ED203, size: 0x8, addend: 0x0, symName: _ggml_is_contiguous, symObjAddr: 0xE7C, symBinAddr: 0x80A5C, symSize: 0x9C }
  - { offset: 0x1ED276, size: 0x8, addend: 0x0, symName: _ggml_is_contiguous_0, symObjAddr: 0xF18, symBinAddr: 0x80AF8, symSize: 0x9C }
  - { offset: 0x1ED298, size: 0x8, addend: 0x0, symName: _ggml_is_contiguous_0, symObjAddr: 0xF18, symBinAddr: 0x80AF8, symSize: 0x9C }
  - { offset: 0x1ED30A, size: 0x8, addend: 0x0, symName: _ggml_is_contiguous_1, symObjAddr: 0xFB4, symBinAddr: 0x80B94, symSize: 0xB0 }
  - { offset: 0x1ED32C, size: 0x8, addend: 0x0, symName: _ggml_is_contiguous_1, symObjAddr: 0xFB4, symBinAddr: 0x80B94, symSize: 0xB0 }
  - { offset: 0x1ED396, size: 0x8, addend: 0x0, symName: _ggml_is_contiguous_2, symObjAddr: 0x1064, symBinAddr: 0x80C44, symSize: 0x9C }
  - { offset: 0x1ED3C6, size: 0x8, addend: 0x0, symName: _ggml_is_contiguous_2, symObjAddr: 0x1064, symBinAddr: 0x80C44, symSize: 0x9C }
  - { offset: 0x1ED44C, size: 0x8, addend: 0x0, symName: _ggml_is_contiguously_allocated, symObjAddr: 0x1100, symBinAddr: 0x80CE0, symSize: 0xCC }
  - { offset: 0x1ED4A4, size: 0x8, addend: 0x0, symName: _ggml_is_contiguously_allocated, symObjAddr: 0x1100, symBinAddr: 0x80CE0, symSize: 0xCC }
  - { offset: 0x1ED54C, size: 0x8, addend: 0x0, symName: _ggml_is_permuted, symObjAddr: 0x11CC, symBinAddr: 0x80DAC, symSize: 0x38 }
  - { offset: 0x1ED579, size: 0x8, addend: 0x0, symName: _ggml_is_contiguous_channels, symObjAddr: 0x1204, symBinAddr: 0x80DE4, symSize: 0x48 }
  - { offset: 0x1ED5AE, size: 0x8, addend: 0x0, symName: _ggml_is_empty, symObjAddr: 0x124C, symBinAddr: 0x80E2C, symSize: 0x30 }
  - { offset: 0x1ED5CC, size: 0x8, addend: 0x0, symName: _ggml_is_empty, symObjAddr: 0x124C, symBinAddr: 0x80E2C, symSize: 0x30 }
  - { offset: 0x1ED5E6, size: 0x8, addend: 0x0, symName: _ggml_are_same_shape, symObjAddr: 0x127C, symBinAddr: 0x80E5C, symSize: 0x4C }
  - { offset: 0x1ED60D, size: 0x8, addend: 0x0, symName: _ggml_are_same_stride, symObjAddr: 0x12C8, symBinAddr: 0x80EA8, symSize: 0x4C }
  - { offset: 0x1ED675, size: 0x8, addend: 0x0, symName: _ggml_can_repeat, symObjAddr: 0x1314, symBinAddr: 0x80EF4, symSize: 0xA0 }
  - { offset: 0x1ED69F, size: 0x8, addend: 0x0, symName: _ggml_can_repeat, symObjAddr: 0x1314, symBinAddr: 0x80EF4, symSize: 0xA0 }
  - { offset: 0x1ED6B9, size: 0x8, addend: 0x0, symName: _ggml_can_repeat, symObjAddr: 0x1314, symBinAddr: 0x80EF4, symSize: 0xA0 }
  - { offset: 0x1ED7B1, size: 0x8, addend: 0x0, symName: _ggml_reset, symObjAddr: 0x15D4, symBinAddr: 0x811B4, symSize: 0x14 }
  - { offset: 0x1ED7FD, size: 0x8, addend: 0x0, symName: _ggml_free, symObjAddr: 0x15E8, symBinAddr: 0x811C8, symSize: 0x40 }
  - { offset: 0x1ED863, size: 0x8, addend: 0x0, symName: _ggml_used_mem, symObjAddr: 0x1628, symBinAddr: 0x81208, symSize: 0x1C }
  - { offset: 0x1ED890, size: 0x8, addend: 0x0, symName: _ggml_get_no_alloc, symObjAddr: 0x1644, symBinAddr: 0x81224, symSize: 0x8 }
  - { offset: 0x1ED8BD, size: 0x8, addend: 0x0, symName: _ggml_set_no_alloc, symObjAddr: 0x164C, symBinAddr: 0x8122C, symSize: 0x8 }
  - { offset: 0x1ED8F1, size: 0x8, addend: 0x0, symName: _ggml_get_mem_buffer, symObjAddr: 0x1654, symBinAddr: 0x81234, symSize: 0x8 }
  - { offset: 0x1ED91E, size: 0x8, addend: 0x0, symName: _ggml_get_mem_size, symObjAddr: 0x165C, symBinAddr: 0x8123C, symSize: 0x8 }
  - { offset: 0x1EDA43, size: 0x8, addend: 0x0, symName: _ggml_get_max_tensor_size, symObjAddr: 0x1664, symBinAddr: 0x81244, symSize: 0xFC }
  - { offset: 0x1EDA9B, size: 0x8, addend: 0x0, symName: _ggml_get_max_tensor_size, symObjAddr: 0x1664, symBinAddr: 0x81244, symSize: 0xFC }
  - { offset: 0x1EDB8F, size: 0x8, addend: 0x0, symName: _ggml_get_first_tensor, symObjAddr: 0x1760, symBinAddr: 0x81340, symSize: 0x30 }
  - { offset: 0x1EDBC2, size: 0x8, addend: 0x0, symName: _ggml_get_next_tensor, symObjAddr: 0x1790, symBinAddr: 0x81370, symSize: 0x30 }
  - { offset: 0x1EDBFD, size: 0x8, addend: 0x0, symName: _ggml_new_tensor, symObjAddr: 0x17C0, symBinAddr: 0x813A0, symSize: 0xC }
  - { offset: 0x1EDC6D, size: 0x8, addend: 0x0, symName: _ggml_new_tensor_impl, symObjAddr: 0x17CC, symBinAddr: 0x813AC, symSize: 0x3C8 }
  - { offset: 0x1EE091, size: 0x8, addend: 0x0, symName: _ggml_new_tensor_1d, symObjAddr: 0x1B94, symBinAddr: 0x81774, symSize: 0x30 }
  - { offset: 0x1EE134, size: 0x8, addend: 0x0, symName: _ggml_new_tensor_2d, symObjAddr: 0x1BC4, symBinAddr: 0x817A4, symSize: 0x5C }
  - { offset: 0x1EE1EE, size: 0x8, addend: 0x0, symName: _ggml_new_tensor_3d, symObjAddr: 0x1C20, symBinAddr: 0x81800, symSize: 0x60 }
  - { offset: 0x1EE2B0, size: 0x8, addend: 0x0, symName: _ggml_new_tensor_4d, symObjAddr: 0x1C80, symBinAddr: 0x81860, symSize: 0x60 }
  - { offset: 0x1EE37E, size: 0x8, addend: 0x0, symName: _ggml_new_buffer, symObjAddr: 0x1CE0, symBinAddr: 0x818C0, symSize: 0xDC }
  - { offset: 0x1EE45B, size: 0x8, addend: 0x0, symName: _ggml_dup_tensor, symObjAddr: 0x1DBC, symBinAddr: 0x8199C, symSize: 0x18 }
  - { offset: 0x1EE4E1, size: 0x8, addend: 0x0, symName: _ggml_unravel_index, symObjAddr: 0x1DD4, symBinAddr: 0x819B4, symSize: 0x4C }
  - { offset: 0x1EE5CA, size: 0x8, addend: 0x0, symName: _ggml_get_data, symObjAddr: 0x1E20, symBinAddr: 0x81A00, symSize: 0x8 }
  - { offset: 0x1EE5F7, size: 0x8, addend: 0x0, symName: _ggml_get_data_f32, symObjAddr: 0x1E28, symBinAddr: 0x81A08, symSize: 0x8 }
  - { offset: 0x1EE624, size: 0x8, addend: 0x0, symName: _ggml_get_name, symObjAddr: 0x1E30, symBinAddr: 0x81A10, symSize: 0x8 }
  - { offset: 0x1EE643, size: 0x8, addend: 0x0, symName: _ggml_set_name, symObjAddr: 0x1E38, symBinAddr: 0x81A18, symSize: 0x2C }
  - { offset: 0x1EE68E, size: 0x8, addend: 0x0, symName: _ggml_format_name, symObjAddr: 0x1E64, symBinAddr: 0x81A44, symSize: 0x44 }
  - { offset: 0x1EE6DE, size: 0x8, addend: 0x0, symName: _ggml_view_tensor, symObjAddr: 0x1EA8, symBinAddr: 0x81A88, symSize: 0x70 }
  - { offset: 0x1EE769, size: 0x8, addend: 0x0, symName: _ggml_get_tensor, symObjAddr: 0x1F18, symBinAddr: 0x81AF8, symSize: 0x78 }
  - { offset: 0x1EE88C, size: 0x8, addend: 0x0, symName: _ggml_dup, symObjAddr: 0x1F90, symBinAddr: 0x81B70, symSize: 0x40 }
  - { offset: 0x1EE9D7, size: 0x8, addend: 0x0, symName: _ggml_dup_inplace, symObjAddr: 0x1FD0, symBinAddr: 0x81BB0, symSize: 0x7C }
  - { offset: 0x1EEADC, size: 0x8, addend: 0x0, symName: _ggml_add, symObjAddr: 0x204C, symBinAddr: 0x81C2C, symSize: 0x8 }
  - { offset: 0x1EEB52, size: 0x8, addend: 0x0, symName: _ggml_add_impl, symObjAddr: 0x2054, symBinAddr: 0x81C34, symSize: 0x144 }
  - { offset: 0x1EED2E, size: 0x8, addend: 0x0, symName: _ggml_add_inplace, symObjAddr: 0x2198, symBinAddr: 0x81D78, symSize: 0x8 }
  - { offset: 0x1EED6B, size: 0x8, addend: 0x0, symName: _ggml_add_inplace, symObjAddr: 0x2198, symBinAddr: 0x81D78, symSize: 0x8 }
  - { offset: 0x1EEE76, size: 0x8, addend: 0x0, symName: _ggml_add_cast, symObjAddr: 0x21A0, symBinAddr: 0x81D80, symSize: 0x13C }
  - { offset: 0x1EF05F, size: 0x8, addend: 0x0, symName: _ggml_add1, symObjAddr: 0x22DC, symBinAddr: 0x81EBC, symSize: 0x8 }
  - { offset: 0x1EF073, size: 0x8, addend: 0x0, symName: _ggml_add1, symObjAddr: 0x22DC, symBinAddr: 0x81EBC, symSize: 0x8 }
  - { offset: 0x1EF0E9, size: 0x8, addend: 0x0, symName: _ggml_add1_impl, symObjAddr: 0x22E4, symBinAddr: 0x81EC4, symSize: 0x15C }
  - { offset: 0x1EF2D3, size: 0x8, addend: 0x0, symName: _ggml_add1_inplace, symObjAddr: 0x2440, symBinAddr: 0x82020, symSize: 0x8 }
  - { offset: 0x1EF31F, size: 0x8, addend: 0x0, symName: _ggml_add1_inplace, symObjAddr: 0x2440, symBinAddr: 0x82020, symSize: 0x8 }
  - { offset: 0x1EF395, size: 0x8, addend: 0x0, symName: _ggml_acc, symObjAddr: 0x2448, symBinAddr: 0x82028, symSize: 0x8 }
  - { offset: 0x1EF467, size: 0x8, addend: 0x0, symName: _ggml_acc_impl, symObjAddr: 0x2450, symBinAddr: 0x82030, symSize: 0x23C }
  - { offset: 0x1EF781, size: 0x8, addend: 0x0, symName: _ggml_acc_inplace, symObjAddr: 0x268C, symBinAddr: 0x8226C, symSize: 0x8 }
  - { offset: 0x1EF7DE, size: 0x8, addend: 0x0, symName: _ggml_acc_inplace, symObjAddr: 0x268C, symBinAddr: 0x8226C, symSize: 0x8 }
  - { offset: 0x1EF8B0, size: 0x8, addend: 0x0, symName: _ggml_sub, symObjAddr: 0x2694, symBinAddr: 0x82274, symSize: 0x8 }
  - { offset: 0x1EF926, size: 0x8, addend: 0x0, symName: _ggml_sub_impl, symObjAddr: 0x269C, symBinAddr: 0x8227C, symSize: 0x144 }
  - { offset: 0x1EFB02, size: 0x8, addend: 0x0, symName: _ggml_sub_inplace, symObjAddr: 0x27E0, symBinAddr: 0x823C0, symSize: 0x8 }
  - { offset: 0x1EFB16, size: 0x8, addend: 0x0, symName: _ggml_sub_inplace, symObjAddr: 0x27E0, symBinAddr: 0x823C0, symSize: 0x8 }
  - { offset: 0x1EFB8C, size: 0x8, addend: 0x0, symName: _ggml_mul, symObjAddr: 0x27E8, symBinAddr: 0x823C8, symSize: 0x8 }
  - { offset: 0x1EFBE6, size: 0x8, addend: 0x0, symName: _ggml_mul_impl, symObjAddr: 0x27F0, symBinAddr: 0x823D0, symSize: 0x144 }
  - { offset: 0x1EFDC2, size: 0x8, addend: 0x0, symName: _ggml_mul_inplace, symObjAddr: 0x2934, symBinAddr: 0x82514, symSize: 0x8 }
  - { offset: 0x1EFDD6, size: 0x8, addend: 0x0, symName: _ggml_mul_inplace, symObjAddr: 0x2934, symBinAddr: 0x82514, symSize: 0x8 }
  - { offset: 0x1EFE4C, size: 0x8, addend: 0x0, symName: _ggml_div, symObjAddr: 0x293C, symBinAddr: 0x8251C, symSize: 0x8 }
  - { offset: 0x1EFEA6, size: 0x8, addend: 0x0, symName: _ggml_div_impl, symObjAddr: 0x2944, symBinAddr: 0x82524, symSize: 0x144 }
  - { offset: 0x1F0082, size: 0x8, addend: 0x0, symName: _ggml_div_inplace, symObjAddr: 0x2A88, symBinAddr: 0x82668, symSize: 0x8 }
  - { offset: 0x1F0096, size: 0x8, addend: 0x0, symName: _ggml_div_inplace, symObjAddr: 0x2A88, symBinAddr: 0x82668, symSize: 0x8 }
  - { offset: 0x1F014F, size: 0x8, addend: 0x0, symName: _ggml_sqr, symObjAddr: 0x2A90, symBinAddr: 0x82670, symSize: 0x40 }
  - { offset: 0x1F0254, size: 0x8, addend: 0x0, symName: _ggml_sqr_inplace, symObjAddr: 0x2AD0, symBinAddr: 0x826B0, symSize: 0x7C }
  - { offset: 0x1F039C, size: 0x8, addend: 0x0, symName: _ggml_sqrt, symObjAddr: 0x2B4C, symBinAddr: 0x8272C, symSize: 0x40 }
  - { offset: 0x1F04A1, size: 0x8, addend: 0x0, symName: _ggml_sqrt_inplace, symObjAddr: 0x2B8C, symBinAddr: 0x8276C, symSize: 0x7C }
  - { offset: 0x1F05E9, size: 0x8, addend: 0x0, symName: _ggml_log, symObjAddr: 0x2C08, symBinAddr: 0x827E8, symSize: 0x40 }
  - { offset: 0x1F06EE, size: 0x8, addend: 0x0, symName: _ggml_log_inplace, symObjAddr: 0x2C48, symBinAddr: 0x82828, symSize: 0x7C }
  - { offset: 0x1F0836, size: 0x8, addend: 0x0, symName: _ggml_sin, symObjAddr: 0x2CC4, symBinAddr: 0x828A4, symSize: 0x40 }
  - { offset: 0x1F0926, size: 0x8, addend: 0x0, symName: _ggml_sin_inplace, symObjAddr: 0x2D04, symBinAddr: 0x828E4, symSize: 0x7C }
  - { offset: 0x1F0A6E, size: 0x8, addend: 0x0, symName: _ggml_cos, symObjAddr: 0x2D80, symBinAddr: 0x82960, symSize: 0x40 }
  - { offset: 0x1F0B5E, size: 0x8, addend: 0x0, symName: _ggml_cos_inplace, symObjAddr: 0x2DC0, symBinAddr: 0x829A0, symSize: 0x7C }
  - { offset: 0x1F0C99, size: 0x8, addend: 0x0, symName: _ggml_sum, symObjAddr: 0x2E3C, symBinAddr: 0x82A1C, symSize: 0x50 }
  - { offset: 0x1F0D88, size: 0x8, addend: 0x0, symName: _ggml_sum_rows, symObjAddr: 0x2E8C, symBinAddr: 0x82A6C, symSize: 0x8C }
  - { offset: 0x1F0E73, size: 0x8, addend: 0x0, symName: _ggml_mean, symObjAddr: 0x2F18, symBinAddr: 0x82AF8, symSize: 0x8C }
  - { offset: 0x1F0F3A, size: 0x8, addend: 0x0, symName: _ggml_argmax, symObjAddr: 0x2FA4, symBinAddr: 0x82B84, symSize: 0xC0 }
  - { offset: 0x1F105C, size: 0x8, addend: 0x0, symName: _ggml_count_equal, symObjAddr: 0x3064, symBinAddr: 0x82C44, symSize: 0xB8 }
  - { offset: 0x1F1099, size: 0x8, addend: 0x0, symName: _ggml_count_equal, symObjAddr: 0x3064, symBinAddr: 0x82C44, symSize: 0xB8 }
  - { offset: 0x1F11BF, size: 0x8, addend: 0x0, symName: _ggml_repeat, symObjAddr: 0x311C, symBinAddr: 0x82CFC, symSize: 0xF0 }
  - { offset: 0x1F11D3, size: 0x8, addend: 0x0, symName: _ggml_repeat, symObjAddr: 0x311C, symBinAddr: 0x82CFC, symSize: 0xF0 }
  - { offset: 0x1F1318, size: 0x8, addend: 0x0, symName: _ggml_repeat_4d, symObjAddr: 0x320C, symBinAddr: 0x82DEC, symSize: 0xF0 }
  - { offset: 0x1F13A4, size: 0x8, addend: 0x0, symName: _ggml_repeat_4d, symObjAddr: 0x320C, symBinAddr: 0x82DEC, symSize: 0xF0 }
  - { offset: 0x1F153F, size: 0x8, addend: 0x0, symName: _ggml_repeat_back, symObjAddr: 0x32FC, symBinAddr: 0x82EDC, symSize: 0xF0 }
  - { offset: 0x1F1553, size: 0x8, addend: 0x0, symName: _ggml_repeat_back, symObjAddr: 0x32FC, symBinAddr: 0x82EDC, symSize: 0xF0 }
  - { offset: 0x1F16A2, size: 0x8, addend: 0x0, symName: _ggml_concat, symObjAddr: 0x33EC, symBinAddr: 0x82FCC, symSize: 0x1BC }
  - { offset: 0x1F16E4, size: 0x8, addend: 0x0, symName: _ggml_concat, symObjAddr: 0x33EC, symBinAddr: 0x82FCC, symSize: 0x1BC }
  - { offset: 0x1F18F6, size: 0x8, addend: 0x0, symName: _ggml_abs, symObjAddr: 0x35A8, symBinAddr: 0x83188, symSize: 0x10C }
  - { offset: 0x1F1AC2, size: 0x8, addend: 0x0, symName: _ggml_unary, symObjAddr: 0x36B4, symBinAddr: 0x83294, symSize: 0x10C }
  - { offset: 0x1F1AD6, size: 0x8, addend: 0x0, symName: _ggml_unary, symObjAddr: 0x36B4, symBinAddr: 0x83294, symSize: 0x10C }
  - { offset: 0x1F1C9E, size: 0x8, addend: 0x0, symName: _ggml_abs_inplace, symObjAddr: 0x37C0, symBinAddr: 0x833A0, symSize: 0x8 }
  - { offset: 0x1F1CB2, size: 0x8, addend: 0x0, symName: _ggml_abs_inplace, symObjAddr: 0x37C0, symBinAddr: 0x833A0, symSize: 0x8 }
  - { offset: 0x1F1D11, size: 0x8, addend: 0x0, symName: _ggml_unary_inplace, symObjAddr: 0x37C8, symBinAddr: 0x833A8, symSize: 0x140 }
  - { offset: 0x1F1EEB, size: 0x8, addend: 0x0, symName: _ggml_sgn, symObjAddr: 0x3908, symBinAddr: 0x834E8, symSize: 0x10C }
  - { offset: 0x1F1EFF, size: 0x8, addend: 0x0, symName: _ggml_sgn, symObjAddr: 0x3908, symBinAddr: 0x834E8, symSize: 0x10C }
  - { offset: 0x1F20CB, size: 0x8, addend: 0x0, symName: _ggml_sgn_inplace, symObjAddr: 0x3A14, symBinAddr: 0x835F4, symSize: 0x8 }
  - { offset: 0x1F20DF, size: 0x8, addend: 0x0, symName: _ggml_sgn_inplace, symObjAddr: 0x3A14, symBinAddr: 0x835F4, symSize: 0x8 }
  - { offset: 0x1F213E, size: 0x8, addend: 0x0, symName: _ggml_neg, symObjAddr: 0x3A1C, symBinAddr: 0x835FC, symSize: 0x10C }
  - { offset: 0x1F22F5, size: 0x8, addend: 0x0, symName: _ggml_neg_inplace, symObjAddr: 0x3B28, symBinAddr: 0x83708, symSize: 0x8 }
  - { offset: 0x1F2309, size: 0x8, addend: 0x0, symName: _ggml_neg_inplace, symObjAddr: 0x3B28, symBinAddr: 0x83708, symSize: 0x8 }
  - { offset: 0x1F2368, size: 0x8, addend: 0x0, symName: _ggml_step, symObjAddr: 0x3B30, symBinAddr: 0x83710, symSize: 0x10C }
  - { offset: 0x1F2534, size: 0x8, addend: 0x0, symName: _ggml_step_inplace, symObjAddr: 0x3C3C, symBinAddr: 0x8381C, symSize: 0x8 }
  - { offset: 0x1F2548, size: 0x8, addend: 0x0, symName: _ggml_step_inplace, symObjAddr: 0x3C3C, symBinAddr: 0x8381C, symSize: 0x8 }
  - { offset: 0x1F25A7, size: 0x8, addend: 0x0, symName: _ggml_tanh, symObjAddr: 0x3C44, symBinAddr: 0x83824, symSize: 0x10C }
  - { offset: 0x1F2773, size: 0x8, addend: 0x0, symName: _ggml_tanh_inplace, symObjAddr: 0x3D50, symBinAddr: 0x83930, symSize: 0x8 }
  - { offset: 0x1F2787, size: 0x8, addend: 0x0, symName: _ggml_tanh_inplace, symObjAddr: 0x3D50, symBinAddr: 0x83930, symSize: 0x8 }
  - { offset: 0x1F27E6, size: 0x8, addend: 0x0, symName: _ggml_elu, symObjAddr: 0x3D58, symBinAddr: 0x83938, symSize: 0x10C }
  - { offset: 0x1F29B2, size: 0x8, addend: 0x0, symName: _ggml_elu_inplace, symObjAddr: 0x3E64, symBinAddr: 0x83A44, symSize: 0x8 }
  - { offset: 0x1F29C6, size: 0x8, addend: 0x0, symName: _ggml_elu_inplace, symObjAddr: 0x3E64, symBinAddr: 0x83A44, symSize: 0x8 }
  - { offset: 0x1F2A25, size: 0x8, addend: 0x0, symName: _ggml_relu, symObjAddr: 0x3E6C, symBinAddr: 0x83A4C, symSize: 0x10C }
  - { offset: 0x1F2BF1, size: 0x8, addend: 0x0, symName: _ggml_relu_inplace, symObjAddr: 0x3F78, symBinAddr: 0x83B58, symSize: 0x8 }
  - { offset: 0x1F2C05, size: 0x8, addend: 0x0, symName: _ggml_relu_inplace, symObjAddr: 0x3F78, symBinAddr: 0x83B58, symSize: 0x8 }
  - { offset: 0x1F2C64, size: 0x8, addend: 0x0, symName: _ggml_leaky_relu, symObjAddr: 0x3F80, symBinAddr: 0x83B60, symSize: 0xCC }
  - { offset: 0x1F2DF5, size: 0x8, addend: 0x0, symName: _ggml_sigmoid, symObjAddr: 0x404C, symBinAddr: 0x83C2C, symSize: 0x10C }
  - { offset: 0x1F2E08, size: 0x8, addend: 0x0, symName: _ggml_sigmoid, symObjAddr: 0x404C, symBinAddr: 0x83C2C, symSize: 0x10C }
  - { offset: 0x1F2FD4, size: 0x8, addend: 0x0, symName: _ggml_sigmoid_inplace, symObjAddr: 0x4158, symBinAddr: 0x83D38, symSize: 0x8 }
  - { offset: 0x1F2FE8, size: 0x8, addend: 0x0, symName: _ggml_sigmoid_inplace, symObjAddr: 0x4158, symBinAddr: 0x83D38, symSize: 0x8 }
  - { offset: 0x1F3047, size: 0x8, addend: 0x0, symName: _ggml_gelu, symObjAddr: 0x4160, symBinAddr: 0x83D40, symSize: 0x10C }
  - { offset: 0x1F3213, size: 0x8, addend: 0x0, symName: _ggml_gelu_inplace, symObjAddr: 0x426C, symBinAddr: 0x83E4C, symSize: 0x8 }
  - { offset: 0x1F3227, size: 0x8, addend: 0x0, symName: _ggml_gelu_inplace, symObjAddr: 0x426C, symBinAddr: 0x83E4C, symSize: 0x8 }
  - { offset: 0x1F3286, size: 0x8, addend: 0x0, symName: _ggml_gelu_erf, symObjAddr: 0x4274, symBinAddr: 0x83E54, symSize: 0x10C }
  - { offset: 0x1F3452, size: 0x8, addend: 0x0, symName: _ggml_gelu_erf_inplace, symObjAddr: 0x4380, symBinAddr: 0x83F60, symSize: 0x8 }
  - { offset: 0x1F3466, size: 0x8, addend: 0x0, symName: _ggml_gelu_erf_inplace, symObjAddr: 0x4380, symBinAddr: 0x83F60, symSize: 0x8 }
  - { offset: 0x1F34C5, size: 0x8, addend: 0x0, symName: _ggml_gelu_quick, symObjAddr: 0x4388, symBinAddr: 0x83F68, symSize: 0x10C }
  - { offset: 0x1F3691, size: 0x8, addend: 0x0, symName: _ggml_gelu_quick_inplace, symObjAddr: 0x4494, symBinAddr: 0x84074, symSize: 0x8 }
  - { offset: 0x1F36A5, size: 0x8, addend: 0x0, symName: _ggml_gelu_quick_inplace, symObjAddr: 0x4494, symBinAddr: 0x84074, symSize: 0x8 }
  - { offset: 0x1F3704, size: 0x8, addend: 0x0, symName: _ggml_silu, symObjAddr: 0x449C, symBinAddr: 0x8407C, symSize: 0x10C }
  - { offset: 0x1F38D0, size: 0x8, addend: 0x0, symName: _ggml_silu_inplace, symObjAddr: 0x45A8, symBinAddr: 0x84188, symSize: 0x8 }
  - { offset: 0x1F38E4, size: 0x8, addend: 0x0, symName: _ggml_silu_inplace, symObjAddr: 0x45A8, symBinAddr: 0x84188, symSize: 0x8 }
  - { offset: 0x1F3943, size: 0x8, addend: 0x0, symName: _ggml_silu_back, symObjAddr: 0x45B0, symBinAddr: 0x84190, symSize: 0x44 }
  - { offset: 0x1F3A0B, size: 0x8, addend: 0x0, symName: _ggml_hardswish, symObjAddr: 0x45F4, symBinAddr: 0x841D4, symSize: 0x10C }
  - { offset: 0x1F3BD7, size: 0x8, addend: 0x0, symName: _ggml_hardsigmoid, symObjAddr: 0x4700, symBinAddr: 0x842E0, symSize: 0x10C }
  - { offset: 0x1F3BEB, size: 0x8, addend: 0x0, symName: _ggml_hardsigmoid, symObjAddr: 0x4700, symBinAddr: 0x842E0, symSize: 0x10C }
  - { offset: 0x1F3DB7, size: 0x8, addend: 0x0, symName: _ggml_exp, symObjAddr: 0x480C, symBinAddr: 0x843EC, symSize: 0x10C }
  - { offset: 0x1F3DCB, size: 0x8, addend: 0x0, symName: _ggml_exp, symObjAddr: 0x480C, symBinAddr: 0x843EC, symSize: 0x10C }
  - { offset: 0x1F3F97, size: 0x8, addend: 0x0, symName: _ggml_exp_inplace, symObjAddr: 0x4918, symBinAddr: 0x844F8, symSize: 0x8 }
  - { offset: 0x1F3FAB, size: 0x8, addend: 0x0, symName: _ggml_exp_inplace, symObjAddr: 0x4918, symBinAddr: 0x844F8, symSize: 0x8 }
  - { offset: 0x1F405A, size: 0x8, addend: 0x0, symName: _ggml_norm, symObjAddr: 0x4920, symBinAddr: 0x84500, symSize: 0x80 }
  - { offset: 0x1F4192, size: 0x8, addend: 0x0, symName: _ggml_norm_inplace, symObjAddr: 0x49A0, symBinAddr: 0x84580, symSize: 0x8C }
  - { offset: 0x1F41A5, size: 0x8, addend: 0x0, symName: _ggml_norm_inplace, symObjAddr: 0x49A0, symBinAddr: 0x84580, symSize: 0x8C }
  - { offset: 0x1F433A, size: 0x8, addend: 0x0, symName: _ggml_rms_norm, symObjAddr: 0x4A2C, symBinAddr: 0x8460C, symSize: 0x80 }
  - { offset: 0x1F4472, size: 0x8, addend: 0x0, symName: _ggml_rms_norm_inplace, symObjAddr: 0x4AAC, symBinAddr: 0x8468C, symSize: 0x8C }
  - { offset: 0x1F4485, size: 0x8, addend: 0x0, symName: _ggml_rms_norm_inplace, symObjAddr: 0x4AAC, symBinAddr: 0x8468C, symSize: 0x8C }
  - { offset: 0x1F45CA, size: 0x8, addend: 0x0, symName: _ggml_rms_norm_back, symObjAddr: 0x4B38, symBinAddr: 0x84718, symSize: 0x84 }
  - { offset: 0x1F46BA, size: 0x8, addend: 0x0, symName: _ggml_group_norm, symObjAddr: 0x4BBC, symBinAddr: 0x8479C, symSize: 0x54 }
  - { offset: 0x1F4758, size: 0x8, addend: 0x0, symName: _ggml_group_norm, symObjAddr: 0x4BBC, symBinAddr: 0x8479C, symSize: 0x54 }
  - { offset: 0x1F48D7, size: 0x8, addend: 0x0, symName: _ggml_group_norm_inplace, symObjAddr: 0x4C10, symBinAddr: 0x847F0, symSize: 0x90 }
  - { offset: 0x1F4AAC, size: 0x8, addend: 0x0, symName: _ggml_l2_norm, symObjAddr: 0x4CA0, symBinAddr: 0x84880, symSize: 0x50 }
  - { offset: 0x1F4BF4, size: 0x8, addend: 0x0, symName: _ggml_l2_norm_inplace, symObjAddr: 0x4CF0, symBinAddr: 0x848D0, symSize: 0x8C }
  - { offset: 0x1F4D87, size: 0x8, addend: 0x0, symName: _ggml_mul_mat, symObjAddr: 0x4D7C, symBinAddr: 0x8495C, symSize: 0x114 }
  - { offset: 0x1F4ED6, size: 0x8, addend: 0x0, symName: _ggml_mul_mat_set_prec, symObjAddr: 0x4E90, symBinAddr: 0x84A70, symSize: 0x44 }
  - { offset: 0x1F4F52, size: 0x8, addend: 0x0, symName: _ggml_mul_mat_id, symObjAddr: 0x4ED4, symBinAddr: 0x84AB4, symSize: 0x234 }
  - { offset: 0x1F4F66, size: 0x8, addend: 0x0, symName: _ggml_mul_mat_id, symObjAddr: 0x4ED4, symBinAddr: 0x84AB4, symSize: 0x234 }
  - { offset: 0x1F514E, size: 0x8, addend: 0x0, symName: _ggml_out_prod, symObjAddr: 0x5108, symBinAddr: 0x84CE8, symSize: 0x114 }
  - { offset: 0x1F529D, size: 0x8, addend: 0x0, symName: _ggml_scale, symObjAddr: 0x521C, symBinAddr: 0x84DFC, symSize: 0x8 }
  - { offset: 0x1F52FA, size: 0x8, addend: 0x0, symName: _ggml_scale_impl, symObjAddr: 0x5224, symBinAddr: 0x84E04, symSize: 0x138 }
  - { offset: 0x1F54C6, size: 0x8, addend: 0x0, symName: _ggml_scale_inplace, symObjAddr: 0x535C, symBinAddr: 0x84F3C, symSize: 0x8 }
  - { offset: 0x1F54D9, size: 0x8, addend: 0x0, symName: _ggml_scale_inplace, symObjAddr: 0x535C, symBinAddr: 0x84F3C, symSize: 0x8 }
  - { offset: 0x1F5552, size: 0x8, addend: 0x0, symName: _ggml_set, symObjAddr: 0x5364, symBinAddr: 0x84F44, symSize: 0x8 }
  - { offset: 0x1F5624, size: 0x8, addend: 0x0, symName: _ggml_set_impl, symObjAddr: 0x536C, symBinAddr: 0x84F4C, symSize: 0x174 }
  - { offset: 0x1F5855, size: 0x8, addend: 0x0, symName: _ggml_set_inplace, symObjAddr: 0x54E0, symBinAddr: 0x850C0, symSize: 0x8 }
  - { offset: 0x1F5868, size: 0x8, addend: 0x0, symName: _ggml_set_inplace, symObjAddr: 0x54E0, symBinAddr: 0x850C0, symSize: 0x8 }
  - { offset: 0x1F593A, size: 0x8, addend: 0x0, symName: _ggml_set_1d, symObjAddr: 0x54E8, symBinAddr: 0x850C8, symSize: 0x14 }
  - { offset: 0x1F59C9, size: 0x8, addend: 0x0, symName: _ggml_set_1d_inplace, symObjAddr: 0x54FC, symBinAddr: 0x850DC, symSize: 0x14 }
  - { offset: 0x1F5A58, size: 0x8, addend: 0x0, symName: _ggml_set_2d, symObjAddr: 0x5510, symBinAddr: 0x850F0, symSize: 0x10 }
  - { offset: 0x1F5AFE, size: 0x8, addend: 0x0, symName: _ggml_set_2d_inplace, symObjAddr: 0x5520, symBinAddr: 0x85100, symSize: 0x10 }
  - { offset: 0x1F5BE7, size: 0x8, addend: 0x0, symName: _ggml_cpy, symObjAddr: 0x5530, symBinAddr: 0x85110, symSize: 0x10C }
  - { offset: 0x1F5D3A, size: 0x8, addend: 0x0, symName: _ggml_cast, symObjAddr: 0x563C, symBinAddr: 0x8521C, symSize: 0x5C }
  - { offset: 0x1F5D4E, size: 0x8, addend: 0x0, symName: _ggml_cast, symObjAddr: 0x563C, symBinAddr: 0x8521C, symSize: 0x5C }
  - { offset: 0x1F5E53, size: 0x8, addend: 0x0, symName: _ggml_cont, symObjAddr: 0x5698, symBinAddr: 0x85278, symSize: 0x5C }
  - { offset: 0x1F5FAC, size: 0x8, addend: 0x0, symName: _ggml_cont_1d, symObjAddr: 0x56F4, symBinAddr: 0x852D4, symSize: 0xDC }
  - { offset: 0x1F6139, size: 0x8, addend: 0x0, symName: _ggml_cont_4d, symObjAddr: 0x57D0, symBinAddr: 0x853B0, symSize: 0xDC }
  - { offset: 0x1F6290, size: 0x8, addend: 0x0, symName: _ggml_cont_2d, symObjAddr: 0x58AC, symBinAddr: 0x8548C, symSize: 0xDC }
  - { offset: 0x1F6431, size: 0x8, addend: 0x0, symName: _ggml_cont_3d, symObjAddr: 0x5988, symBinAddr: 0x85568, symSize: 0xDC }
  - { offset: 0x1F65E6, size: 0x8, addend: 0x0, symName: _ggml_reshape, symObjAddr: 0x5A64, symBinAddr: 0x85644, symSize: 0x158 }
  - { offset: 0x1F678A, size: 0x8, addend: 0x0, symName: _ggml_reshape_1d, symObjAddr: 0x5BBC, symBinAddr: 0x8579C, symSize: 0x170 }
  - { offset: 0x1F679E, size: 0x8, addend: 0x0, symName: _ggml_reshape_1d, symObjAddr: 0x5BBC, symBinAddr: 0x8579C, symSize: 0x170 }
  - { offset: 0x1F6957, size: 0x8, addend: 0x0, symName: _ggml_reshape_2d, symObjAddr: 0x5D2C, symBinAddr: 0x8590C, symSize: 0x174 }
  - { offset: 0x1F6B21, size: 0x8, addend: 0x0, symName: _ggml_reshape_3d, symObjAddr: 0x5EA0, symBinAddr: 0x85A80, symSize: 0x17C }
  - { offset: 0x1F6CFC, size: 0x8, addend: 0x0, symName: _ggml_reshape_4d, symObjAddr: 0x601C, symBinAddr: 0x85BFC, symSize: 0x180 }
  - { offset: 0x1F6F45, size: 0x8, addend: 0x0, symName: _ggml_view_1d, symObjAddr: 0x619C, symBinAddr: 0x85D7C, symSize: 0x90 }
  - { offset: 0x1F7061, size: 0x8, addend: 0x0, symName: _ggml_view_2d, symObjAddr: 0x622C, symBinAddr: 0x85E0C, symSize: 0xD4 }
  - { offset: 0x1F7074, size: 0x8, addend: 0x0, symName: _ggml_view_2d, symObjAddr: 0x622C, symBinAddr: 0x85E0C, symSize: 0xD4 }
  - { offset: 0x1F71DC, size: 0x8, addend: 0x0, symName: _ggml_view_3d, symObjAddr: 0x6300, symBinAddr: 0x85EE0, symSize: 0xE8 }
  - { offset: 0x1F7366, size: 0x8, addend: 0x0, symName: _ggml_view_4d, symObjAddr: 0x63E8, symBinAddr: 0x85FC8, symSize: 0xDC }
  - { offset: 0x1F74B4, size: 0x8, addend: 0x0, symName: _ggml_permute, symObjAddr: 0x64C4, symBinAddr: 0x860A4, symSize: 0x2F8 }
  - { offset: 0x1F7715, size: 0x8, addend: 0x0, symName: _ggml_transpose, symObjAddr: 0x67BC, symBinAddr: 0x8639C, symSize: 0xAC }
  - { offset: 0x1F77E1, size: 0x8, addend: 0x0, symName: _ggml_get_rows, symObjAddr: 0x6868, symBinAddr: 0x86448, symSize: 0x128 }
  - { offset: 0x1F79C7, size: 0x8, addend: 0x0, symName: _ggml_get_rows_back, symObjAddr: 0x6990, symBinAddr: 0x86570, symSize: 0x138 }
  - { offset: 0x1F7B67, size: 0x8, addend: 0x0, symName: _ggml_diag, symObjAddr: 0x6AC8, symBinAddr: 0x866A8, symSize: 0xB4 }
  - { offset: 0x1F7CAC, size: 0x8, addend: 0x0, symName: _ggml_diag_mask_inf, symObjAddr: 0x6B7C, symBinAddr: 0x8675C, symSize: 0x74 }
  - { offset: 0x1F7DE4, size: 0x8, addend: 0x0, symName: _ggml_diag_mask_inf_inplace, symObjAddr: 0x6BF0, symBinAddr: 0x867D0, symSize: 0x80 }
  - { offset: 0x1F7DF7, size: 0x8, addend: 0x0, symName: _ggml_diag_mask_inf_inplace, symObjAddr: 0x6BF0, symBinAddr: 0x867D0, symSize: 0x80 }
  - { offset: 0x1F7FA2, size: 0x8, addend: 0x0, symName: _ggml_diag_mask_zero, symObjAddr: 0x6C70, symBinAddr: 0x86850, symSize: 0x74 }
  - { offset: 0x1F80DA, size: 0x8, addend: 0x0, symName: _ggml_diag_mask_zero_inplace, symObjAddr: 0x6CE4, symBinAddr: 0x868C4, symSize: 0x80 }
  - { offset: 0x1F80ED, size: 0x8, addend: 0x0, symName: _ggml_diag_mask_zero_inplace, symObjAddr: 0x6CE4, symBinAddr: 0x868C4, symSize: 0x80 }
  - { offset: 0x1F823B, size: 0x8, addend: 0x0, symName: _ggml_soft_max, symObjAddr: 0x6D64, symBinAddr: 0x86944, symSize: 0x14 }
  - { offset: 0x1F82A0, size: 0x8, addend: 0x0, symName: _ggml_soft_max_impl, symObjAddr: 0x6D78, symBinAddr: 0x86958, symSize: 0x31C }
  - { offset: 0x1F8644, size: 0x8, addend: 0x0, symName: _ggml_soft_max_inplace, symObjAddr: 0x7094, symBinAddr: 0x86C74, symSize: 0x14 }
  - { offset: 0x1F8658, size: 0x8, addend: 0x0, symName: _ggml_soft_max_inplace, symObjAddr: 0x7094, symBinAddr: 0x86C74, symSize: 0x14 }
  - { offset: 0x1F86BD, size: 0x8, addend: 0x0, symName: _ggml_soft_max_ext, symObjAddr: 0x70A8, symBinAddr: 0x86C88, symSize: 0x8 }
  - { offset: 0x1F87D1, size: 0x8, addend: 0x0, symName: _ggml_soft_max_ext_back, symObjAddr: 0x70B0, symBinAddr: 0x86C90, symSize: 0x58 }
  - { offset: 0x1F88F9, size: 0x8, addend: 0x0, symName: _ggml_soft_max_ext_back_inplace, symObjAddr: 0x7108, symBinAddr: 0x86CE8, symSize: 0x94 }
  - { offset: 0x1F8A4B, size: 0x8, addend: 0x0, symName: _ggml_rope, symObjAddr: 0x719C, symBinAddr: 0x86D7C, symSize: 0x38 }
  - { offset: 0x1F8AFF, size: 0x8, addend: 0x0, symName: _ggml_rope_impl, symObjAddr: 0x71D4, symBinAddr: 0x86DB4, symSize: 0x298 }
  - { offset: 0x1F8DE2, size: 0x8, addend: 0x0, symName: _ggml_rope_multi, symObjAddr: 0x746C, symBinAddr: 0x8704C, symSize: 0x260 }
  - { offset: 0x1F8DF6, size: 0x8, addend: 0x0, symName: _ggml_rope_multi, symObjAddr: 0x746C, symBinAddr: 0x8704C, symSize: 0x260 }
  - { offset: 0x1F9071, size: 0x8, addend: 0x0, symName: _ggml_rope_inplace, symObjAddr: 0x76CC, symBinAddr: 0x872AC, symSize: 0x38 }
  - { offset: 0x1F9085, size: 0x8, addend: 0x0, symName: _ggml_rope_inplace, symObjAddr: 0x76CC, symBinAddr: 0x872AC, symSize: 0x38 }
  - { offset: 0x1F9139, size: 0x8, addend: 0x0, symName: _ggml_rope_ext, symObjAddr: 0x7704, symBinAddr: 0x872E4, symSize: 0x8 }
  - { offset: 0x1F9245, size: 0x8, addend: 0x0, symName: _ggml_rope_ext_inplace, symObjAddr: 0x770C, symBinAddr: 0x872EC, symSize: 0x8 }
  - { offset: 0x1F93B3, size: 0x8, addend: 0x0, symName: _ggml_rope_custom, symObjAddr: 0x7714, symBinAddr: 0x872F4, symSize: 0x18 }
  - { offset: 0x1F9516, size: 0x8, addend: 0x0, symName: _ggml_rope_custom_inplace, symObjAddr: 0x772C, symBinAddr: 0x8730C, symSize: 0x18 }
  - { offset: 0x1F96BC, size: 0x8, addend: 0x0, symName: _ggml_rope_yarn_corr_dims, symObjAddr: 0x7744, symBinAddr: 0x87324, symSize: 0xB8 }
  - { offset: 0x1F9879, size: 0x8, addend: 0x0, symName: _ggml_rope_ext_back, symObjAddr: 0x77FC, symBinAddr: 0x873DC, symSize: 0x20 }
  - { offset: 0x1F9A3C, size: 0x8, addend: 0x0, symName: _ggml_rope_multi_back, symObjAddr: 0x781C, symBinAddr: 0x873FC, symSize: 0x1C }
  - { offset: 0x1F9B72, size: 0x8, addend: 0x0, symName: _ggml_clamp, symObjAddr: 0x7838, symBinAddr: 0x87418, symSize: 0x90 }
  - { offset: 0x1F9CF5, size: 0x8, addend: 0x0, symName: _ggml_im2col, symObjAddr: 0x78C8, symBinAddr: 0x874A8, symSize: 0x27C }
  - { offset: 0x1F9F57, size: 0x8, addend: 0x0, symName: _ggml_im2col_back, symObjAddr: 0x7B44, symBinAddr: 0x87724, symSize: 0xA4 }
  - { offset: 0x1F9F6B, size: 0x8, addend: 0x0, symName: _ggml_im2col_back, symObjAddr: 0x7B44, symBinAddr: 0x87724, symSize: 0xA4 }
  - { offset: 0x1FA08B, size: 0x8, addend: 0x0, symName: _ggml_conv_1d, symObjAddr: 0x7BE8, symBinAddr: 0x877C8, symSize: 0xAC }
  - { offset: 0x1FA09E, size: 0x8, addend: 0x0, symName: _ggml_conv_1d, symObjAddr: 0x7BE8, symBinAddr: 0x877C8, symSize: 0xAC }
  - { offset: 0x1FA22A, size: 0x8, addend: 0x0, symName: _ggml_conv_1d_ph, symObjAddr: 0x7C94, symBinAddr: 0x87874, symSize: 0xB4 }
  - { offset: 0x1FA3AA, size: 0x8, addend: 0x0, symName: _ggml_conv_1d_dw, symObjAddr: 0x7D48, symBinAddr: 0x87928, symSize: 0xD0 }
  - { offset: 0x1FA56C, size: 0x8, addend: 0x0, symName: _ggml_conv_1d_dw_ph, symObjAddr: 0x7E18, symBinAddr: 0x879F8, symSize: 0xD4 }
  - { offset: 0x1FA760, size: 0x8, addend: 0x0, symName: _ggml_conv_transpose_1d, symObjAddr: 0x7EEC, symBinAddr: 0x87ACC, symSize: 0x1D0 }
  - { offset: 0x1FA9A6, size: 0x8, addend: 0x0, symName: _ggml_conv_2d, symObjAddr: 0x80BC, symBinAddr: 0x87C9C, symSize: 0x110 }
  - { offset: 0x1FAC49, size: 0x8, addend: 0x0, symName: _ggml_conv_2d_sk_p0, symObjAddr: 0x81CC, symBinAddr: 0x87DAC, symSize: 0x38 }
  - { offset: 0x1FACD1, size: 0x8, addend: 0x0, symName: _ggml_conv_2d_s1_ph, symObjAddr: 0x8204, symBinAddr: 0x87DE4, symSize: 0x44 }
  - { offset: 0x1FAD59, size: 0x8, addend: 0x0, symName: _ggml_conv_2d_dw, symObjAddr: 0x8248, symBinAddr: 0x87E28, symSize: 0x128 }
  - { offset: 0x1FAF60, size: 0x8, addend: 0x0, symName: _ggml_conv_2d_dw_direct, symObjAddr: 0x8370, symBinAddr: 0x87F50, symSize: 0x23C }
  - { offset: 0x1FB1DB, size: 0x8, addend: 0x0, symName: _ggml_conv_transpose_2d_p0, symObjAddr: 0x85AC, symBinAddr: 0x8818C, symSize: 0xE4 }
  - { offset: 0x1FB232, size: 0x8, addend: 0x0, symName: _ggml_conv_transpose_2d_p0, symObjAddr: 0x85AC, symBinAddr: 0x8818C, symSize: 0xE4 }
  - { offset: 0x1FB407, size: 0x8, addend: 0x0, symName: _ggml_pool_1d, symObjAddr: 0x8690, symBinAddr: 0x88270, symSize: 0x108 }
  - { offset: 0x1FB59A, size: 0x8, addend: 0x0, symName: _ggml_pool_2d, symObjAddr: 0x8798, symBinAddr: 0x88378, symSize: 0x13C }
  - { offset: 0x1FB797, size: 0x8, addend: 0x0, symName: _ggml_pool_2d_back, symObjAddr: 0x88D4, symBinAddr: 0x884B4, symSize: 0xC4 }
  - { offset: 0x1FB8A3, size: 0x8, addend: 0x0, symName: _ggml_upscale, symObjAddr: 0x8998, symBinAddr: 0x88578, symSize: 0x24 }
  - { offset: 0x1FB8B6, size: 0x8, addend: 0x0, symName: _ggml_upscale, symObjAddr: 0x8998, symBinAddr: 0x88578, symSize: 0x24 }
  - { offset: 0x1FB939, size: 0x8, addend: 0x0, symName: _ggml_upscale_impl, symObjAddr: 0x89BC, symBinAddr: 0x8859C, symSize: 0x150 }
  - { offset: 0x1FBB27, size: 0x8, addend: 0x0, symName: _ggml_upscale_ext, symObjAddr: 0x8B0C, symBinAddr: 0x886EC, symSize: 0x4 }
  - { offset: 0x1FBBAF, size: 0x8, addend: 0x0, symName: _ggml_upscale_ext, symObjAddr: 0x8B0C, symBinAddr: 0x886EC, symSize: 0x4 }
  - { offset: 0x1FBBF3, size: 0x8, addend: 0x0, symName: _ggml_pad, symObjAddr: 0x8B10, symBinAddr: 0x886F0, symSize: 0x94 }
  - { offset: 0x1FBD24, size: 0x8, addend: 0x0, symName: _ggml_pad_reflect_1d, symObjAddr: 0x8BA4, symBinAddr: 0x88784, symSize: 0x248 }
  - { offset: 0x1FBFE2, size: 0x8, addend: 0x0, symName: _ggml_arange, symObjAddr: 0x8DEC, symBinAddr: 0x889CC, symSize: 0x98 }
  - { offset: 0x1FC159, size: 0x8, addend: 0x0, symName: _ggml_timestep_embedding, symObjAddr: 0x8E84, symBinAddr: 0x88A64, symSize: 0x9C }
  - { offset: 0x1FC16D, size: 0x8, addend: 0x0, symName: _ggml_timestep_embedding, symObjAddr: 0x8E84, symBinAddr: 0x88A64, symSize: 0x9C }
  - { offset: 0x1FC2BA, size: 0x8, addend: 0x0, symName: _ggml_argsort, symObjAddr: 0x8F20, symBinAddr: 0x88B00, symSize: 0x80 }
  - { offset: 0x1FC388, size: 0x8, addend: 0x0, symName: _ggml_top_k, symObjAddr: 0x8FA0, symBinAddr: 0x88B80, symSize: 0x180 }
  - { offset: 0x1FC48A, size: 0x8, addend: 0x0, symName: _ggml_top_k, symObjAddr: 0x8FA0, symBinAddr: 0x88B80, symSize: 0x180 }
  - { offset: 0x1FC6E1, size: 0x8, addend: 0x0, symName: _ggml_flash_attn_ext, symObjAddr: 0x9120, symBinAddr: 0x88D00, symSize: 0x2BC }
  - { offset: 0x1FC992, size: 0x8, addend: 0x0, symName: _ggml_flash_attn_ext_set_prec, symObjAddr: 0x93DC, symBinAddr: 0x88FBC, symSize: 0x44 }
  - { offset: 0x1FC9A6, size: 0x8, addend: 0x0, symName: _ggml_flash_attn_ext_set_prec, symObjAddr: 0x93DC, symBinAddr: 0x88FBC, symSize: 0x44 }
  - { offset: 0x1FCA22, size: 0x8, addend: 0x0, symName: _ggml_flash_attn_ext_get_prec, symObjAddr: 0x9420, symBinAddr: 0x89000, symSize: 0x44 }
  - { offset: 0x1FCA36, size: 0x8, addend: 0x0, symName: _ggml_flash_attn_ext_get_prec, symObjAddr: 0x9420, symBinAddr: 0x89000, symSize: 0x44 }
  - { offset: 0x1FCA9D, size: 0x8, addend: 0x0, symName: _ggml_flash_attn_back, symObjAddr: 0x9464, symBinAddr: 0x89044, symSize: 0x20 }
  - { offset: 0x1FCAB1, size: 0x8, addend: 0x0, symName: _ggml_flash_attn_back, symObjAddr: 0x9464, symBinAddr: 0x89044, symSize: 0x20 }
  - { offset: 0x1FCB39, size: 0x8, addend: 0x0, symName: _ggml_ssm_conv, symObjAddr: 0x9484, symBinAddr: 0x89064, symSize: 0x160 }
  - { offset: 0x1FCBD4, size: 0x8, addend: 0x0, symName: _ggml_ssm_conv, symObjAddr: 0x9484, symBinAddr: 0x89064, symSize: 0x160 }
  - { offset: 0x1FCDC8, size: 0x8, addend: 0x0, symName: _ggml_ssm_scan, symObjAddr: 0x95E4, symBinAddr: 0x891C4, symSize: 0x624 }
  - { offset: 0x1FD465, size: 0x8, addend: 0x0, symName: _ggml_win_part, symObjAddr: 0x9C08, symBinAddr: 0x897E8, symSize: 0x164 }
  - { offset: 0x1FD479, size: 0x8, addend: 0x0, symName: _ggml_win_part, symObjAddr: 0x9C08, symBinAddr: 0x897E8, symSize: 0x164 }
  - { offset: 0x1FD61B, size: 0x8, addend: 0x0, symName: _ggml_win_unpart, symObjAddr: 0x9D6C, symBinAddr: 0x8994C, symSize: 0xE4 }
  - { offset: 0x1FD773, size: 0x8, addend: 0x0, symName: _ggml_get_rel_pos, symObjAddr: 0x9E50, symBinAddr: 0x89A30, symSize: 0xEC }
  - { offset: 0x1FD889, size: 0x8, addend: 0x0, symName: _ggml_add_rel_pos, symObjAddr: 0x9F3C, symBinAddr: 0x89B1C, symSize: 0x8 }
  - { offset: 0x1FD916, size: 0x8, addend: 0x0, symName: _ggml_add_rel_pos_impl, symObjAddr: 0x9F44, symBinAddr: 0x89B24, symSize: 0x3C4 }
  - { offset: 0x1FDDD4, size: 0x8, addend: 0x0, symName: _ggml_add_rel_pos_inplace, symObjAddr: 0xA308, symBinAddr: 0x89EE8, symSize: 0x8 }
  - { offset: 0x1FDDE8, size: 0x8, addend: 0x0, symName: _ggml_add_rel_pos_inplace, symObjAddr: 0xA308, symBinAddr: 0x89EE8, symSize: 0x8 }
  - { offset: 0x1FDE75, size: 0x8, addend: 0x0, symName: _ggml_rwkv_wkv6, symObjAddr: 0xA310, symBinAddr: 0x89EF0, symSize: 0x5B0 }
  - { offset: 0x1FE50B, size: 0x8, addend: 0x0, symName: _ggml_gated_linear_attn, symObjAddr: 0xA8C0, symBinAddr: 0x8A4A0, symSize: 0x50C }
  - { offset: 0x1FEB04, size: 0x8, addend: 0x0, symName: _ggml_rwkv_wkv7, symObjAddr: 0xADCC, symBinAddr: 0x8A9AC, symSize: 0x6A4 }
  - { offset: 0x1FF36E, size: 0x8, addend: 0x0, symName: _ggml_map_custom1, symObjAddr: 0xB470, symBinAddr: 0x8B050, symSize: 0xC8 }
  - { offset: 0x1FF4F8, size: 0x8, addend: 0x0, symName: _ggml_map_custom1_inplace, symObjAddr: 0xB538, symBinAddr: 0x8B118, symSize: 0xD4 }
  - { offset: 0x1FF50B, size: 0x8, addend: 0x0, symName: _ggml_map_custom1_inplace, symObjAddr: 0xB538, symBinAddr: 0x8B118, symSize: 0xD4 }
  - { offset: 0x1FF686, size: 0x8, addend: 0x0, symName: _ggml_map_custom2, symObjAddr: 0xB60C, symBinAddr: 0x8B1EC, symSize: 0xD4 }
  - { offset: 0x1FF78F, size: 0x8, addend: 0x0, symName: _ggml_map_custom2, symObjAddr: 0xB60C, symBinAddr: 0x8B1EC, symSize: 0xD4 }
  - { offset: 0x1FF934, size: 0x8, addend: 0x0, symName: _ggml_map_custom2_inplace, symObjAddr: 0xB6E0, symBinAddr: 0x8B2C0, symSize: 0xE0 }
  - { offset: 0x1FF947, size: 0x8, addend: 0x0, symName: _ggml_map_custom2_inplace, symObjAddr: 0xB6E0, symBinAddr: 0x8B2C0, symSize: 0xE0 }
  - { offset: 0x1FFADD, size: 0x8, addend: 0x0, symName: _ggml_map_custom3, symObjAddr: 0xB7C0, symBinAddr: 0x8B3A0, symSize: 0xDC }
  - { offset: 0x1FFBF9, size: 0x8, addend: 0x0, symName: _ggml_map_custom3, symObjAddr: 0xB7C0, symBinAddr: 0x8B3A0, symSize: 0xDC }
  - { offset: 0x1FFDB9, size: 0x8, addend: 0x0, symName: _ggml_map_custom3_inplace, symObjAddr: 0xB89C, symBinAddr: 0x8B47C, symSize: 0xE8 }
  - { offset: 0x1FFDCC, size: 0x8, addend: 0x0, symName: _ggml_map_custom3_inplace, symObjAddr: 0xB89C, symBinAddr: 0x8B47C, symSize: 0xE8 }
  - { offset: 0x1FFF7D, size: 0x8, addend: 0x0, symName: _ggml_custom_4d, symObjAddr: 0xB984, symBinAddr: 0x8B564, symSize: 0x104 }
  - { offset: 0x1FFF91, size: 0x8, addend: 0x0, symName: _ggml_custom_4d, symObjAddr: 0xB984, symBinAddr: 0x8B564, symSize: 0x104 }
  - { offset: 0x2001AF, size: 0x8, addend: 0x0, symName: _ggml_custom_inplace, symObjAddr: 0xBA88, symBinAddr: 0x8B668, symSize: 0x15C }
  - { offset: 0x200330, size: 0x8, addend: 0x0, symName: _ggml_cross_entropy_loss, symObjAddr: 0xBBE4, symBinAddr: 0x8B7C4, symSize: 0xB8 }
  - { offset: 0x200344, size: 0x8, addend: 0x0, symName: _ggml_cross_entropy_loss, symObjAddr: 0xBBE4, symBinAddr: 0x8B7C4, symSize: 0xB8 }
  - { offset: 0x20046A, size: 0x8, addend: 0x0, symName: _ggml_cross_entropy_loss_back, symObjAddr: 0xBC9C, symBinAddr: 0x8B87C, symSize: 0x114 }
  - { offset: 0x20047E, size: 0x8, addend: 0x0, symName: _ggml_cross_entropy_loss_back, symObjAddr: 0xBC9C, symBinAddr: 0x8B87C, symSize: 0x114 }
  - { offset: 0x2005D7, size: 0x8, addend: 0x0, symName: _ggml_opt_step_adamw, symObjAddr: 0xBDB0, symBinAddr: 0x8B990, symSize: 0x248 }
  - { offset: 0x2005EB, size: 0x8, addend: 0x0, symName: _ggml_opt_step_adamw, symObjAddr: 0xBDB0, symBinAddr: 0x8B990, symSize: 0x248 }
  - { offset: 0x200804, size: 0x8, addend: 0x0, symName: _ggml_hash_set_new, symObjAddr: 0xBFF8, symBinAddr: 0x8BBD8, symSize: 0x178 }
  - { offset: 0x2008BB, size: 0x8, addend: 0x0, symName: _ggml_hash_set_new, symObjAddr: 0xBFF8, symBinAddr: 0x8BBD8, symSize: 0x178 }
  - { offset: 0x200A41, size: 0x8, addend: 0x0, symName: _ggml_hash_size, symObjAddr: 0xC170, symBinAddr: 0x8BD50, symSize: 0x48 }
  - { offset: 0x200A55, size: 0x8, addend: 0x0, symName: _ggml_hash_set_reset, symObjAddr: 0xC1B8, symBinAddr: 0x8BD98, symSize: 0x18 }
  - { offset: 0x200A93, size: 0x8, addend: 0x0, symName: _ggml_hash_set_free, symObjAddr: 0xC1D0, symBinAddr: 0x8BDB0, symSize: 0x28 }
  - { offset: 0x200B24, size: 0x8, addend: 0x0, symName: _ggml_build_forward_expand, symObjAddr: 0xC1F8, symBinAddr: 0x8BDD8, symSize: 0x7C }
  - { offset: 0x200BB0, size: 0x8, addend: 0x0, symName: _ggml_build_backward_expand, symObjAddr: 0xC274, symBinAddr: 0x8BE54, symSize: 0x2204 }
  - { offset: 0x200BC4, size: 0x8, addend: 0x0, symName: _ggml_visit_parents, symObjAddr: 0x10938, symBinAddr: 0x90518, symSize: 0x2FC }
  - { offset: 0x200E1A, size: 0x8, addend: 0x0, symName: _ggml_add_or_set, symObjAddr: 0x10C34, symBinAddr: 0x90814, symSize: 0x110 }
  - { offset: 0x2019B1, size: 0x8, addend: 0x0, symName: _ggml_build_backward_expand, symObjAddr: 0xC274, symBinAddr: 0x8BE54, symSize: 0x2204 }
  - { offset: 0x2047F4, size: 0x8, addend: 0x0, symName: _ggml_graph_overhead_custom, symObjAddr: 0xE478, symBinAddr: 0x8E058, symSize: 0x88 }
  - { offset: 0x204808, size: 0x8, addend: 0x0, symName: _ggml_sub_or_set, symObjAddr: 0x10D44, symBinAddr: 0x90924, symSize: 0x1FC }
  - { offset: 0x204AFA, size: 0x8, addend: 0x0, symName: _ggml_add1_or_set, symObjAddr: 0x10F40, symBinAddr: 0x90B20, symSize: 0x118 }
  - { offset: 0x204B0E, size: 0x8, addend: 0x0, symName: _ggml_add_or_set, symObjAddr: 0x10C34, symBinAddr: 0x90814, symSize: 0x110 }
  - { offset: 0x204C32, size: 0x8, addend: 0x0, symName: _ggml_sub_or_set, symObjAddr: 0x10D44, symBinAddr: 0x90924, symSize: 0x1FC }
  - { offset: 0x204C46, size: 0x8, addend: 0x0, symName: _ggml_add1_or_set, symObjAddr: 0x10F40, symBinAddr: 0x90B20, symSize: 0x118 }
  - { offset: 0x204E27, size: 0x8, addend: 0x0, symName: _ggml_graph_overhead_custom, symObjAddr: 0xE478, symBinAddr: 0x8E058, symSize: 0x88 }
  - { offset: 0x204F57, size: 0x8, addend: 0x0, symName: _ggml_graph_overhead, symObjAddr: 0xE500, symBinAddr: 0x8E0E0, symSize: 0x68 }
  - { offset: 0x205082, size: 0x8, addend: 0x0, symName: _ggml_new_graph_custom, symObjAddr: 0xE568, symBinAddr: 0x8E148, symSize: 0x228 }
  - { offset: 0x2053DF, size: 0x8, addend: 0x0, symName: _ggml_new_graph, symObjAddr: 0xE790, symBinAddr: 0x8E370, symSize: 0xC }
  - { offset: 0x20542F, size: 0x8, addend: 0x0, symName: _ggml_graph_view, symObjAddr: 0xE79C, symBinAddr: 0x8E37C, symSize: 0x30 }
  - { offset: 0x2054E8, size: 0x8, addend: 0x0, symName: _ggml_graph_cpy, symObjAddr: 0xE7CC, symBinAddr: 0x8E3AC, symSize: 0x418 }
  - { offset: 0x2058AD, size: 0x8, addend: 0x0, symName: _ggml_graph_dup, symObjAddr: 0xEBE4, symBinAddr: 0x8E7C4, symSize: 0x44 }
  - { offset: 0x2058C1, size: 0x8, addend: 0x0, symName: _ggml_graph_dup, symObjAddr: 0xEBE4, symBinAddr: 0x8E7C4, symSize: 0x44 }
  - { offset: 0x205955, size: 0x8, addend: 0x0, symName: _ggml_set_zero, symObjAddr: 0xEC28, symBinAddr: 0x8E808, symSize: 0x1B0 }
  - { offset: 0x205AEA, size: 0x8, addend: 0x0, symName: _ggml_graph_reset, symObjAddr: 0xEDD8, symBinAddr: 0x8E9B8, symSize: 0x214 }
  - { offset: 0x205B55, size: 0x8, addend: 0x0, symName: _ggml_graph_reset, symObjAddr: 0xEDD8, symBinAddr: 0x8E9B8, symSize: 0x214 }
  - { offset: 0x205D4B, size: 0x8, addend: 0x0, symName: _ggml_graph_get_grad_acc, symObjAddr: 0xEFEC, symBinAddr: 0x8EBCC, symSize: 0x70 }
  - { offset: 0x205D80, size: 0x8, addend: 0x0, symName: _ggml_graph_get_grad_acc, symObjAddr: 0xEFEC, symBinAddr: 0x8EBCC, symSize: 0x70 }
  - { offset: 0x205DB4, size: 0x8, addend: 0x0, symName: _ggml_graph_get_grad_acc, symObjAddr: 0xEFEC, symBinAddr: 0x8EBCC, symSize: 0x70 }
  - { offset: 0x205DF0, size: 0x8, addend: 0x0, symName: _ggml_graph_get_grad_acc, symObjAddr: 0xEFEC, symBinAddr: 0x8EBCC, symSize: 0x70 }
  - { offset: 0x205E32, size: 0x8, addend: 0x0, symName: _ggml_graph_clear, symObjAddr: 0xF05C, symBinAddr: 0x8EC3C, symSize: 0x1C }
  - { offset: 0x205E9B, size: 0x8, addend: 0x0, symName: _ggml_graph_size, symObjAddr: 0xF078, symBinAddr: 0x8EC58, symSize: 0x8 }
  - { offset: 0x205EC8, size: 0x8, addend: 0x0, symName: _ggml_graph_node, symObjAddr: 0xF080, symBinAddr: 0x8EC60, symSize: 0x80 }
  - { offset: 0x205F20, size: 0x8, addend: 0x0, symName: _ggml_graph_nodes, symObjAddr: 0xF100, symBinAddr: 0x8ECE0, symSize: 0x8 }
  - { offset: 0x205F34, size: 0x8, addend: 0x0, symName: _ggml_graph_nodes, symObjAddr: 0xF100, symBinAddr: 0x8ECE0, symSize: 0x8 }
  - { offset: 0x205F61, size: 0x8, addend: 0x0, symName: _ggml_graph_n_nodes, symObjAddr: 0xF108, symBinAddr: 0x8ECE8, symSize: 0x8 }
  - { offset: 0x205F8E, size: 0x8, addend: 0x0, symName: _ggml_graph_add_node, symObjAddr: 0xF110, symBinAddr: 0x8ECF0, symSize: 0x54 }
  - { offset: 0x205FCB, size: 0x8, addend: 0x0, symName: _ggml_graph_get_tensor, symObjAddr: 0xF164, symBinAddr: 0x8ED44, symSize: 0xB4 }
  - { offset: 0x205FDF, size: 0x8, addend: 0x0, symName: _ggml_graph_get_tensor, symObjAddr: 0xF164, symBinAddr: 0x8ED44, symSize: 0xB4 }
  - { offset: 0x2060D9, size: 0x8, addend: 0x0, symName: _ggml_graph_get_grad, symObjAddr: 0xF218, symBinAddr: 0x8EDF8, symSize: 0x70 }
  - { offset: 0x20610D, size: 0x8, addend: 0x0, symName: _ggml_graph_get_grad, symObjAddr: 0xF218, symBinAddr: 0x8EDF8, symSize: 0x70 }
  - { offset: 0x206149, size: 0x8, addend: 0x0, symName: _ggml_graph_get_grad, symObjAddr: 0xF218, symBinAddr: 0x8EDF8, symSize: 0x70 }
  - { offset: 0x2061A7, size: 0x8, addend: 0x0, symName: _ggml_graph_print, symObjAddr: 0xF288, symBinAddr: 0x8EE68, symSize: 0x1DC }
  - { offset: 0x206550, size: 0x8, addend: 0x0, symName: _ggml_graph_dump_dot, symObjAddr: 0xF464, symBinAddr: 0x8F044, symSize: 0xB50 }
  - { offset: 0x206FAF, size: 0x8, addend: 0x0, symName: _ggml_set_input, symObjAddr: 0xFFB4, symBinAddr: 0x8FB94, symSize: 0x10 }
  - { offset: 0x206FD6, size: 0x8, addend: 0x0, symName: _ggml_set_output, symObjAddr: 0xFFC4, symBinAddr: 0x8FBA4, symSize: 0x10 }
  - { offset: 0x206FFD, size: 0x8, addend: 0x0, symName: _ggml_set_param, symObjAddr: 0xFFD4, symBinAddr: 0x8FBB4, symSize: 0x48 }
  - { offset: 0x207029, size: 0x8, addend: 0x0, symName: _ggml_set_loss, symObjAddr: 0x1001C, symBinAddr: 0x8FBFC, symSize: 0xA4 }
  - { offset: 0x20703D, size: 0x8, addend: 0x0, symName: _ggml_set_loss, symObjAddr: 0x1001C, symBinAddr: 0x8FBFC, symSize: 0xA4 }
  - { offset: 0x20709F, size: 0x8, addend: 0x0, symName: _ggml_quantize_init, symObjAddr: 0x100C0, symBinAddr: 0x8FCA0, symSize: 0x7C }
  - { offset: 0x2070B3, size: 0x8, addend: 0x0, symName: _ggml_quantize_init, symObjAddr: 0x100C0, symBinAddr: 0x8FCA0, symSize: 0x7C }
  - { offset: 0x20716C, size: 0x8, addend: 0x0, symName: _ggml_quantize_free, symObjAddr: 0x1013C, symBinAddr: 0x8FD1C, symSize: 0x34 }
  - { offset: 0x207214, size: 0x8, addend: 0x0, symName: _ggml_quantize_requires_imatrix, symObjAddr: 0x10170, symBinAddr: 0x8FD50, symSize: 0x14 }
  - { offset: 0x2072E8, size: 0x8, addend: 0x0, symName: _ggml_quantize_chunk, symObjAddr: 0x10184, symBinAddr: 0x8FD64, symSize: 0x66C }
  - { offset: 0x2078E9, size: 0x8, addend: 0x0, symName: _ggml_log_set, symObjAddr: 0x107F0, symBinAddr: 0x903D0, symSize: 0x24 }
  - { offset: 0x207C84, size: 0x8, addend: 0x0, symName: _ggml_log_set, symObjAddr: 0x107F0, symBinAddr: 0x903D0, symSize: 0x24 }
  - { offset: 0x207CBA, size: 0x8, addend: 0x0, symName: _ggml_threadpool_params_init, symObjAddr: 0x10814, symBinAddr: 0x903F4, symSize: 0x5C }
  - { offset: 0x207D7E, size: 0x8, addend: 0x0, symName: _ggml_threadpool_params_default, symObjAddr: 0x10870, symBinAddr: 0x90450, symSize: 0x60 }
  - { offset: 0x207DBC, size: 0x8, addend: 0x0, symName: _ggml_threadpool_params_default, symObjAddr: 0x10870, symBinAddr: 0x90450, symSize: 0x60 }
  - { offset: 0x207DE0, size: 0x8, addend: 0x0, symName: _ggml_threadpool_params_match, symObjAddr: 0x108D0, symBinAddr: 0x904B0, symSize: 0x68 }
  - { offset: 0x208036, size: 0x8, addend: 0x0, symName: __ZL26previous_terminate_handler, symObjAddr: 0x6248, symBinAddr: 0x1A49B8, symSize: 0x0 }
  - { offset: 0x208D6A, size: 0x8, addend: 0x0, symName: __ZL23ggml_uncaught_exceptionv, symObjAddr: 0x0, symBinAddr: 0x90C38, symSize: 0x20 }
  - { offset: 0x208DA2, size: 0x8, addend: 0x0, symName: __GLOBAL__sub_I_ggml.cpp, symObjAddr: 0x20, symBinAddr: 0x90C58, symSize: 0x7C }
  - { offset: 0x208E2B, size: 0x8, addend: 0x0, symName: __GLOBAL__sub_I_ggml.cpp, symObjAddr: 0x20, symBinAddr: 0x90C58, symSize: 0x7C }
  - { offset: 0x20AE16, size: 0x8, addend: 0x0, symName: __MergedGlobals, symObjAddr: 0x189AB8, symBinAddr: 0x1A49C0, symSize: 0x0 }
  - { offset: 0x2293C7, size: 0x8, addend: 0x0, symName: __ZNSt3__134__uninitialized_allocator_relocateB8ne190102INS_9allocatorI7gguf_kvEES2_EEvRT_PT0_S7_S7_, symObjAddr: 0xAB10, symBinAddr: 0x9B460, symSize: 0x11C }
  - { offset: 0x229426, size: 0x8, addend: 0x0, symName: __ZNSt3__134__uninitialized_allocator_relocateB8ne190102INS_9allocatorI7gguf_kvEES2_EEvRT_PT0_S7_S7_, symObjAddr: 0xAB10, symBinAddr: 0x9B460, symSize: 0x11C }
  - { offset: 0x22C5A9, size: 0x8, addend: 0x0, symName: __MergedGlobals, symObjAddr: 0x189AB8, symBinAddr: 0x1A49C0, symSize: 0x0 }
  - { offset: 0x22E76E, size: 0x8, addend: 0x0, symName: __ZNSt3__13mapI9gguf_typemNS_4lessIS1_EENS_9allocatorINS_4pairIKS1_mEEEEED1B8ne190102Ev, symObjAddr: 0x0, symBinAddr: 0x90CD4, symSize: 0x28 }
  - { offset: 0x22E82C, size: 0x8, addend: 0x0, symName: __ZNSt3__16__treeINS_12__value_typeI9gguf_typemEENS_19__map_value_compareIS2_S3_NS_4lessIS2_EELb1EEENS_9allocatorIS3_EEE7destroyEPNS_11__tree_nodeIS3_PvEE, symObjAddr: 0xA2F4, symBinAddr: 0x9ACF8, symSize: 0x44 }
  - { offset: 0x22E9F1, size: 0x8, addend: 0x0, symName: __ZNSt3__13mapI9gguf_typePKcNS_4lessIS1_EENS_9allocatorINS_4pairIKS1_S3_EEEEED1B8ne190102Ev, symObjAddr: 0x28, symBinAddr: 0x90CFC, symSize: 0x28 }
  - { offset: 0x22EAAF, size: 0x8, addend: 0x0, symName: __ZNSt3__16__treeINS_12__value_typeI9gguf_typePKcEENS_19__map_value_compareIS2_S5_NS_4lessIS2_EELb1EEENS_9allocatorIS5_EEE7destroyEPNS_11__tree_nodeIS5_PvEE, symObjAddr: 0xA5DC, symBinAddr: 0x9AFE0, symSize: 0x44 }
  - { offset: 0x22ED33, size: 0x8, addend: 0x0, symName: __Z14gguf_type_size9gguf_type, symObjAddr: 0x50, symBinAddr: 0x90D24, symSize: 0x54 }
  - { offset: 0x22ED5F, size: 0x8, addend: 0x0, symName: __Z14gguf_type_size9gguf_type, symObjAddr: 0x50, symBinAddr: 0x90D24, symSize: 0x54 }
  - { offset: 0x22ED74, size: 0x8, addend: 0x0, symName: __Z14gguf_type_size9gguf_type, symObjAddr: 0x50, symBinAddr: 0x90D24, symSize: 0x54 }
  - { offset: 0x22ED94, size: 0x8, addend: 0x0, symName: __Z14gguf_type_size9gguf_type, symObjAddr: 0x50, symBinAddr: 0x90D24, symSize: 0x54 }
  - { offset: 0x22EF48, size: 0x8, addend: 0x0, symName: _gguf_init_empty, symObjAddr: 0xA4, symBinAddr: 0x90D78, symSize: 0x3C }
  - { offset: 0x230280, size: 0x8, addend: 0x0, symName: __Z24gguf_init_from_file_implP7__sFILE16gguf_init_params, symObjAddr: 0xE0, symBinAddr: 0x90DB4, symSize: 0x14C0 }
  - { offset: 0x232ABC, size: 0x8, addend: 0x0, symName: __ZNSt3__16vectorI7gguf_kvNS_9allocatorIS1_EEE7__clearB8ne190102Ev, symObjAddr: 0x9480, symBinAddr: 0x9A0D4, symSize: 0xB8 }
  - { offset: 0x2330D9, size: 0x8, addend: 0x0, symName: __Z24gguf_read_emplace_helperItEbRK11gguf_readerRNSt3__16vectorI7gguf_kvNS3_9allocatorIS5_EEEERKNS3_12basic_stringIcNS3_11char_traitsIcEENS6_IcEEEEbm, symObjAddr: 0x1AAC, symBinAddr: 0x92770, symSize: 0x280 }
  - { offset: 0x233A3D, size: 0x8, addend: 0x0, symName: __Z24gguf_read_emplace_helperINSt3__112basic_stringIcNS0_11char_traitsIcEENS0_9allocatorIcEEEEEbRK11gguf_readerRNS0_6vectorI7gguf_kvNS4_ISB_EEEERKS6_bm, symObjAddr: 0x29F8, symBinAddr: 0x936BC, symSize: 0x324 }
  - { offset: 0x2346C2, size: 0x8, addend: 0x0, symName: __Z24gguf_read_emplace_helperIiEbRK11gguf_readerRNSt3__16vectorI7gguf_kvNS3_9allocatorIS5_EEEERKNS3_12basic_stringIcNS3_11char_traitsIcEENS6_IcEEEEbm, symObjAddr: 0x222C, symBinAddr: 0x92EF0, symSize: 0x280 }
  - { offset: 0x23502E, size: 0x8, addend: 0x0, symName: __Z24gguf_read_emplace_helperIdEbRK11gguf_readerRNSt3__16vectorI7gguf_kvNS3_9allocatorIS5_EEEERKNS3_12basic_stringIcNS3_11char_traitsIcEENS6_IcEEEEbm, symObjAddr: 0x321C, symBinAddr: 0x93EE0, symSize: 0x280 }
  - { offset: 0x23599B, size: 0x8, addend: 0x0, symName: __Z24gguf_read_emplace_helperIhEbRK11gguf_readerRNSt3__16vectorI7gguf_kvNS3_9allocatorIS5_EEEERKNS3_12basic_stringIcNS3_11char_traitsIcEENS6_IcEEEEbm, symObjAddr: 0x1604, symBinAddr: 0x922C8, symSize: 0x254 }
  - { offset: 0x236226, size: 0x8, addend: 0x0, symName: __Z24gguf_read_emplace_helperIfEbRK11gguf_readerRNSt3__16vectorI7gguf_kvNS3_9allocatorIS5_EEEERKNS3_12basic_stringIcNS3_11char_traitsIcEENS6_IcEEEEbm, symObjAddr: 0x24AC, symBinAddr: 0x93170, symSize: 0x280 }
  - { offset: 0x236B93, size: 0x8, addend: 0x0, symName: __Z24gguf_read_emplace_helperIsEbRK11gguf_readerRNSt3__16vectorI7gguf_kvNS3_9allocatorIS5_EEEERKNS3_12basic_stringIcNS3_11char_traitsIcEENS6_IcEEEEbm, symObjAddr: 0x1D2C, symBinAddr: 0x929F0, symSize: 0x280 }
  - { offset: 0x2374F7, size: 0x8, addend: 0x0, symName: __Z24gguf_read_emplace_helperIyEbRK11gguf_readerRNSt3__16vectorI7gguf_kvNS3_9allocatorIS5_EEEERKNS3_12basic_stringIcNS3_11char_traitsIcEENS6_IcEEEEbm, symObjAddr: 0x2D1C, symBinAddr: 0x939E0, symSize: 0x280 }
  - { offset: 0x237E63, size: 0x8, addend: 0x0, symName: __Z24gguf_read_emplace_helperIaEbRK11gguf_readerRNSt3__16vectorI7gguf_kvNS3_9allocatorIS5_EEEERKNS3_12basic_stringIcNS3_11char_traitsIcEENS6_IcEEEEbm, symObjAddr: 0x1858, symBinAddr: 0x9251C, symSize: 0x254 }
  - { offset: 0x2386EE, size: 0x8, addend: 0x0, symName: __Z24gguf_read_emplace_helperIbEbRK11gguf_readerRNSt3__16vectorI7gguf_kvNS3_9allocatorIS5_EEEERKNS3_12basic_stringIcNS3_11char_traitsIcEENS6_IcEEEEbm, symObjAddr: 0x272C, symBinAddr: 0x933F0, symSize: 0x2CC }
  - { offset: 0x23905A, size: 0x8, addend: 0x0, symName: __Z24gguf_read_emplace_helperIjEbRK11gguf_readerRNSt3__16vectorI7gguf_kvNS3_9allocatorIS5_EEEERKNS3_12basic_stringIcNS3_11char_traitsIcEENS6_IcEEEEbm, symObjAddr: 0x1FAC, symBinAddr: 0x92C70, symSize: 0x280 }
  - { offset: 0x2399C6, size: 0x8, addend: 0x0, symName: __Z24gguf_read_emplace_helperIxEbRK11gguf_readerRNSt3__16vectorI7gguf_kvNS3_9allocatorIS5_EEEERKNS3_12basic_stringIcNS3_11char_traitsIcEENS6_IcEEEEbm, symObjAddr: 0x2F9C, symBinAddr: 0x93C60, symSize: 0x280 }
  - { offset: 0x23A3B5, size: 0x8, addend: 0x0, symName: _gguf_get_val_u32, symObjAddr: 0x3520, symBinAddr: 0x941E4, symSize: 0x1AC }
  - { offset: 0x23A653, size: 0x8, addend: 0x0, symName: _gguf_init_from_file, symObjAddr: 0x36CC, symBinAddr: 0x94390, symSize: 0x98 }
  - { offset: 0x23A729, size: 0x8, addend: 0x0, symName: _gguf_free, symObjAddr: 0x15A0, symBinAddr: 0x92274, symSize: 0x54 }
  - { offset: 0x23AA09, size: 0x8, addend: 0x0, symName: __ZNKSt3__16vectorI16gguf_tensor_infoNS_9allocatorIS1_EEE20__throw_length_errorB8ne190102Ev, symObjAddr: 0xFB00, symBinAddr: 0x9FE54, symSize: 0x14 }
  - { offset: 0x23AA33, size: 0x8, addend: 0x0, symName: __ZNKSt3__111__move_implINS_17_ClassicAlgPolicyEEclB8ne190102IP7gguf_kvS5_S5_EENS_4pairIT_T1_EES7_T0_S8_, symObjAddr: 0xFB14, symBinAddr: 0x9FE68, symSize: 0x12C }
  - { offset: 0x23AED7, size: 0x8, addend: 0x0, symName: __ZNK11gguf_reader4readIhEEbRNSt3__16vectorIT_NS1_9allocatorIS3_EEEEm, symObjAddr: 0xA620, symBinAddr: 0x9B024, symSize: 0x15C }
  - { offset: 0x23B4D6, size: 0x8, addend: 0x0, symName: __ZN7gguf_kvC2IhEERKNSt3__112basic_stringIcNS1_11char_traitsIcEENS1_9allocatorIcEEEERKNS1_6vectorIT_NS5_ISB_EEEE, symObjAddr: 0xA8D0, symBinAddr: 0x9B2C0, symSize: 0x15C }
  - { offset: 0x23BA8C, size: 0x8, addend: 0x0, symName: __ZN7gguf_kvC2IhEERKNSt3__112basic_stringIcNS1_11char_traitsIcEENS1_9allocatorIcEEEET_, symObjAddr: 0xAE28, symBinAddr: 0x9B778, symSize: 0xF8 }
  - { offset: 0x23BF82, size: 0x8, addend: 0x0, symName: __ZNSt3__16vectorI7gguf_kvNS_9allocatorIS1_EEE24__emplace_back_slow_pathIJRKNS_12basic_stringIcNS_11char_traitsIcEENS2_IcEEEERhEEEPS1_DpOT_, symObjAddr: 0xACE8, symBinAddr: 0x9B638, symSize: 0x140 }
  - { offset: 0x23C441, size: 0x8, addend: 0x0, symName: __ZNSt3__16vectorI7gguf_kvNS_9allocatorIS1_EEE24__emplace_back_slow_pathIJRKNS_12basic_stringIcNS_11char_traitsIcEENS2_IcEEEERNS0_IhNS2_IhEEEEEEEPS1_DpOT_, symObjAddr: 0xA790, symBinAddr: 0x9B180, symSize: 0x140 }
  - { offset: 0x23CD4B, size: 0x8, addend: 0x0, symName: __ZNK11gguf_reader4readIaEEbRNSt3__16vectorIT_NS1_9allocatorIS3_EEEEm, symObjAddr: 0xAF20, symBinAddr: 0x9B870, symSize: 0x15C }
  - { offset: 0x23D32E, size: 0x8, addend: 0x0, symName: __ZNSt3__16vectorI7gguf_kvNS_9allocatorIS1_EEE24__emplace_back_slow_pathIJRKNS_12basic_stringIcNS_11char_traitsIcEENS2_IcEEEERNS0_IaNS2_IaEEEEEEEPS1_DpOT_, symObjAddr: 0xB07C, symBinAddr: 0x9B9CC, symSize: 0x140 }
  - { offset: 0x23D34A, size: 0x8, addend: 0x0, symName: __ZN7gguf_kvC2IaEERKNSt3__112basic_stringIcNS1_11char_traitsIcEENS1_9allocatorIcEEEERKNS1_6vectorIT_NS5_ISB_EEEE, symObjAddr: 0xB1BC, symBinAddr: 0x9BB0C, symSize: 0x15C }
  - { offset: 0x23D955, size: 0x8, addend: 0x0, symName: __ZN7gguf_kvC2IaEERKNSt3__112basic_stringIcNS1_11char_traitsIcEENS1_9allocatorIcEEEET_, symObjAddr: 0xB458, symBinAddr: 0x9BDA8, symSize: 0xFC }
  - { offset: 0x23DE23, size: 0x8, addend: 0x0, symName: __ZNSt3__16vectorI7gguf_kvNS_9allocatorIS1_EEE24__emplace_back_slow_pathIJRKNS_12basic_stringIcNS_11char_traitsIcEENS2_IcEEEERaEEEPS1_DpOT_, symObjAddr: 0xB318, symBinAddr: 0x9BC68, symSize: 0x140 }
  - { offset: 0x23E2E2, size: 0x8, addend: 0x0, symName: __ZNSt3__16vectorI7gguf_kvNS_9allocatorIS1_EEE24__emplace_back_slow_pathIJRKNS_12basic_stringIcNS_11char_traitsIcEENS2_IcEEEERNS0_IaNS2_IaEEEEEEEPS1_DpOT_, symObjAddr: 0xB07C, symBinAddr: 0x9B9CC, symSize: 0x140 }
  - { offset: 0x23EC7B, size: 0x8, addend: 0x0, symName: __ZNSt3__16vectorItNS_9allocatorItEEE8__appendEm, symObjAddr: 0xB554, symBinAddr: 0x9BEA4, symSize: 0x118 }
  - { offset: 0x23F0BD, size: 0x8, addend: 0x0, symName: __ZNKSt3__16vectorItNS_9allocatorItEEE20__throw_length_errorB8ne190102Ev, symObjAddr: 0xB66C, symBinAddr: 0x9BFBC, symSize: 0x14 }
  - { offset: 0x23F0C8, size: 0x8, addend: 0x0, symName: __ZN7gguf_kvC2ItEERKNSt3__112basic_stringIcNS1_11char_traitsIcEENS1_9allocatorIcEEEERKNS1_6vectorIT_NS5_ISB_EEEE, symObjAddr: 0xB7C0, symBinAddr: 0x9C110, symSize: 0x160 }
  - { offset: 0x23F6D3, size: 0x8, addend: 0x0, symName: __ZN7gguf_kvC2ItEERKNSt3__112basic_stringIcNS1_11char_traitsIcEENS1_9allocatorIcEEEET_, symObjAddr: 0xBA60, symBinAddr: 0x9C3B0, symSize: 0xFC }
  - { offset: 0x23FBA1, size: 0x8, addend: 0x0, symName: __ZNSt3__16vectorI7gguf_kvNS_9allocatorIS1_EEE24__emplace_back_slow_pathIJRKNS_12basic_stringIcNS_11char_traitsIcEENS2_IcEEEERNS0_ItNS2_ItEEEEEEEPS1_DpOT_, symObjAddr: 0xB680, symBinAddr: 0x9BFD0, symSize: 0x140 }
  - { offset: 0x240068, size: 0x8, addend: 0x0, symName: __ZNSt3__16vectorI7gguf_kvNS_9allocatorIS1_EEE24__emplace_back_slow_pathIJRKNS_12basic_stringIcNS_11char_traitsIcEENS2_IcEEEERtEEEPS1_DpOT_, symObjAddr: 0xB920, symBinAddr: 0x9C270, symSize: 0x140 }
  - { offset: 0x2409F9, size: 0x8, addend: 0x0, symName: __ZNSt3__16vectorIsNS_9allocatorIsEEE8__appendEm, symObjAddr: 0xBB5C, symBinAddr: 0x9C4AC, symSize: 0x118 }
  - { offset: 0x240E3B, size: 0x8, addend: 0x0, symName: __ZNKSt3__16vectorIsNS_9allocatorIsEEE20__throw_length_errorB8ne190102Ev, symObjAddr: 0xBC74, symBinAddr: 0x9C5C4, symSize: 0x14 }
  - { offset: 0x240E46, size: 0x8, addend: 0x0, symName: __ZN7gguf_kvC2IsEERKNSt3__112basic_stringIcNS1_11char_traitsIcEENS1_9allocatorIcEEEERKNS1_6vectorIT_NS5_ISB_EEEE, symObjAddr: 0xBDC8, symBinAddr: 0x9C718, symSize: 0x160 }
  - { offset: 0x241451, size: 0x8, addend: 0x0, symName: __ZN7gguf_kvC2IsEERKNSt3__112basic_stringIcNS1_11char_traitsIcEENS1_9allocatorIcEEEET_, symObjAddr: 0xC068, symBinAddr: 0x9C9B8, symSize: 0xFC }
  - { offset: 0x24191F, size: 0x8, addend: 0x0, symName: __ZNSt3__16vectorI7gguf_kvNS_9allocatorIS1_EEE24__emplace_back_slow_pathIJRKNS_12basic_stringIcNS_11char_traitsIcEENS2_IcEEEERNS0_IsNS2_IsEEEEEEEPS1_DpOT_, symObjAddr: 0xBC88, symBinAddr: 0x9C5D8, symSize: 0x140 }
  - { offset: 0x241DE6, size: 0x8, addend: 0x0, symName: __ZNSt3__16vectorI7gguf_kvNS_9allocatorIS1_EEE24__emplace_back_slow_pathIJRKNS_12basic_stringIcNS_11char_traitsIcEENS2_IcEEEERsEEEPS1_DpOT_, symObjAddr: 0xBF28, symBinAddr: 0x9C878, symSize: 0x140 }
  - { offset: 0x24274D, size: 0x8, addend: 0x0, symName: __ZNSt3__16vectorIjNS_9allocatorIjEEE8__appendEm, symObjAddr: 0xC164, symBinAddr: 0x9CAB4, symSize: 0x124 }
  - { offset: 0x242B9A, size: 0x8, addend: 0x0, symName: __ZN7gguf_kvC2IjEERKNSt3__112basic_stringIcNS1_11char_traitsIcEENS1_9allocatorIcEEEERKNS1_6vectorIT_NS5_ISB_EEEE, symObjAddr: 0xC3DC, symBinAddr: 0x9CD18, symSize: 0x160 }
  - { offset: 0x2431A5, size: 0x8, addend: 0x0, symName: __ZN7gguf_kvC2IjEERKNSt3__112basic_stringIcNS1_11char_traitsIcEENS1_9allocatorIcEEEET_, symObjAddr: 0xC67C, symBinAddr: 0x9CFB8, symSize: 0xFC }
  - { offset: 0x243673, size: 0x8, addend: 0x0, symName: __ZNSt3__16vectorI7gguf_kvNS_9allocatorIS1_EEE24__emplace_back_slow_pathIJRKNS_12basic_stringIcNS_11char_traitsIcEENS2_IcEEEERNS0_IjNS2_IjEEEEEEEPS1_DpOT_, symObjAddr: 0xC29C, symBinAddr: 0x9CBD8, symSize: 0x140 }
  - { offset: 0x243B3A, size: 0x8, addend: 0x0, symName: __ZNSt3__16vectorI7gguf_kvNS_9allocatorIS1_EEE24__emplace_back_slow_pathIJRKNS_12basic_stringIcNS_11char_traitsIcEENS2_IcEEEERjEEEPS1_DpOT_, symObjAddr: 0xC53C, symBinAddr: 0x9CE78, symSize: 0x140 }
  - { offset: 0x244723, size: 0x8, addend: 0x0, symName: __ZN7gguf_kvC2IiEERKNSt3__112basic_stringIcNS1_11char_traitsIcEENS1_9allocatorIcEEEERKNS1_6vectorIT_NS5_ISB_EEEE, symObjAddr: 0xC9F0, symBinAddr: 0x9D1F4, symSize: 0x160 }
  - { offset: 0x244D2E, size: 0x8, addend: 0x0, symName: __ZN7gguf_kvC2IiEERKNSt3__112basic_stringIcNS1_11char_traitsIcEENS1_9allocatorIcEEEET_, symObjAddr: 0xCC90, symBinAddr: 0x9D494, symSize: 0xFC }
  - { offset: 0x2451FC, size: 0x8, addend: 0x0, symName: __ZNSt3__16vectorI7gguf_kvNS_9allocatorIS1_EEE24__emplace_back_slow_pathIJRKNS_12basic_stringIcNS_11char_traitsIcEENS2_IcEEEERNS0_IiNS2_IiEEEEEEEPS1_DpOT_, symObjAddr: 0xC8B0, symBinAddr: 0x9D0B4, symSize: 0x140 }
  - { offset: 0x2456C3, size: 0x8, addend: 0x0, symName: __ZNSt3__16vectorI7gguf_kvNS_9allocatorIS1_EEE24__emplace_back_slow_pathIJRKNS_12basic_stringIcNS_11char_traitsIcEENS2_IcEEEERiEEEPS1_DpOT_, symObjAddr: 0xCB50, symBinAddr: 0x9D354, symSize: 0x140 }
  - { offset: 0x2462D6, size: 0x8, addend: 0x0, symName: __ZN7gguf_kvC2IfEERKNSt3__112basic_stringIcNS1_11char_traitsIcEENS1_9allocatorIcEEEERKNS1_6vectorIT_NS5_ISB_EEEE, symObjAddr: 0xD004, symBinAddr: 0x9D6D0, symSize: 0x160 }
  - { offset: 0x2468E1, size: 0x8, addend: 0x0, symName: __ZN7gguf_kvC2IfEERKNSt3__112basic_stringIcNS1_11char_traitsIcEENS1_9allocatorIcEEEET_, symObjAddr: 0xD2A4, symBinAddr: 0x9D970, symSize: 0x104 }
  - { offset: 0x246DAF, size: 0x8, addend: 0x0, symName: __ZNSt3__16vectorI7gguf_kvNS_9allocatorIS1_EEE24__emplace_back_slow_pathIJRKNS_12basic_stringIcNS_11char_traitsIcEENS2_IcEEEERNS0_IfNS2_IfEEEEEEEPS1_DpOT_, symObjAddr: 0xCEC4, symBinAddr: 0x9D590, symSize: 0x140 }
  - { offset: 0x247276, size: 0x8, addend: 0x0, symName: __ZNSt3__16vectorI7gguf_kvNS_9allocatorIS1_EEE24__emplace_back_slow_pathIJRKNS_12basic_stringIcNS_11char_traitsIcEENS2_IcEEEERfEEEPS1_DpOT_, symObjAddr: 0xD164, symBinAddr: 0x9D830, symSize: 0x140 }
  - { offset: 0x247C19, size: 0x8, addend: 0x0, symName: __ZNSt3__16vectorIbNS_9allocatorIbEEE6resizeEmb, symObjAddr: 0xD3A8, symBinAddr: 0x9DA74, symSize: 0x268 }
  - { offset: 0x2484DB, size: 0x8, addend: 0x0, symName: __ZN7gguf_kvC2IbEERKNSt3__112basic_stringIcNS1_11char_traitsIcEENS1_9allocatorIcEEEERKNS1_6vectorIT_NS5_ISB_EEEE, symObjAddr: 0xD864, symBinAddr: 0x9DF30, symSize: 0x160 }
  - { offset: 0x248B4C, size: 0x8, addend: 0x0, symName: __ZN7gguf_kvC2IbEERKNSt3__112basic_stringIcNS1_11char_traitsIcEENS1_9allocatorIcEEEET_, symObjAddr: 0xDB04, symBinAddr: 0x9E1D0, symSize: 0xFC }
  - { offset: 0x24901A, size: 0x8, addend: 0x0, symName: __ZNSt3__16vectorI7gguf_kvNS_9allocatorIS1_EEE24__emplace_back_slow_pathIJRKNS_12basic_stringIcNS_11char_traitsIcEENS2_IcEEEERNS0_IbNS2_IbEEEEEEEPS1_DpOT_, symObjAddr: 0xD724, symBinAddr: 0x9DDF0, symSize: 0x140 }
  - { offset: 0x2494E1, size: 0x8, addend: 0x0, symName: __ZNSt3__16vectorI7gguf_kvNS_9allocatorIS1_EEE24__emplace_back_slow_pathIJRKNS_12basic_stringIcNS_11char_traitsIcEENS2_IcEEEERbEEEPS1_DpOT_, symObjAddr: 0xD9C4, symBinAddr: 0x9E090, symSize: 0x140 }
  - { offset: 0x249DF7, size: 0x8, addend: 0x0, symName: __ZNK11gguf_reader4readINSt3__112basic_stringIcNS1_11char_traitsIcEENS1_9allocatorIcEEEEEEbRNS1_6vectorIT_NS5_IS9_EEEEm, symObjAddr: 0xDC00, symBinAddr: 0x9E2CC, symSize: 0x180 }
  - { offset: 0x24A1C7, size: 0x8, addend: 0x0, symName: __ZN7gguf_kvC2ERKNSt3__112basic_stringIcNS0_11char_traitsIcEENS0_9allocatorIcEEEERKNS0_6vectorIS6_NS4_IS6_EEEE, symObjAddr: 0xE0BC, symBinAddr: 0x9E710, symSize: 0x120 }
  - { offset: 0x24A5A9, size: 0x8, addend: 0x0, symName: __ZN7gguf_kvC2ERKNSt3__112basic_stringIcNS0_11char_traitsIcEENS0_9allocatorIcEEEES8_, symObjAddr: 0xE66C, symBinAddr: 0x9EC64, symSize: 0xF8 }
  - { offset: 0x24A903, size: 0x8, addend: 0x0, symName: __ZNSt3__16vectorI7gguf_kvNS_9allocatorIS1_EEE24__emplace_back_slow_pathIJRKNS_12basic_stringIcNS_11char_traitsIcEENS2_IcEEEERNS0_ISA_NS2_ISA_EEEEEEEPS1_DpOT_, symObjAddr: 0xDF7C, symBinAddr: 0x9E5D0, symSize: 0x140 }
  - { offset: 0x24ADCA, size: 0x8, addend: 0x0, symName: __ZNSt3__16vectorI7gguf_kvNS_9allocatorIS1_EEE24__emplace_back_slow_pathIJRKNS_12basic_stringIcNS_11char_traitsIcEENS2_IcEEEERSA_EEEPS1_DpOT_, symObjAddr: 0xE52C, symBinAddr: 0x9EB24, symSize: 0x140 }
  - { offset: 0x24B8C0, size: 0x8, addend: 0x0, symName: __ZNSt3__16vectorIyNS_9allocatorIyEEE8__appendEm, symObjAddr: 0xE8BC, symBinAddr: 0x9ED5C, symSize: 0x124 }
  - { offset: 0x24BD02, size: 0x8, addend: 0x0, symName: __ZNKSt3__16vectorIyNS_9allocatorIyEEE20__throw_length_errorB8ne190102Ev, symObjAddr: 0xE9E0, symBinAddr: 0x9EE80, symSize: 0x14 }
  - { offset: 0x24BD0D, size: 0x8, addend: 0x0, symName: __ZN7gguf_kvC2IyEERKNSt3__112basic_stringIcNS1_11char_traitsIcEENS1_9allocatorIcEEEERKNS1_6vectorIT_NS5_ISB_EEEE, symObjAddr: 0xEB34, symBinAddr: 0x9EFD4, symSize: 0x160 }
  - { offset: 0x24C318, size: 0x8, addend: 0x0, symName: __ZN7gguf_kvC2IyEERKNSt3__112basic_stringIcNS1_11char_traitsIcEENS1_9allocatorIcEEEET_, symObjAddr: 0xEDD4, symBinAddr: 0x9F274, symSize: 0xFC }
  - { offset: 0x24C7E6, size: 0x8, addend: 0x0, symName: __ZNSt3__16vectorI7gguf_kvNS_9allocatorIS1_EEE24__emplace_back_slow_pathIJRKNS_12basic_stringIcNS_11char_traitsIcEENS2_IcEEEERNS0_IyNS2_IyEEEEEEEPS1_DpOT_, symObjAddr: 0xE9F4, symBinAddr: 0x9EE94, symSize: 0x140 }
  - { offset: 0x24CCAD, size: 0x8, addend: 0x0, symName: __ZNSt3__16vectorI7gguf_kvNS_9allocatorIS1_EEE24__emplace_back_slow_pathIJRKNS_12basic_stringIcNS_11char_traitsIcEENS2_IcEEEERyEEEPS1_DpOT_, symObjAddr: 0xEC94, symBinAddr: 0x9F134, symSize: 0x140 }
  - { offset: 0x24D896, size: 0x8, addend: 0x0, symName: __ZN7gguf_kvC2IxEERKNSt3__112basic_stringIcNS1_11char_traitsIcEENS1_9allocatorIcEEEERKNS1_6vectorIT_NS5_ISB_EEEE, symObjAddr: 0xF148, symBinAddr: 0x9F4B0, symSize: 0x160 }
  - { offset: 0x24DEA1, size: 0x8, addend: 0x0, symName: __ZN7gguf_kvC2IxEERKNSt3__112basic_stringIcNS1_11char_traitsIcEENS1_9allocatorIcEEEET_, symObjAddr: 0xF3E8, symBinAddr: 0x9F750, symSize: 0xFC }
  - { offset: 0x24E36F, size: 0x8, addend: 0x0, symName: __ZNSt3__16vectorI7gguf_kvNS_9allocatorIS1_EEE24__emplace_back_slow_pathIJRKNS_12basic_stringIcNS_11char_traitsIcEENS2_IcEEEERNS0_IxNS2_IxEEEEEEEPS1_DpOT_, symObjAddr: 0xF008, symBinAddr: 0x9F370, symSize: 0x140 }
  - { offset: 0x24E836, size: 0x8, addend: 0x0, symName: __ZNSt3__16vectorI7gguf_kvNS_9allocatorIS1_EEE24__emplace_back_slow_pathIJRKNS_12basic_stringIcNS_11char_traitsIcEENS2_IcEEEERxEEEPS1_DpOT_, symObjAddr: 0xF2A8, symBinAddr: 0x9F610, symSize: 0x140 }
  - { offset: 0x24F1CF, size: 0x8, addend: 0x0, symName: __ZNSt3__16vectorIdNS_9allocatorIdEEE8__appendEm, symObjAddr: 0xF4E4, symBinAddr: 0x9F84C, symSize: 0x124 }
  - { offset: 0x24F61C, size: 0x8, addend: 0x0, symName: __ZN7gguf_kvC2IdEERKNSt3__112basic_stringIcNS1_11char_traitsIcEENS1_9allocatorIcEEEERKNS1_6vectorIT_NS5_ISB_EEEE, symObjAddr: 0xF75C, symBinAddr: 0x9FAB0, symSize: 0x160 }
  - { offset: 0x24FC27, size: 0x8, addend: 0x0, symName: __ZN7gguf_kvC2IdEERKNSt3__112basic_stringIcNS1_11char_traitsIcEENS1_9allocatorIcEEEET_, symObjAddr: 0xF9FC, symBinAddr: 0x9FD50, symSize: 0x104 }
  - { offset: 0x2500F5, size: 0x8, addend: 0x0, symName: __ZNSt3__16vectorI7gguf_kvNS_9allocatorIS1_EEE24__emplace_back_slow_pathIJRKNS_12basic_stringIcNS_11char_traitsIcEENS2_IcEEEERNS0_IdNS2_IdEEEEEEEPS1_DpOT_, symObjAddr: 0xF61C, symBinAddr: 0x9F970, symSize: 0x140 }
  - { offset: 0x2505BC, size: 0x8, addend: 0x0, symName: __ZNSt3__16vectorI7gguf_kvNS_9allocatorIS1_EEE24__emplace_back_slow_pathIJRKNS_12basic_stringIcNS_11char_traitsIcEENS2_IcEEEERdEEEPS1_DpOT_, symObjAddr: 0xF8BC, symBinAddr: 0x9FC10, symSize: 0x140 }
  - { offset: 0x250A84, size: 0x8, addend: 0x0, symName: _gguf_find_key, symObjAddr: 0x349C, symBinAddr: 0x94160, symSize: 0x84 }
  - { offset: 0x250C98, size: 0x8, addend: 0x0, symName: __ZNK7gguf_kv6get_neEv, symObjAddr: 0x3CB0, symBinAddr: 0x94974, symSize: 0x140 }
  - { offset: 0x250E83, size: 0x8, addend: 0x0, symName: __ZNK7gguf_kv7get_valIhEERKT_m, symObjAddr: 0x3DF0, symBinAddr: 0x94AB4, symSize: 0x114 }
  - { offset: 0x250E97, size: 0x8, addend: 0x0, symName: _gguf_init_from_file, symObjAddr: 0x36CC, symBinAddr: 0x94390, symSize: 0x98 }
  - { offset: 0x251080, size: 0x8, addend: 0x0, symName: _gguf_type_name, symObjAddr: 0x3764, symBinAddr: 0x94428, symSize: 0x54 }
  - { offset: 0x2510C1, size: 0x8, addend: 0x0, symName: _gguf_type_name, symObjAddr: 0x3764, symBinAddr: 0x94428, symSize: 0x54 }
  - { offset: 0x2510D7, size: 0x8, addend: 0x0, symName: _gguf_type_name, symObjAddr: 0x3764, symBinAddr: 0x94428, symSize: 0x54 }
  - { offset: 0x2510F7, size: 0x8, addend: 0x0, symName: _gguf_type_name, symObjAddr: 0x3764, symBinAddr: 0x94428, symSize: 0x54 }
  - { offset: 0x2511B9, size: 0x8, addend: 0x0, symName: _gguf_get_version, symObjAddr: 0x37B8, symBinAddr: 0x9447C, symSize: 0x8 }
  - { offset: 0x2511E6, size: 0x8, addend: 0x0, symName: _gguf_get_alignment, symObjAddr: 0x37C0, symBinAddr: 0x94484, symSize: 0x8 }
  - { offset: 0x251213, size: 0x8, addend: 0x0, symName: _gguf_get_data_offset, symObjAddr: 0x37C8, symBinAddr: 0x9448C, symSize: 0x8 }
  - { offset: 0x251240, size: 0x8, addend: 0x0, symName: _gguf_get_n_kv, symObjAddr: 0x37D0, symBinAddr: 0x94494, symSize: 0x1C }
  - { offset: 0x251262, size: 0x8, addend: 0x0, symName: _gguf_get_n_kv, symObjAddr: 0x37D0, symBinAddr: 0x94494, symSize: 0x1C }
  - { offset: 0x251280, size: 0x8, addend: 0x0, symName: _gguf_get_key, symObjAddr: 0x37EC, symBinAddr: 0x944B0, symSize: 0x70 }
  - { offset: 0x251394, size: 0x8, addend: 0x0, symName: _gguf_get_kv_type, symObjAddr: 0x385C, symBinAddr: 0x94520, symSize: 0x74 }
  - { offset: 0x2513A8, size: 0x8, addend: 0x0, symName: _gguf_get_kv_type, symObjAddr: 0x385C, symBinAddr: 0x94520, symSize: 0x74 }
  - { offset: 0x251448, size: 0x8, addend: 0x0, symName: _gguf_get_arr_type, symObjAddr: 0x38D0, symBinAddr: 0x94594, symSize: 0x98 }
  - { offset: 0x25145C, size: 0x8, addend: 0x0, symName: _gguf_get_arr_type, symObjAddr: 0x38D0, symBinAddr: 0x94594, symSize: 0x98 }
  - { offset: 0x251513, size: 0x8, addend: 0x0, symName: _gguf_get_arr_data, symObjAddr: 0x3968, symBinAddr: 0x9462C, symSize: 0x9C }
  - { offset: 0x25153D, size: 0x8, addend: 0x0, symName: _gguf_get_arr_data, symObjAddr: 0x3968, symBinAddr: 0x9462C, symSize: 0x9C }
  - { offset: 0x251615, size: 0x8, addend: 0x0, symName: _gguf_get_arr_str, symObjAddr: 0x3A04, symBinAddr: 0x946C8, symSize: 0xBC }
  - { offset: 0x251653, size: 0x8, addend: 0x0, symName: _gguf_get_arr_str, symObjAddr: 0x3A04, symBinAddr: 0x946C8, symSize: 0xBC }
  - { offset: 0x2517CD, size: 0x8, addend: 0x0, symName: _gguf_get_arr_n, symObjAddr: 0x3AC0, symBinAddr: 0x94784, symSize: 0x130 }
  - { offset: 0x2517F7, size: 0x8, addend: 0x0, symName: _gguf_get_arr_n, symObjAddr: 0x3AC0, symBinAddr: 0x94784, symSize: 0x130 }
  - { offset: 0x251A16, size: 0x8, addend: 0x0, symName: _gguf_get_val_u8, symObjAddr: 0x3BF0, symBinAddr: 0x948B4, symSize: 0xC0 }
  - { offset: 0x251A2A, size: 0x8, addend: 0x0, symName: _gguf_get_val_u8, symObjAddr: 0x3BF0, symBinAddr: 0x948B4, symSize: 0xC0 }
  - { offset: 0x251B37, size: 0x8, addend: 0x0, symName: __ZNK7gguf_kv6get_neEv, symObjAddr: 0x3CB0, symBinAddr: 0x94974, symSize: 0x140 }
  - { offset: 0x251B4B, size: 0x8, addend: 0x0, symName: __ZNK7gguf_kv7get_valIhEERKT_m, symObjAddr: 0x3DF0, symBinAddr: 0x94AB4, symSize: 0x114 }
  - { offset: 0x251CB5, size: 0x8, addend: 0x0, symName: _gguf_get_val_i8, symObjAddr: 0x3F04, symBinAddr: 0x94BC8, symSize: 0x1AC }
  - { offset: 0x251D08, size: 0x8, addend: 0x0, symName: _gguf_get_val_i8, symObjAddr: 0x3F04, symBinAddr: 0x94BC8, symSize: 0x1AC }
  - { offset: 0x251FA6, size: 0x8, addend: 0x0, symName: _gguf_get_val_u16, symObjAddr: 0x40B0, symBinAddr: 0x94D74, symSize: 0x1AC }
  - { offset: 0x251FF0, size: 0x8, addend: 0x0, symName: _gguf_get_val_u16, symObjAddr: 0x40B0, symBinAddr: 0x94D74, symSize: 0x1AC }
  - { offset: 0x25228E, size: 0x8, addend: 0x0, symName: _gguf_get_val_i16, symObjAddr: 0x425C, symBinAddr: 0x94F20, symSize: 0x1AC }
  - { offset: 0x2522D8, size: 0x8, addend: 0x0, symName: _gguf_get_val_i16, symObjAddr: 0x425C, symBinAddr: 0x94F20, symSize: 0x1AC }
  - { offset: 0x252576, size: 0x8, addend: 0x0, symName: _gguf_get_val_i32, symObjAddr: 0x4408, symBinAddr: 0x950CC, symSize: 0x1AC }
  - { offset: 0x2525C0, size: 0x8, addend: 0x0, symName: _gguf_get_val_i32, symObjAddr: 0x4408, symBinAddr: 0x950CC, symSize: 0x1AC }
  - { offset: 0x25285E, size: 0x8, addend: 0x0, symName: _gguf_get_val_f32, symObjAddr: 0x45B4, symBinAddr: 0x95278, symSize: 0x1AC }
  - { offset: 0x2528A8, size: 0x8, addend: 0x0, symName: _gguf_get_val_f32, symObjAddr: 0x45B4, symBinAddr: 0x95278, symSize: 0x1AC }
  - { offset: 0x252B46, size: 0x8, addend: 0x0, symName: _gguf_get_val_u64, symObjAddr: 0x4760, symBinAddr: 0x95424, symSize: 0x1AC }
  - { offset: 0x252B90, size: 0x8, addend: 0x0, symName: _gguf_get_val_u64, symObjAddr: 0x4760, symBinAddr: 0x95424, symSize: 0x1AC }
  - { offset: 0x252E2E, size: 0x8, addend: 0x0, symName: _gguf_get_val_i64, symObjAddr: 0x490C, symBinAddr: 0x955D0, symSize: 0x1AC }
  - { offset: 0x252E78, size: 0x8, addend: 0x0, symName: _gguf_get_val_i64, symObjAddr: 0x490C, symBinAddr: 0x955D0, symSize: 0x1AC }
  - { offset: 0x253116, size: 0x8, addend: 0x0, symName: _gguf_get_val_f64, symObjAddr: 0x4AB8, symBinAddr: 0x9577C, symSize: 0x1AC }
  - { offset: 0x253160, size: 0x8, addend: 0x0, symName: _gguf_get_val_f64, symObjAddr: 0x4AB8, symBinAddr: 0x9577C, symSize: 0x1AC }
  - { offset: 0x2533FE, size: 0x8, addend: 0x0, symName: _gguf_get_val_bool, symObjAddr: 0x4C64, symBinAddr: 0x95928, symSize: 0x1AC }
  - { offset: 0x253448, size: 0x8, addend: 0x0, symName: _gguf_get_val_bool, symObjAddr: 0x4C64, symBinAddr: 0x95928, symSize: 0x1AC }
  - { offset: 0x2536E6, size: 0x8, addend: 0x0, symName: __ZNK7gguf_kv7get_valIbEERKT_m, symObjAddr: 0x4E10, symBinAddr: 0x95AD4, symSize: 0x114 }
  - { offset: 0x2536FA, size: 0x8, addend: 0x0, symName: __ZNK7gguf_kv7get_valIbEERKT_m, symObjAddr: 0x4E10, symBinAddr: 0x95AD4, symSize: 0x114 }
  - { offset: 0x253896, size: 0x8, addend: 0x0, symName: _gguf_get_val_str, symObjAddr: 0x4F24, symBinAddr: 0x95BE8, symSize: 0x130 }
  - { offset: 0x2538D4, size: 0x8, addend: 0x0, symName: _gguf_get_val_str, symObjAddr: 0x4F24, symBinAddr: 0x95BE8, symSize: 0x130 }
  - { offset: 0x253AC6, size: 0x8, addend: 0x0, symName: _gguf_get_val_data, symObjAddr: 0x5054, symBinAddr: 0x95D18, symSize: 0xE8 }
  - { offset: 0x253ADA, size: 0x8, addend: 0x0, symName: _gguf_get_val_data, symObjAddr: 0x5054, symBinAddr: 0x95D18, symSize: 0xE8 }
  - { offset: 0x253C0A, size: 0x8, addend: 0x0, symName: _gguf_get_n_tensors, symObjAddr: 0x513C, symBinAddr: 0x95E00, symSize: 0x24 }
  - { offset: 0x253C1E, size: 0x8, addend: 0x0, symName: _gguf_get_n_tensors, symObjAddr: 0x513C, symBinAddr: 0x95E00, symSize: 0x24 }
  - { offset: 0x253C40, size: 0x8, addend: 0x0, symName: _gguf_get_n_tensors, symObjAddr: 0x513C, symBinAddr: 0x95E00, symSize: 0x24 }
  - { offset: 0x253C79, size: 0x8, addend: 0x0, symName: _gguf_find_tensor, symObjAddr: 0x5160, symBinAddr: 0x95E24, symSize: 0x84 }
  - { offset: 0x253D14, size: 0x8, addend: 0x0, symName: _gguf_get_tensor_name, symObjAddr: 0x51E4, symBinAddr: 0x95EA8, symSize: 0x6C }
  - { offset: 0x253D95, size: 0x8, addend: 0x0, symName: _gguf_get_tensor_offset, symObjAddr: 0x5250, symBinAddr: 0x95F14, symSize: 0x6C }
  - { offset: 0x253DA9, size: 0x8, addend: 0x0, symName: _gguf_get_tensor_offset, symObjAddr: 0x5250, symBinAddr: 0x95F14, symSize: 0x6C }
  - { offset: 0x253E2A, size: 0x8, addend: 0x0, symName: _gguf_get_tensor_type, symObjAddr: 0x52BC, symBinAddr: 0x95F80, symSize: 0x6C }
  - { offset: 0x253E62, size: 0x8, addend: 0x0, symName: _gguf_get_tensor_type, symObjAddr: 0x52BC, symBinAddr: 0x95F80, symSize: 0x6C }
  - { offset: 0x253F02, size: 0x8, addend: 0x0, symName: _gguf_get_tensor_size, symObjAddr: 0x5328, symBinAddr: 0x95FEC, symSize: 0x68 }
  - { offset: 0x253F16, size: 0x8, addend: 0x0, symName: _gguf_get_tensor_size, symObjAddr: 0x5328, symBinAddr: 0x95FEC, symSize: 0x68 }
  - { offset: 0x253FC4, size: 0x8, addend: 0x0, symName: _gguf_remove_key, symObjAddr: 0x5390, symBinAddr: 0x96054, symSize: 0x140 }
  - { offset: 0x254119, size: 0x8, addend: 0x0, symName: _gguf_remove_key, symObjAddr: 0x5390, symBinAddr: 0x96054, symSize: 0x140 }
  - { offset: 0x254A2C, size: 0x8, addend: 0x0, symName: __ZNKSt3__111__move_implINS_17_ClassicAlgPolicyEEclB8ne190102IP7gguf_kvS5_S5_EENS_4pairIT_T1_EES7_T0_S8_, symObjAddr: 0xFB14, symBinAddr: 0x9FE68, symSize: 0x12C }
  - { offset: 0x2553CC, size: 0x8, addend: 0x0, symName: _gguf_set_val_u8, symObjAddr: 0x54D0, symBinAddr: 0x96194, symSize: 0x1E4 }
  - { offset: 0x255B26, size: 0x8, addend: 0x0, symName: __ZNSt3__19allocatorI7gguf_kvE9constructB8ne190102IS1_JRPKcRhEEEvPT_DpOT0_, symObjAddr: 0xFD80, symBinAddr: 0xA00D4, symSize: 0x104 }
  - { offset: 0x2560E5, size: 0x8, addend: 0x0, symName: __ZNSt3__16vectorI7gguf_kvNS_9allocatorIS1_EEE24__emplace_back_slow_pathIJRPKcRhEEEPS1_DpOT_, symObjAddr: 0xFC40, symBinAddr: 0x9FF94, symSize: 0x140 }
  - { offset: 0x256575, size: 0x8, addend: 0x0, symName: __ZNSt3__114__split_bufferI7gguf_kvRNS_9allocatorIS1_EEED1Ev, symObjAddr: 0xAACC, symBinAddr: 0x9B41C, symSize: 0x30 }
  - { offset: 0x25669D, size: 0x8, addend: 0x0, symName: _gguf_set_val_i8, symObjAddr: 0x56B4, symBinAddr: 0x96378, symSize: 0x1E4 }
  - { offset: 0x256DE5, size: 0x8, addend: 0x0, symName: __ZNSt3__19allocatorI7gguf_kvE9constructB8ne190102IS1_JRPKcRaEEEvPT_DpOT0_, symObjAddr: 0xFFC4, symBinAddr: 0xA0318, symSize: 0x104 }
  - { offset: 0x2573A4, size: 0x8, addend: 0x0, symName: __ZNSt3__16vectorI7gguf_kvNS_9allocatorIS1_EEE24__emplace_back_slow_pathIJRPKcRaEEEPS1_DpOT_, symObjAddr: 0xFE84, symBinAddr: 0xA01D8, symSize: 0x140 }
  - { offset: 0x257939, size: 0x8, addend: 0x0, symName: _gguf_set_val_u16, symObjAddr: 0x5898, symBinAddr: 0x9655C, symSize: 0x1E4 }
  - { offset: 0x258081, size: 0x8, addend: 0x0, symName: __ZNSt3__19allocatorI7gguf_kvE9constructB8ne190102IS1_JRPKcRtEEEvPT_DpOT0_, symObjAddr: 0x10208, symBinAddr: 0xA055C, symSize: 0x104 }
  - { offset: 0x258640, size: 0x8, addend: 0x0, symName: __ZNSt3__16vectorI7gguf_kvNS_9allocatorIS1_EEE24__emplace_back_slow_pathIJRPKcRtEEEPS1_DpOT_, symObjAddr: 0x100C8, symBinAddr: 0xA041C, symSize: 0x140 }
  - { offset: 0x258BD5, size: 0x8, addend: 0x0, symName: _gguf_set_val_i16, symObjAddr: 0x5A7C, symBinAddr: 0x96740, symSize: 0x1E4 }
  - { offset: 0x25931D, size: 0x8, addend: 0x0, symName: __ZNSt3__19allocatorI7gguf_kvE9constructB8ne190102IS1_JRPKcRsEEEvPT_DpOT0_, symObjAddr: 0x1044C, symBinAddr: 0xA07A0, symSize: 0x104 }
  - { offset: 0x2598DC, size: 0x8, addend: 0x0, symName: __ZNSt3__16vectorI7gguf_kvNS_9allocatorIS1_EEE24__emplace_back_slow_pathIJRPKcRsEEEPS1_DpOT_, symObjAddr: 0x1030C, symBinAddr: 0xA0660, symSize: 0x140 }
  - { offset: 0x259E71, size: 0x8, addend: 0x0, symName: _gguf_set_val_u32, symObjAddr: 0x5C60, symBinAddr: 0x96924, symSize: 0x1E8 }
  - { offset: 0x25A5D0, size: 0x8, addend: 0x0, symName: __ZNSt3__19allocatorI7gguf_kvE9constructB8ne190102IS1_JRPKcRjEEEvPT_DpOT0_, symObjAddr: 0x10690, symBinAddr: 0xA09E4, symSize: 0x104 }
  - { offset: 0x25AB97, size: 0x8, addend: 0x0, symName: __ZNSt3__16vectorI7gguf_kvNS_9allocatorIS1_EEE24__emplace_back_slow_pathIJRPKcRjEEEPS1_DpOT_, symObjAddr: 0x10550, symBinAddr: 0xA08A4, symSize: 0x140 }
  - { offset: 0x25B12C, size: 0x8, addend: 0x0, symName: _gguf_set_val_i32, symObjAddr: 0x5E48, symBinAddr: 0x96B0C, symSize: 0x1E4 }
  - { offset: 0x25B874, size: 0x8, addend: 0x0, symName: __ZNSt3__19allocatorI7gguf_kvE9constructB8ne190102IS1_JRPKcRiEEEvPT_DpOT0_, symObjAddr: 0x108D4, symBinAddr: 0xA0C28, symSize: 0x104 }
  - { offset: 0x25BE3B, size: 0x8, addend: 0x0, symName: __ZNSt3__16vectorI7gguf_kvNS_9allocatorIS1_EEE24__emplace_back_slow_pathIJRPKcRiEEEPS1_DpOT_, symObjAddr: 0x10794, symBinAddr: 0xA0AE8, symSize: 0x140 }
  - { offset: 0x25C3D0, size: 0x8, addend: 0x0, symName: _gguf_set_val_f32, symObjAddr: 0x602C, symBinAddr: 0x96CF0, symSize: 0x1E4 }
  - { offset: 0x25CB18, size: 0x8, addend: 0x0, symName: __ZNSt3__19allocatorI7gguf_kvE9constructB8ne190102IS1_JRPKcRfEEEvPT_DpOT0_, symObjAddr: 0x10B18, symBinAddr: 0xA0E6C, symSize: 0x104 }
  - { offset: 0x25D0E0, size: 0x8, addend: 0x0, symName: __ZNSt3__16vectorI7gguf_kvNS_9allocatorIS1_EEE24__emplace_back_slow_pathIJRPKcRfEEEPS1_DpOT_, symObjAddr: 0x109D8, symBinAddr: 0xA0D2C, symSize: 0x140 }
  - { offset: 0x25D675, size: 0x8, addend: 0x0, symName: _gguf_set_val_u64, symObjAddr: 0x6210, symBinAddr: 0x96ED4, symSize: 0x1E0 }
  - { offset: 0x25DDBD, size: 0x8, addend: 0x0, symName: __ZNSt3__19allocatorI7gguf_kvE9constructB8ne190102IS1_JRPKcRyEEEvPT_DpOT0_, symObjAddr: 0x10D5C, symBinAddr: 0xA10B0, symSize: 0x104 }
  - { offset: 0x25E384, size: 0x8, addend: 0x0, symName: __ZNSt3__16vectorI7gguf_kvNS_9allocatorIS1_EEE24__emplace_back_slow_pathIJRPKcRyEEEPS1_DpOT_, symObjAddr: 0x10C1C, symBinAddr: 0xA0F70, symSize: 0x140 }
  - { offset: 0x25E919, size: 0x8, addend: 0x0, symName: _gguf_set_val_i64, symObjAddr: 0x63F0, symBinAddr: 0x970B4, symSize: 0x1E0 }
  - { offset: 0x25F061, size: 0x8, addend: 0x0, symName: __ZNSt3__19allocatorI7gguf_kvE9constructB8ne190102IS1_JRPKcRxEEEvPT_DpOT0_, symObjAddr: 0x10FA0, symBinAddr: 0xA12F4, symSize: 0x104 }
  - { offset: 0x25F628, size: 0x8, addend: 0x0, symName: __ZNSt3__16vectorI7gguf_kvNS_9allocatorIS1_EEE24__emplace_back_slow_pathIJRPKcRxEEEPS1_DpOT_, symObjAddr: 0x10E60, symBinAddr: 0xA11B4, symSize: 0x140 }
  - { offset: 0x25FBBD, size: 0x8, addend: 0x0, symName: _gguf_set_val_f64, symObjAddr: 0x65D0, symBinAddr: 0x97294, symSize: 0x1E4 }
  - { offset: 0x260305, size: 0x8, addend: 0x0, symName: __ZNSt3__19allocatorI7gguf_kvE9constructB8ne190102IS1_JRPKcRdEEEvPT_DpOT0_, symObjAddr: 0x111E4, symBinAddr: 0xA1538, symSize: 0x104 }
  - { offset: 0x2608CD, size: 0x8, addend: 0x0, symName: __ZNSt3__16vectorI7gguf_kvNS_9allocatorIS1_EEE24__emplace_back_slow_pathIJRPKcRdEEEPS1_DpOT_, symObjAddr: 0x110A4, symBinAddr: 0xA13F8, symSize: 0x140 }
  - { offset: 0x260E62, size: 0x8, addend: 0x0, symName: _gguf_set_val_bool, symObjAddr: 0x67B4, symBinAddr: 0x97478, symSize: 0x1E4 }
  - { offset: 0x2615AA, size: 0x8, addend: 0x0, symName: __ZNSt3__19allocatorI7gguf_kvE9constructB8ne190102IS1_JRPKcRbEEEvPT_DpOT0_, symObjAddr: 0x11428, symBinAddr: 0xA177C, symSize: 0x104 }
  - { offset: 0x261B69, size: 0x8, addend: 0x0, symName: __ZNSt3__16vectorI7gguf_kvNS_9allocatorIS1_EEE24__emplace_back_slow_pathIJRPKcRbEEEPS1_DpOT_, symObjAddr: 0x112E8, symBinAddr: 0xA163C, symSize: 0x140 }
  - { offset: 0x262104, size: 0x8, addend: 0x0, symName: _gguf_set_val_str, symObjAddr: 0x6998, symBinAddr: 0x9765C, symSize: 0x290 }
  - { offset: 0x262C4F, size: 0x8, addend: 0x0, symName: __ZNSt3__19allocatorI7gguf_kvE9constructB8ne190102IS1_JRPKcNS_12basic_stringIcNS_11char_traitsIcEENS0_IcEEEEEEEvPT_DpOT0_, symObjAddr: 0x1166C, symBinAddr: 0xA19C0, symSize: 0x104 }
  - { offset: 0x26321D, size: 0x8, addend: 0x0, symName: __ZNSt3__16vectorI7gguf_kvNS_9allocatorIS1_EEE24__emplace_back_slow_pathIJRPKcNS_12basic_stringIcNS_11char_traitsIcEENS2_IcEEEEEEEPS1_DpOT_, symObjAddr: 0x1152C, symBinAddr: 0xA1880, symSize: 0x140 }
  - { offset: 0x263997, size: 0x8, addend: 0x0, symName: _gguf_set_arr_data, symObjAddr: 0x6C28, symBinAddr: 0x978EC, symSize: 0x3A4 }
  - { offset: 0x2646DA, size: 0x8, addend: 0x0, symName: __ZNSt3__16vectorI7gguf_kvNS_9allocatorIS1_EEE24__emplace_back_slow_pathIJRPKcRNS0_IaNS2_IaEEEEEEEPS1_DpOT_, symObjAddr: 0x11770, symBinAddr: 0xA1AC4, symSize: 0x140 }
  - { offset: 0x264B52, size: 0x8, addend: 0x0, symName: __ZNSt3__19allocatorI7gguf_kvE9constructB8ne190102IS1_JRPKcRNS_6vectorIaNS0_IaEEEEEEEvPT_DpOT0_, symObjAddr: 0x118B0, symBinAddr: 0xA1C04, symSize: 0x104 }
  - { offset: 0x265120, size: 0x8, addend: 0x0, symName: __ZNKSt3__16vectorIaNS_9allocatorIaEEE20__throw_length_errorB8ne190102Ev, symObjAddr: 0x9734, symBinAddr: 0x9A388, symSize: 0x14 }
  - { offset: 0x2654BB, size: 0x8, addend: 0x0, symName: _gguf_set_arr_str, symObjAddr: 0x6FCC, symBinAddr: 0x97C90, symSize: 0x330 }
  - { offset: 0x26623D, size: 0x8, addend: 0x0, symName: __ZNSt3__19allocatorI7gguf_kvE9constructB8ne190102IS1_JRPKcRNS_6vectorINS_12basic_stringIcNS_11char_traitsIcEENS0_IcEEEENS0_ISC_EEEEEEEvPT_DpOT0_, symObjAddr: 0x11B74, symBinAddr: 0xA1E48, symSize: 0x104 }
  - { offset: 0x26680B, size: 0x8, addend: 0x0, symName: __ZNSt3__16vectorI7gguf_kvNS_9allocatorIS1_EEE24__emplace_back_slow_pathIJRPKcRNS0_INS_12basic_stringIcNS_11char_traitsIcEENS2_IcEEEENS2_ISD_EEEEEEEPS1_DpOT_, symObjAddr: 0x11A34, symBinAddr: 0xA1D08, symSize: 0x140 }
  - { offset: 0x266C9B, size: 0x8, addend: 0x0, symName: __ZNSt3__16vectorI7gguf_kvNS_9allocatorIS1_EEE24__emplace_back_slow_pathIJRKNS_12basic_stringIcNS_11char_traitsIcEENS2_IcEEEERNS0_ISA_NS2_ISA_EEEEEEEPS1_DpOT_, symObjAddr: 0xDF7C, symBinAddr: 0x9E5D0, symSize: 0x140 }
  - { offset: 0x2670E5, size: 0x8, addend: 0x0, symName: _gguf_set_kv, symObjAddr: 0x736C, symBinAddr: 0x97FC0, symSize: 0x990 }
  - { offset: 0x268EC8, size: 0x8, addend: 0x0, symName: __ZNKSt3__16vectorIPKcNS_9allocatorIS2_EEE20__throw_length_errorB8ne190102Ev, symObjAddr: 0x11C78, symBinAddr: 0xA1F4C, symSize: 0x14 }
  - { offset: 0x268EF2, size: 0x8, addend: 0x0, symName: __ZN7gguf_kvC2IhEERKNSt3__112basic_stringIcNS1_11char_traitsIcEENS1_9allocatorIcEEEERKNS1_6vectorIT_NS5_ISB_EEEE.cold.1, symObjAddr: 0x11C8C, symBinAddr: 0x105D6C, symSize: 0x10 }
  - { offset: 0x268F64, size: 0x8, addend: 0x0, symName: _gguf_add_tensor, symObjAddr: 0x7CFC, symBinAddr: 0x98950, symSize: 0x26C }
  - { offset: 0x26940A, size: 0x8, addend: 0x0, symName: _gguf_set_tensor_type, symObjAddr: 0x7F68, symBinAddr: 0x98BBC, symSize: 0x190 }
  - { offset: 0x269439, size: 0x8, addend: 0x0, symName: _gguf_set_tensor_type, symObjAddr: 0x7F68, symBinAddr: 0x98BBC, symSize: 0x190 }
  - { offset: 0x269661, size: 0x8, addend: 0x0, symName: _gguf_set_tensor_data, symObjAddr: 0x80F8, symBinAddr: 0x98D4C, symSize: 0xA0 }
  - { offset: 0x269675, size: 0x8, addend: 0x0, symName: _gguf_set_tensor_data, symObjAddr: 0x80F8, symBinAddr: 0x98D4C, symSize: 0xA0 }
  - { offset: 0x269D3A, size: 0x8, addend: 0x0, symName: __Z17gguf_write_to_bufPK12gguf_contextRNSt3__16vectorIaNS2_9allocatorIaEEEEb, symObjAddr: 0x8198, symBinAddr: 0x98DEC, symSize: 0x610 }
  - { offset: 0x26BE77, size: 0x8, addend: 0x0, symName: __ZNK11gguf_writer5writeIjEEvRKT_, symObjAddr: 0x87A8, symBinAddr: 0x993FC, symSize: 0x2B0 }
  - { offset: 0x26BE8A, size: 0x8, addend: 0x0, symName: __ZNK11gguf_writer5writeIjEEvRKT_, symObjAddr: 0x87A8, symBinAddr: 0x993FC, symSize: 0x2B0 }
  - { offset: 0x26C29C, size: 0x8, addend: 0x0, symName: __ZNK11gguf_writer5writeERK7gguf_kv, symObjAddr: 0x8A58, symBinAddr: 0x996AC, symSize: 0x33C }
  - { offset: 0x26C2B8, size: 0x8, addend: 0x0, symName: __ZNK11gguf_writer5writeERK7gguf_kv, symObjAddr: 0x8A58, symBinAddr: 0x996AC, symSize: 0x33C }
  - { offset: 0x26CEE3, size: 0x8, addend: 0x0, symName: __ZNK11gguf_writer17write_tensor_metaERK16gguf_tensor_info, symObjAddr: 0x8D94, symBinAddr: 0x999E8, symSize: 0x22C }
  - { offset: 0x26CEF7, size: 0x8, addend: 0x0, symName: __ZNK11gguf_writer17write_tensor_metaERK16gguf_tensor_info, symObjAddr: 0x8D94, symBinAddr: 0x999E8, symSize: 0x22C }
  - { offset: 0x26D8C0, size: 0x8, addend: 0x0, symName: __ZNK11gguf_writer17write_tensor_dataERK16gguf_tensor_infomm, symObjAddr: 0x8FC0, symBinAddr: 0x99C14, symSize: 0x2E4 }
  - { offset: 0x26D8D3, size: 0x8, addend: 0x0, symName: __ZNK11gguf_writer17write_tensor_dataERK16gguf_tensor_infomm, symObjAddr: 0x8FC0, symBinAddr: 0x99C14, symSize: 0x2E4 }
  - { offset: 0x26E3D5, size: 0x8, addend: 0x0, symName: _gguf_write_to_file, symObjAddr: 0x92A4, symBinAddr: 0x99EF8, symSize: 0xFC }
  - { offset: 0x26E515, size: 0x8, addend: 0x0, symName: __ZNK11gguf_writer5writeERKNSt3__112basic_stringIcNS0_11char_traitsIcEENS0_9allocatorIcEEEE, symObjAddr: 0x9538, symBinAddr: 0x9A18C, symSize: 0x1FC }
  - { offset: 0x26EFB4, size: 0x8, addend: 0x0, symName: __ZNKSt3__16vectorIaNS_9allocatorIaEEE20__throw_length_errorB8ne190102Ev, symObjAddr: 0x9734, symBinAddr: 0x9A388, symSize: 0x14 }
  - { offset: 0x26EFC7, size: 0x8, addend: 0x0, symName: __ZNK11gguf_writer5writeIiEEvRKT_, symObjAddr: 0x97E4, symBinAddr: 0x9A39C, symSize: 0x2B0 }
  - { offset: 0x26F3D9, size: 0x8, addend: 0x0, symName: __ZNSt3__16vectorIaNS_9allocatorIaEEE18__insert_with_sizeB8ne190102INS_11__wrap_iterIPKaEES8_EENS5_IPaEES8_T_T0_l, symObjAddr: 0x9A94, symBinAddr: 0x9A64C, symSize: 0x30C }
  - { offset: 0x26F3F5, size: 0x8, addend: 0x0, symName: __ZNSt3__16vectorIaNS_9allocatorIaEEE18__insert_with_sizeB8ne190102INS_11__wrap_iterIPKaEES8_EENS5_IPaEES8_T_T0_l, symObjAddr: 0x9A94, symBinAddr: 0x9A64C, symSize: 0x30C }
  - { offset: 0x26FE9A, size: 0x8, addend: 0x0, symName: __ZNK11gguf_writer5writeEPKc, symObjAddr: 0x9DA0, symBinAddr: 0x9A958, symSize: 0xFC }
  - { offset: 0x26FEE1, size: 0x8, addend: 0x0, symName: __ZNK11gguf_writer5writeEPKc, symObjAddr: 0x9DA0, symBinAddr: 0x9A958, symSize: 0xFC }
  - { offset: 0x270643, size: 0x8, addend: 0x0, symName: _gguf_write_to_file, symObjAddr: 0x92A4, symBinAddr: 0x99EF8, symSize: 0xFC }
  - { offset: 0x270AC6, size: 0x8, addend: 0x0, symName: _gguf_get_meta_size, symObjAddr: 0x93A0, symBinAddr: 0x99FF4, symSize: 0x68 }
  - { offset: 0x270E3A, size: 0x8, addend: 0x0, symName: _gguf_get_meta_data, symObjAddr: 0x9408, symBinAddr: 0x9A05C, symSize: 0x78 }
  - { offset: 0x271938, size: 0x8, addend: 0x0, symName: __ZNSt3__13mapI9gguf_typemNS_4lessIS1_EENS_9allocatorINS_4pairIKS1_mEEEEEC2B8ne190102ESt16initializer_listIS7_ERKS3_, symObjAddr: 0x9E9C, symBinAddr: 0x9AA54, symSize: 0xF4 }
  - { offset: 0x271D58, size: 0x8, addend: 0x0, symName: __ZNSt3__16__treeINS_12__value_typeI9gguf_typemEENS_19__map_value_compareIS2_S3_NS_4lessIS2_EELb1EEENS_9allocatorIS3_EEE12__find_equalIS2_EERPNS_16__tree_node_baseIPvEENS_21__tree_const_iteratorIS3_PNS_11__tree_nodeIS3_SD_EElEERPNS_15__tree_end_nodeISF_EESG_RKT_, symObjAddr: 0x9F90, symBinAddr: 0x9AB48, symSize: 0x1B0 }
  - { offset: 0x271DC0, size: 0x8, addend: 0x0, symName: __ZNSt3__16__treeINS_12__value_typeI9gguf_typemEENS_19__map_value_compareIS2_S3_NS_4lessIS2_EELb1EEENS_9allocatorIS3_EEE12__find_equalIS2_EERPNS_16__tree_node_baseIPvEENS_21__tree_const_iteratorIS3_PNS_11__tree_nodeIS3_SD_EElEERPNS_15__tree_end_nodeISF_EESG_RKT_, symObjAddr: 0x9F90, symBinAddr: 0x9AB48, symSize: 0x1B0 }
  - { offset: 0x271DDE, size: 0x8, addend: 0x0, symName: __ZNSt3__16__treeINS_12__value_typeI9gguf_typemEENS_19__map_value_compareIS2_S3_NS_4lessIS2_EELb1EEENS_9allocatorIS3_EEE12__find_equalIS2_EERPNS_16__tree_node_baseIPvEENS_21__tree_const_iteratorIS3_PNS_11__tree_nodeIS3_SD_EElEERPNS_15__tree_end_nodeISF_EESG_RKT_, symObjAddr: 0x9F90, symBinAddr: 0x9AB48, symSize: 0x1B0 }
  - { offset: 0x27261A, size: 0x8, addend: 0x0, symName: __ZNSt3__13mapI9gguf_typePKcNS_4lessIS1_EENS_9allocatorINS_4pairIKS1_S3_EEEEEC2B8ne190102ESt16initializer_listIS9_ERKS5_, symObjAddr: 0xA338, symBinAddr: 0x9AD3C, symSize: 0xF4 }
  - { offset: 0x272A3A, size: 0x8, addend: 0x0, symName: __ZNSt3__16__treeINS_12__value_typeI9gguf_typePKcEENS_19__map_value_compareIS2_S5_NS_4lessIS2_EELb1EEENS_9allocatorIS5_EEE12__find_equalIS2_EERPNS_16__tree_node_baseIPvEENS_21__tree_const_iteratorIS5_PNS_11__tree_nodeIS5_SF_EElEERPNS_15__tree_end_nodeISH_EESI_RKT_, symObjAddr: 0xA42C, symBinAddr: 0x9AE30, symSize: 0x1B0 }
  - { offset: 0x272AA2, size: 0x8, addend: 0x0, symName: __ZNSt3__16__treeINS_12__value_typeI9gguf_typePKcEENS_19__map_value_compareIS2_S5_NS_4lessIS2_EELb1EEENS_9allocatorIS5_EEE12__find_equalIS2_EERPNS_16__tree_node_baseIPvEENS_21__tree_const_iteratorIS5_PNS_11__tree_nodeIS5_SF_EElEERPNS_15__tree_end_nodeISH_EESI_RKT_, symObjAddr: 0xA42C, symBinAddr: 0x9AE30, symSize: 0x1B0 }
  - { offset: 0x272AC0, size: 0x8, addend: 0x0, symName: __ZNSt3__16__treeINS_12__value_typeI9gguf_typePKcEENS_19__map_value_compareIS2_S5_NS_4lessIS2_EELb1EEENS_9allocatorIS5_EEE12__find_equalIS2_EERPNS_16__tree_node_baseIPvEENS_21__tree_const_iteratorIS5_PNS_11__tree_nodeIS5_SF_EElEERPNS_15__tree_end_nodeISH_EESI_RKT_, symObjAddr: 0xA42C, symBinAddr: 0x9AE30, symSize: 0x1B0 }
  - { offset: 0x2733BB, size: 0x8, addend: 0x0, symName: __ZNSt3__16vectorI7gguf_kvNS_9allocatorIS1_EEE24__emplace_back_slow_pathIJRKNS_12basic_stringIcNS_11char_traitsIcEENS2_IcEEEERNS0_IhNS2_IhEEEEEEEPS1_DpOT_, symObjAddr: 0xA790, symBinAddr: 0x9B180, symSize: 0x140 }
  - { offset: 0x2735F7, size: 0x8, addend: 0x0, symName: __ZNKSt3__16vectorI7gguf_kvNS_9allocatorIS1_EEE20__throw_length_errorB8ne190102Ev, symObjAddr: 0xAAFC, symBinAddr: 0x9B44C, symSize: 0x14 }
  - { offset: 0x273621, size: 0x8, addend: 0x0, symName: __ZNSt3__134__uninitialized_allocator_relocateB8ne190102INS_9allocatorI7gguf_kvEES2_EEvRT_PT0_S7_S7_, symObjAddr: 0xAB10, symBinAddr: 0x9B460, symSize: 0x11C }
  - { offset: 0x27362C, size: 0x8, addend: 0x0, symName: __ZNSt3__114__split_bufferI7gguf_kvRNS_9allocatorIS1_EEED1Ev, symObjAddr: 0xAACC, symBinAddr: 0x9B41C, symSize: 0x30 }
  - { offset: 0x2738BA, size: 0x8, addend: 0x0, symName: __ZN7gguf_kvC2IhEERKNSt3__112basic_stringIcNS1_11char_traitsIcEENS1_9allocatorIcEEEERKNS1_6vectorIT_NS5_ISB_EEEE.cold.1, symObjAddr: 0x11C8C, symBinAddr: 0x105D6C, symSize: 0x10 }
  - { offset: 0x2738D6, size: 0x8, addend: 0x0, symName: __ZN7gguf_kvC2IhEERKNSt3__112basic_stringIcNS1_11char_traitsIcEENS1_9allocatorIcEEEERKNS1_6vectorIT_NS5_ISB_EEEE.cold.1, symObjAddr: 0x11C8C, symBinAddr: 0x105D6C, symSize: 0x10 }
  - { offset: 0x2738EB, size: 0x8, addend: 0x0, symName: __ZN7gguf_kvC2IhEERKNSt3__112basic_stringIcNS1_11char_traitsIcEENS1_9allocatorIcEEEERKNS1_6vectorIT_NS5_ISB_EEEE.cold.1, symObjAddr: 0x11C8C, symBinAddr: 0x105D6C, symSize: 0x10 }
  - { offset: 0x273901, size: 0x8, addend: 0x0, symName: __ZN7gguf_kvC2IhEERKNSt3__112basic_stringIcNS1_11char_traitsIcEENS1_9allocatorIcEEEERKNS1_6vectorIT_NS5_ISB_EEEE.cold.1, symObjAddr: 0x11C8C, symBinAddr: 0x105D6C, symSize: 0x10 }
  - { offset: 0x273916, size: 0x8, addend: 0x0, symName: __ZNSt3__114__split_bufferI7gguf_kvRNS_9allocatorIS1_EEE5clearB8ne190102Ev, symObjAddr: 0xAC2C, symBinAddr: 0x9B57C, symSize: 0xBC }
  - { offset: 0x274134, size: 0x8, addend: 0x0, symName: __ZN7gguf_kvC2IhEERKNSt3__112basic_stringIcNS1_11char_traitsIcEENS1_9allocatorIcEEEET_.cold.1, symObjAddr: 0x11C9C, symBinAddr: 0x105D7C, symSize: 0x10 }
  - { offset: 0x274150, size: 0x8, addend: 0x0, symName: __ZN7gguf_kvC2IhEERKNSt3__112basic_stringIcNS1_11char_traitsIcEENS1_9allocatorIcEEEET_.cold.1, symObjAddr: 0x11C9C, symBinAddr: 0x105D7C, symSize: 0x10 }
  - { offset: 0x274165, size: 0x8, addend: 0x0, symName: __ZN7gguf_kvC2IhEERKNSt3__112basic_stringIcNS1_11char_traitsIcEENS1_9allocatorIcEEEET_.cold.1, symObjAddr: 0x11C9C, symBinAddr: 0x105D7C, symSize: 0x10 }
  - { offset: 0x27417B, size: 0x8, addend: 0x0, symName: __ZN7gguf_kvC2IhEERKNSt3__112basic_stringIcNS1_11char_traitsIcEENS1_9allocatorIcEEEET_.cold.1, symObjAddr: 0x11C9C, symBinAddr: 0x105D7C, symSize: 0x10 }
  - { offset: 0x2741B4, size: 0x8, addend: 0x0, symName: __ZN7gguf_kvC2IaEERKNSt3__112basic_stringIcNS1_11char_traitsIcEENS1_9allocatorIcEEEERKNS1_6vectorIT_NS5_ISB_EEEE.cold.1, symObjAddr: 0x11CAC, symBinAddr: 0x105D8C, symSize: 0x10 }
  - { offset: 0x2741D0, size: 0x8, addend: 0x0, symName: __ZN7gguf_kvC2IaEERKNSt3__112basic_stringIcNS1_11char_traitsIcEENS1_9allocatorIcEEEERKNS1_6vectorIT_NS5_ISB_EEEE.cold.1, symObjAddr: 0x11CAC, symBinAddr: 0x105D8C, symSize: 0x10 }
  - { offset: 0x2741E5, size: 0x8, addend: 0x0, symName: __ZN7gguf_kvC2IaEERKNSt3__112basic_stringIcNS1_11char_traitsIcEENS1_9allocatorIcEEEERKNS1_6vectorIT_NS5_ISB_EEEE.cold.1, symObjAddr: 0x11CAC, symBinAddr: 0x105D8C, symSize: 0x10 }
  - { offset: 0x2741FB, size: 0x8, addend: 0x0, symName: __ZN7gguf_kvC2IaEERKNSt3__112basic_stringIcNS1_11char_traitsIcEENS1_9allocatorIcEEEERKNS1_6vectorIT_NS5_ISB_EEEE.cold.1, symObjAddr: 0x11CAC, symBinAddr: 0x105D8C, symSize: 0x10 }
  - { offset: 0x274210, size: 0x8, addend: 0x0, symName: __ZN7gguf_kvC2IaEERKNSt3__112basic_stringIcNS1_11char_traitsIcEENS1_9allocatorIcEEEET_.cold.1, symObjAddr: 0x11CBC, symBinAddr: 0x105D9C, symSize: 0x10 }
  - { offset: 0x27422C, size: 0x8, addend: 0x0, symName: __ZN7gguf_kvC2IaEERKNSt3__112basic_stringIcNS1_11char_traitsIcEENS1_9allocatorIcEEEET_.cold.1, symObjAddr: 0x11CBC, symBinAddr: 0x105D9C, symSize: 0x10 }
  - { offset: 0x274241, size: 0x8, addend: 0x0, symName: __ZN7gguf_kvC2IaEERKNSt3__112basic_stringIcNS1_11char_traitsIcEENS1_9allocatorIcEEEET_.cold.1, symObjAddr: 0x11CBC, symBinAddr: 0x105D9C, symSize: 0x10 }
  - { offset: 0x274257, size: 0x8, addend: 0x0, symName: __ZN7gguf_kvC2IaEERKNSt3__112basic_stringIcNS1_11char_traitsIcEENS1_9allocatorIcEEEET_.cold.1, symObjAddr: 0x11CBC, symBinAddr: 0x105D9C, symSize: 0x10 }
  - { offset: 0x274512, size: 0x8, addend: 0x0, symName: __ZNKSt3__16vectorItNS_9allocatorItEEE20__throw_length_errorB8ne190102Ev, symObjAddr: 0xB66C, symBinAddr: 0x9BFBC, symSize: 0x14 }
  - { offset: 0x27453C, size: 0x8, addend: 0x0, symName: __ZNSt3__16vectorI7gguf_kvNS_9allocatorIS1_EEE24__emplace_back_slow_pathIJRKNS_12basic_stringIcNS_11char_traitsIcEENS2_IcEEEERNS0_ItNS2_ItEEEEEEEPS1_DpOT_, symObjAddr: 0xB680, symBinAddr: 0x9BFD0, symSize: 0x140 }
  - { offset: 0x274547, size: 0x8, addend: 0x0, symName: __ZN7gguf_kvC2ItEERKNSt3__112basic_stringIcNS1_11char_traitsIcEENS1_9allocatorIcEEEERKNS1_6vectorIT_NS5_ISB_EEEE.cold.1, symObjAddr: 0x11CCC, symBinAddr: 0x105DAC, symSize: 0x10 }
  - { offset: 0x274563, size: 0x8, addend: 0x0, symName: __ZN7gguf_kvC2ItEERKNSt3__112basic_stringIcNS1_11char_traitsIcEENS1_9allocatorIcEEEERKNS1_6vectorIT_NS5_ISB_EEEE.cold.1, symObjAddr: 0x11CCC, symBinAddr: 0x105DAC, symSize: 0x10 }
  - { offset: 0x274578, size: 0x8, addend: 0x0, symName: __ZN7gguf_kvC2ItEERKNSt3__112basic_stringIcNS1_11char_traitsIcEENS1_9allocatorIcEEEERKNS1_6vectorIT_NS5_ISB_EEEE.cold.1, symObjAddr: 0x11CCC, symBinAddr: 0x105DAC, symSize: 0x10 }
  - { offset: 0x27458E, size: 0x8, addend: 0x0, symName: __ZN7gguf_kvC2ItEERKNSt3__112basic_stringIcNS1_11char_traitsIcEENS1_9allocatorIcEEEERKNS1_6vectorIT_NS5_ISB_EEEE.cold.1, symObjAddr: 0x11CCC, symBinAddr: 0x105DAC, symSize: 0x10 }
  - { offset: 0x2745A3, size: 0x8, addend: 0x0, symName: __ZN7gguf_kvC2ItEERKNSt3__112basic_stringIcNS1_11char_traitsIcEENS1_9allocatorIcEEEET_.cold.1, symObjAddr: 0x11CDC, symBinAddr: 0x105DBC, symSize: 0x10 }
  - { offset: 0x2745BF, size: 0x8, addend: 0x0, symName: __ZN7gguf_kvC2ItEERKNSt3__112basic_stringIcNS1_11char_traitsIcEENS1_9allocatorIcEEEET_.cold.1, symObjAddr: 0x11CDC, symBinAddr: 0x105DBC, symSize: 0x10 }
  - { offset: 0x2745D4, size: 0x8, addend: 0x0, symName: __ZN7gguf_kvC2ItEERKNSt3__112basic_stringIcNS1_11char_traitsIcEENS1_9allocatorIcEEEET_.cold.1, symObjAddr: 0x11CDC, symBinAddr: 0x105DBC, symSize: 0x10 }
  - { offset: 0x2745EA, size: 0x8, addend: 0x0, symName: __ZN7gguf_kvC2ItEERKNSt3__112basic_stringIcNS1_11char_traitsIcEENS1_9allocatorIcEEEET_.cold.1, symObjAddr: 0x11CDC, symBinAddr: 0x105DBC, symSize: 0x10 }
  - { offset: 0x2748A5, size: 0x8, addend: 0x0, symName: __ZNKSt3__16vectorIsNS_9allocatorIsEEE20__throw_length_errorB8ne190102Ev, symObjAddr: 0xBC74, symBinAddr: 0x9C5C4, symSize: 0x14 }
  - { offset: 0x2748CF, size: 0x8, addend: 0x0, symName: __ZNSt3__16vectorI7gguf_kvNS_9allocatorIS1_EEE24__emplace_back_slow_pathIJRKNS_12basic_stringIcNS_11char_traitsIcEENS2_IcEEEERNS0_IsNS2_IsEEEEEEEPS1_DpOT_, symObjAddr: 0xBC88, symBinAddr: 0x9C5D8, symSize: 0x140 }
  - { offset: 0x2748DA, size: 0x8, addend: 0x0, symName: __ZN7gguf_kvC2IsEERKNSt3__112basic_stringIcNS1_11char_traitsIcEENS1_9allocatorIcEEEERKNS1_6vectorIT_NS5_ISB_EEEE.cold.1, symObjAddr: 0x11CEC, symBinAddr: 0x105DCC, symSize: 0x10 }
  - { offset: 0x2748F6, size: 0x8, addend: 0x0, symName: __ZN7gguf_kvC2IsEERKNSt3__112basic_stringIcNS1_11char_traitsIcEENS1_9allocatorIcEEEERKNS1_6vectorIT_NS5_ISB_EEEE.cold.1, symObjAddr: 0x11CEC, symBinAddr: 0x105DCC, symSize: 0x10 }
  - { offset: 0x27490B, size: 0x8, addend: 0x0, symName: __ZN7gguf_kvC2IsEERKNSt3__112basic_stringIcNS1_11char_traitsIcEENS1_9allocatorIcEEEERKNS1_6vectorIT_NS5_ISB_EEEE.cold.1, symObjAddr: 0x11CEC, symBinAddr: 0x105DCC, symSize: 0x10 }
  - { offset: 0x274921, size: 0x8, addend: 0x0, symName: __ZN7gguf_kvC2IsEERKNSt3__112basic_stringIcNS1_11char_traitsIcEENS1_9allocatorIcEEEERKNS1_6vectorIT_NS5_ISB_EEEE.cold.1, symObjAddr: 0x11CEC, symBinAddr: 0x105DCC, symSize: 0x10 }
  - { offset: 0x274936, size: 0x8, addend: 0x0, symName: __ZN7gguf_kvC2IsEERKNSt3__112basic_stringIcNS1_11char_traitsIcEENS1_9allocatorIcEEEET_.cold.1, symObjAddr: 0x11CFC, symBinAddr: 0x105DDC, symSize: 0x10 }
  - { offset: 0x274952, size: 0x8, addend: 0x0, symName: __ZN7gguf_kvC2IsEERKNSt3__112basic_stringIcNS1_11char_traitsIcEENS1_9allocatorIcEEEET_.cold.1, symObjAddr: 0x11CFC, symBinAddr: 0x105DDC, symSize: 0x10 }
  - { offset: 0x274967, size: 0x8, addend: 0x0, symName: __ZN7gguf_kvC2IsEERKNSt3__112basic_stringIcNS1_11char_traitsIcEENS1_9allocatorIcEEEET_.cold.1, symObjAddr: 0x11CFC, symBinAddr: 0x105DDC, symSize: 0x10 }
  - { offset: 0x27497D, size: 0x8, addend: 0x0, symName: __ZN7gguf_kvC2IsEERKNSt3__112basic_stringIcNS1_11char_traitsIcEENS1_9allocatorIcEEEET_.cold.1, symObjAddr: 0x11CFC, symBinAddr: 0x105DDC, symSize: 0x10 }
  - { offset: 0x274C50, size: 0x8, addend: 0x0, symName: __ZNSt3__16vectorI7gguf_kvNS_9allocatorIS1_EEE24__emplace_back_slow_pathIJRKNS_12basic_stringIcNS_11char_traitsIcEENS2_IcEEEERNS0_IjNS2_IjEEEEEEEPS1_DpOT_, symObjAddr: 0xC29C, symBinAddr: 0x9CBD8, symSize: 0x140 }
  - { offset: 0x274C5B, size: 0x8, addend: 0x0, symName: __ZN7gguf_kvC2IjEERKNSt3__112basic_stringIcNS1_11char_traitsIcEENS1_9allocatorIcEEEERKNS1_6vectorIT_NS5_ISB_EEEE.cold.1, symObjAddr: 0x11D0C, symBinAddr: 0x105DEC, symSize: 0x10 }
  - { offset: 0x274C77, size: 0x8, addend: 0x0, symName: __ZN7gguf_kvC2IjEERKNSt3__112basic_stringIcNS1_11char_traitsIcEENS1_9allocatorIcEEEERKNS1_6vectorIT_NS5_ISB_EEEE.cold.1, symObjAddr: 0x11D0C, symBinAddr: 0x105DEC, symSize: 0x10 }
  - { offset: 0x274C8C, size: 0x8, addend: 0x0, symName: __ZN7gguf_kvC2IjEERKNSt3__112basic_stringIcNS1_11char_traitsIcEENS1_9allocatorIcEEEERKNS1_6vectorIT_NS5_ISB_EEEE.cold.1, symObjAddr: 0x11D0C, symBinAddr: 0x105DEC, symSize: 0x10 }
  - { offset: 0x274CA2, size: 0x8, addend: 0x0, symName: __ZN7gguf_kvC2IjEERKNSt3__112basic_stringIcNS1_11char_traitsIcEENS1_9allocatorIcEEEERKNS1_6vectorIT_NS5_ISB_EEEE.cold.1, symObjAddr: 0x11D0C, symBinAddr: 0x105DEC, symSize: 0x10 }
  - { offset: 0x274CB7, size: 0x8, addend: 0x0, symName: __ZN7gguf_kvC2IjEERKNSt3__112basic_stringIcNS1_11char_traitsIcEENS1_9allocatorIcEEEET_.cold.1, symObjAddr: 0x11D1C, symBinAddr: 0x105DFC, symSize: 0x10 }
  - { offset: 0x274CD3, size: 0x8, addend: 0x0, symName: __ZN7gguf_kvC2IjEERKNSt3__112basic_stringIcNS1_11char_traitsIcEENS1_9allocatorIcEEEET_.cold.1, symObjAddr: 0x11D1C, symBinAddr: 0x105DFC, symSize: 0x10 }
  - { offset: 0x274CE8, size: 0x8, addend: 0x0, symName: __ZN7gguf_kvC2IjEERKNSt3__112basic_stringIcNS1_11char_traitsIcEENS1_9allocatorIcEEEET_.cold.1, symObjAddr: 0x11D1C, symBinAddr: 0x105DFC, symSize: 0x10 }
  - { offset: 0x274CFE, size: 0x8, addend: 0x0, symName: __ZN7gguf_kvC2IjEERKNSt3__112basic_stringIcNS1_11char_traitsIcEENS1_9allocatorIcEEEET_.cold.1, symObjAddr: 0x11D1C, symBinAddr: 0x105DFC, symSize: 0x10 }
  - { offset: 0x274FD1, size: 0x8, addend: 0x0, symName: __ZNSt3__16vectorI7gguf_kvNS_9allocatorIS1_EEE24__emplace_back_slow_pathIJRKNS_12basic_stringIcNS_11char_traitsIcEENS2_IcEEEERNS0_IiNS2_IiEEEEEEEPS1_DpOT_, symObjAddr: 0xC8B0, symBinAddr: 0x9D0B4, symSize: 0x140 }
  - { offset: 0x274FDC, size: 0x8, addend: 0x0, symName: __ZN7gguf_kvC2IiEERKNSt3__112basic_stringIcNS1_11char_traitsIcEENS1_9allocatorIcEEEERKNS1_6vectorIT_NS5_ISB_EEEE.cold.1, symObjAddr: 0x11D2C, symBinAddr: 0x105E0C, symSize: 0x10 }
  - { offset: 0x274FF8, size: 0x8, addend: 0x0, symName: __ZN7gguf_kvC2IiEERKNSt3__112basic_stringIcNS1_11char_traitsIcEENS1_9allocatorIcEEEERKNS1_6vectorIT_NS5_ISB_EEEE.cold.1, symObjAddr: 0x11D2C, symBinAddr: 0x105E0C, symSize: 0x10 }
  - { offset: 0x27500D, size: 0x8, addend: 0x0, symName: __ZN7gguf_kvC2IiEERKNSt3__112basic_stringIcNS1_11char_traitsIcEENS1_9allocatorIcEEEERKNS1_6vectorIT_NS5_ISB_EEEE.cold.1, symObjAddr: 0x11D2C, symBinAddr: 0x105E0C, symSize: 0x10 }
  - { offset: 0x275023, size: 0x8, addend: 0x0, symName: __ZN7gguf_kvC2IiEERKNSt3__112basic_stringIcNS1_11char_traitsIcEENS1_9allocatorIcEEEERKNS1_6vectorIT_NS5_ISB_EEEE.cold.1, symObjAddr: 0x11D2C, symBinAddr: 0x105E0C, symSize: 0x10 }
  - { offset: 0x275038, size: 0x8, addend: 0x0, symName: __ZN7gguf_kvC2IiEERKNSt3__112basic_stringIcNS1_11char_traitsIcEENS1_9allocatorIcEEEET_.cold.1, symObjAddr: 0x11D3C, symBinAddr: 0x105E1C, symSize: 0x10 }
  - { offset: 0x275054, size: 0x8, addend: 0x0, symName: __ZN7gguf_kvC2IiEERKNSt3__112basic_stringIcNS1_11char_traitsIcEENS1_9allocatorIcEEEET_.cold.1, symObjAddr: 0x11D3C, symBinAddr: 0x105E1C, symSize: 0x10 }
  - { offset: 0x275069, size: 0x8, addend: 0x0, symName: __ZN7gguf_kvC2IiEERKNSt3__112basic_stringIcNS1_11char_traitsIcEENS1_9allocatorIcEEEET_.cold.1, symObjAddr: 0x11D3C, symBinAddr: 0x105E1C, symSize: 0x10 }
  - { offset: 0x27507F, size: 0x8, addend: 0x0, symName: __ZN7gguf_kvC2IiEERKNSt3__112basic_stringIcNS1_11char_traitsIcEENS1_9allocatorIcEEEET_.cold.1, symObjAddr: 0x11D3C, symBinAddr: 0x105E1C, symSize: 0x10 }
  - { offset: 0x275352, size: 0x8, addend: 0x0, symName: __ZNSt3__16vectorI7gguf_kvNS_9allocatorIS1_EEE24__emplace_back_slow_pathIJRKNS_12basic_stringIcNS_11char_traitsIcEENS2_IcEEEERNS0_IfNS2_IfEEEEEEEPS1_DpOT_, symObjAddr: 0xCEC4, symBinAddr: 0x9D590, symSize: 0x140 }
  - { offset: 0x27535D, size: 0x8, addend: 0x0, symName: __ZN7gguf_kvC2IfEERKNSt3__112basic_stringIcNS1_11char_traitsIcEENS1_9allocatorIcEEEERKNS1_6vectorIT_NS5_ISB_EEEE.cold.1, symObjAddr: 0x11D4C, symBinAddr: 0x105E2C, symSize: 0x10 }
  - { offset: 0x275379, size: 0x8, addend: 0x0, symName: __ZN7gguf_kvC2IfEERKNSt3__112basic_stringIcNS1_11char_traitsIcEENS1_9allocatorIcEEEERKNS1_6vectorIT_NS5_ISB_EEEE.cold.1, symObjAddr: 0x11D4C, symBinAddr: 0x105E2C, symSize: 0x10 }
  - { offset: 0x27538E, size: 0x8, addend: 0x0, symName: __ZN7gguf_kvC2IfEERKNSt3__112basic_stringIcNS1_11char_traitsIcEENS1_9allocatorIcEEEERKNS1_6vectorIT_NS5_ISB_EEEE.cold.1, symObjAddr: 0x11D4C, symBinAddr: 0x105E2C, symSize: 0x10 }
  - { offset: 0x2753A4, size: 0x8, addend: 0x0, symName: __ZN7gguf_kvC2IfEERKNSt3__112basic_stringIcNS1_11char_traitsIcEENS1_9allocatorIcEEEERKNS1_6vectorIT_NS5_ISB_EEEE.cold.1, symObjAddr: 0x11D4C, symBinAddr: 0x105E2C, symSize: 0x10 }
  - { offset: 0x2753B9, size: 0x8, addend: 0x0, symName: __ZN7gguf_kvC2IfEERKNSt3__112basic_stringIcNS1_11char_traitsIcEENS1_9allocatorIcEEEET_.cold.1, symObjAddr: 0x11D5C, symBinAddr: 0x105E3C, symSize: 0x10 }
  - { offset: 0x2753D5, size: 0x8, addend: 0x0, symName: __ZN7gguf_kvC2IfEERKNSt3__112basic_stringIcNS1_11char_traitsIcEENS1_9allocatorIcEEEET_.cold.1, symObjAddr: 0x11D5C, symBinAddr: 0x105E3C, symSize: 0x10 }
  - { offset: 0x2753EA, size: 0x8, addend: 0x0, symName: __ZN7gguf_kvC2IfEERKNSt3__112basic_stringIcNS1_11char_traitsIcEENS1_9allocatorIcEEEET_.cold.1, symObjAddr: 0x11D5C, symBinAddr: 0x105E3C, symSize: 0x10 }
  - { offset: 0x275400, size: 0x8, addend: 0x0, symName: __ZN7gguf_kvC2IfEERKNSt3__112basic_stringIcNS1_11char_traitsIcEENS1_9allocatorIcEEEET_.cold.1, symObjAddr: 0x11D5C, symBinAddr: 0x105E3C, symSize: 0x10 }
  - { offset: 0x2755A0, size: 0x8, addend: 0x0, symName: __ZNSt3__16vectorIbNS_9allocatorIbEEE7reserveEm, symObjAddr: 0xD610, symBinAddr: 0x9DCDC, symSize: 0x100 }
  - { offset: 0x275A11, size: 0x8, addend: 0x0, symName: __ZNKSt3__16vectorIbNS_9allocatorIbEEE20__throw_length_errorB8ne190102Ev, symObjAddr: 0xD710, symBinAddr: 0x9DDDC, symSize: 0x14 }
  - { offset: 0x275A24, size: 0x8, addend: 0x0, symName: __ZNKSt3__16vectorIbNS_9allocatorIbEEE20__throw_length_errorB8ne190102Ev, symObjAddr: 0xD710, symBinAddr: 0x9DDDC, symSize: 0x14 }
  - { offset: 0x275A4E, size: 0x8, addend: 0x0, symName: __ZNSt3__16vectorI7gguf_kvNS_9allocatorIS1_EEE24__emplace_back_slow_pathIJRKNS_12basic_stringIcNS_11char_traitsIcEENS2_IcEEEERNS0_IbNS2_IbEEEEEEEPS1_DpOT_, symObjAddr: 0xD724, symBinAddr: 0x9DDF0, symSize: 0x140 }
  - { offset: 0x275C5A, size: 0x8, addend: 0x0, symName: __ZN7gguf_kvC2IbEERKNSt3__112basic_stringIcNS1_11char_traitsIcEENS1_9allocatorIcEEEERKNS1_6vectorIT_NS5_ISB_EEEE.cold.1, symObjAddr: 0x11D6C, symBinAddr: 0x105E4C, symSize: 0x10 }
  - { offset: 0x275C76, size: 0x8, addend: 0x0, symName: __ZN7gguf_kvC2IbEERKNSt3__112basic_stringIcNS1_11char_traitsIcEENS1_9allocatorIcEEEERKNS1_6vectorIT_NS5_ISB_EEEE.cold.1, symObjAddr: 0x11D6C, symBinAddr: 0x105E4C, symSize: 0x10 }
  - { offset: 0x275C8B, size: 0x8, addend: 0x0, symName: __ZN7gguf_kvC2IbEERKNSt3__112basic_stringIcNS1_11char_traitsIcEENS1_9allocatorIcEEEERKNS1_6vectorIT_NS5_ISB_EEEE.cold.1, symObjAddr: 0x11D6C, symBinAddr: 0x105E4C, symSize: 0x10 }
  - { offset: 0x275CA1, size: 0x8, addend: 0x0, symName: __ZN7gguf_kvC2IbEERKNSt3__112basic_stringIcNS1_11char_traitsIcEENS1_9allocatorIcEEEERKNS1_6vectorIT_NS5_ISB_EEEE.cold.1, symObjAddr: 0x11D6C, symBinAddr: 0x105E4C, symSize: 0x10 }
  - { offset: 0x275CB6, size: 0x8, addend: 0x0, symName: __ZN7gguf_kvC2IbEERKNSt3__112basic_stringIcNS1_11char_traitsIcEENS1_9allocatorIcEEEET_.cold.1, symObjAddr: 0x11D7C, symBinAddr: 0x105E5C, symSize: 0x10 }
  - { offset: 0x275CD2, size: 0x8, addend: 0x0, symName: __ZN7gguf_kvC2IbEERKNSt3__112basic_stringIcNS1_11char_traitsIcEENS1_9allocatorIcEEEET_.cold.1, symObjAddr: 0x11D7C, symBinAddr: 0x105E5C, symSize: 0x10 }
  - { offset: 0x275CE7, size: 0x8, addend: 0x0, symName: __ZN7gguf_kvC2IbEERKNSt3__112basic_stringIcNS1_11char_traitsIcEENS1_9allocatorIcEEEET_.cold.1, symObjAddr: 0x11D7C, symBinAddr: 0x105E5C, symSize: 0x10 }
  - { offset: 0x275CFD, size: 0x8, addend: 0x0, symName: __ZN7gguf_kvC2IbEERKNSt3__112basic_stringIcNS1_11char_traitsIcEENS1_9allocatorIcEEEET_.cold.1, symObjAddr: 0x11D7C, symBinAddr: 0x105E5C, symSize: 0x10 }
  - { offset: 0x275D72, size: 0x8, addend: 0x0, symName: __ZNSt3__16vectorINS_12basic_stringIcNS_11char_traitsIcEENS_9allocatorIcEEEENS4_IS6_EEE8__appendEm, symObjAddr: 0xDD80, symBinAddr: 0x9E44C, symSize: 0x184 }
  - { offset: 0x27665D, size: 0x8, addend: 0x0, symName: __ZNSt3__16vectorINS_12basic_stringIcNS_11char_traitsIcEENS_9allocatorIcEEEENS4_IS6_EEE18__assign_with_sizeB8ne190102IPS6_SA_EEvT_T0_l, symObjAddr: 0xE1DC, symBinAddr: 0x9E830, symSize: 0x2F4 }
  - { offset: 0x2773C9, size: 0x8, addend: 0x0, symName: __ZN7gguf_kvC2ERKNSt3__112basic_stringIcNS0_11char_traitsIcEENS0_9allocatorIcEEEERKNS0_6vectorIS6_NS4_IS6_EEEE.cold.1, symObjAddr: 0x11D8C, symBinAddr: 0x105E6C, symSize: 0x10 }
  - { offset: 0x2773E5, size: 0x8, addend: 0x0, symName: __ZN7gguf_kvC2ERKNSt3__112basic_stringIcNS0_11char_traitsIcEENS0_9allocatorIcEEEERKNS0_6vectorIS6_NS4_IS6_EEEE.cold.1, symObjAddr: 0x11D8C, symBinAddr: 0x105E6C, symSize: 0x10 }
  - { offset: 0x2773FA, size: 0x8, addend: 0x0, symName: __ZN7gguf_kvC2ERKNSt3__112basic_stringIcNS0_11char_traitsIcEENS0_9allocatorIcEEEERKNS0_6vectorIS6_NS4_IS6_EEEE.cold.1, symObjAddr: 0x11D8C, symBinAddr: 0x105E6C, symSize: 0x10 }
  - { offset: 0x277410, size: 0x8, addend: 0x0, symName: __ZN7gguf_kvC2ERKNSt3__112basic_stringIcNS0_11char_traitsIcEENS0_9allocatorIcEEEERKNS0_6vectorIS6_NS4_IS6_EEEE.cold.1, symObjAddr: 0x11D8C, symBinAddr: 0x105E6C, symSize: 0x10 }
  - { offset: 0x277AD8, size: 0x8, addend: 0x0, symName: __ZN7gguf_kvC2ERKNSt3__112basic_stringIcNS0_11char_traitsIcEENS0_9allocatorIcEEEES8_.cold.1, symObjAddr: 0x11D9C, symBinAddr: 0x105E7C, symSize: 0x10 }
  - { offset: 0x277AF4, size: 0x8, addend: 0x0, symName: __ZN7gguf_kvC2ERKNSt3__112basic_stringIcNS0_11char_traitsIcEENS0_9allocatorIcEEEES8_.cold.1, symObjAddr: 0x11D9C, symBinAddr: 0x105E7C, symSize: 0x10 }
  - { offset: 0x277B09, size: 0x8, addend: 0x0, symName: __ZN7gguf_kvC2ERKNSt3__112basic_stringIcNS0_11char_traitsIcEENS0_9allocatorIcEEEES8_.cold.1, symObjAddr: 0x11D9C, symBinAddr: 0x105E7C, symSize: 0x10 }
  - { offset: 0x277B1F, size: 0x8, addend: 0x0, symName: __ZN7gguf_kvC2ERKNSt3__112basic_stringIcNS0_11char_traitsIcEENS0_9allocatorIcEEEES8_.cold.1, symObjAddr: 0x11D9C, symBinAddr: 0x105E7C, symSize: 0x10 }
  - { offset: 0x277F18, size: 0x8, addend: 0x0, symName: __ZNKSt3__16vectorIyNS_9allocatorIyEEE20__throw_length_errorB8ne190102Ev, symObjAddr: 0xE9E0, symBinAddr: 0x9EE80, symSize: 0x14 }
  - { offset: 0x277F42, size: 0x8, addend: 0x0, symName: __ZNSt3__16vectorI7gguf_kvNS_9allocatorIS1_EEE24__emplace_back_slow_pathIJRKNS_12basic_stringIcNS_11char_traitsIcEENS2_IcEEEERNS0_IyNS2_IyEEEEEEEPS1_DpOT_, symObjAddr: 0xE9F4, symBinAddr: 0x9EE94, symSize: 0x140 }
  - { offset: 0x277F4D, size: 0x8, addend: 0x0, symName: __ZN7gguf_kvC2IyEERKNSt3__112basic_stringIcNS1_11char_traitsIcEENS1_9allocatorIcEEEERKNS1_6vectorIT_NS5_ISB_EEEE.cold.1, symObjAddr: 0x11DAC, symBinAddr: 0x105E8C, symSize: 0x10 }
  - { offset: 0x277F69, size: 0x8, addend: 0x0, symName: __ZN7gguf_kvC2IyEERKNSt3__112basic_stringIcNS1_11char_traitsIcEENS1_9allocatorIcEEEERKNS1_6vectorIT_NS5_ISB_EEEE.cold.1, symObjAddr: 0x11DAC, symBinAddr: 0x105E8C, symSize: 0x10 }
  - { offset: 0x277F7E, size: 0x8, addend: 0x0, symName: __ZN7gguf_kvC2IyEERKNSt3__112basic_stringIcNS1_11char_traitsIcEENS1_9allocatorIcEEEERKNS1_6vectorIT_NS5_ISB_EEEE.cold.1, symObjAddr: 0x11DAC, symBinAddr: 0x105E8C, symSize: 0x10 }
  - { offset: 0x277F94, size: 0x8, addend: 0x0, symName: __ZN7gguf_kvC2IyEERKNSt3__112basic_stringIcNS1_11char_traitsIcEENS1_9allocatorIcEEEERKNS1_6vectorIT_NS5_ISB_EEEE.cold.1, symObjAddr: 0x11DAC, symBinAddr: 0x105E8C, symSize: 0x10 }
  - { offset: 0x277FA9, size: 0x8, addend: 0x0, symName: __ZN7gguf_kvC2IyEERKNSt3__112basic_stringIcNS1_11char_traitsIcEENS1_9allocatorIcEEEET_.cold.1, symObjAddr: 0x11DBC, symBinAddr: 0x105E9C, symSize: 0x10 }
  - { offset: 0x277FC5, size: 0x8, addend: 0x0, symName: __ZN7gguf_kvC2IyEERKNSt3__112basic_stringIcNS1_11char_traitsIcEENS1_9allocatorIcEEEET_.cold.1, symObjAddr: 0x11DBC, symBinAddr: 0x105E9C, symSize: 0x10 }
  - { offset: 0x277FDA, size: 0x8, addend: 0x0, symName: __ZN7gguf_kvC2IyEERKNSt3__112basic_stringIcNS1_11char_traitsIcEENS1_9allocatorIcEEEET_.cold.1, symObjAddr: 0x11DBC, symBinAddr: 0x105E9C, symSize: 0x10 }
  - { offset: 0x277FF0, size: 0x8, addend: 0x0, symName: __ZN7gguf_kvC2IyEERKNSt3__112basic_stringIcNS1_11char_traitsIcEENS1_9allocatorIcEEEET_.cold.1, symObjAddr: 0x11DBC, symBinAddr: 0x105E9C, symSize: 0x10 }
  - { offset: 0x2782C3, size: 0x8, addend: 0x0, symName: __ZNSt3__16vectorI7gguf_kvNS_9allocatorIS1_EEE24__emplace_back_slow_pathIJRKNS_12basic_stringIcNS_11char_traitsIcEENS2_IcEEEERNS0_IxNS2_IxEEEEEEEPS1_DpOT_, symObjAddr: 0xF008, symBinAddr: 0x9F370, symSize: 0x140 }
  - { offset: 0x2782CE, size: 0x8, addend: 0x0, symName: __ZN7gguf_kvC2IxEERKNSt3__112basic_stringIcNS1_11char_traitsIcEENS1_9allocatorIcEEEERKNS1_6vectorIT_NS5_ISB_EEEE.cold.1, symObjAddr: 0x11DCC, symBinAddr: 0x105EAC, symSize: 0x10 }
  - { offset: 0x2782EA, size: 0x8, addend: 0x0, symName: __ZN7gguf_kvC2IxEERKNSt3__112basic_stringIcNS1_11char_traitsIcEENS1_9allocatorIcEEEERKNS1_6vectorIT_NS5_ISB_EEEE.cold.1, symObjAddr: 0x11DCC, symBinAddr: 0x105EAC, symSize: 0x10 }
  - { offset: 0x2782FF, size: 0x8, addend: 0x0, symName: __ZN7gguf_kvC2IxEERKNSt3__112basic_stringIcNS1_11char_traitsIcEENS1_9allocatorIcEEEERKNS1_6vectorIT_NS5_ISB_EEEE.cold.1, symObjAddr: 0x11DCC, symBinAddr: 0x105EAC, symSize: 0x10 }
  - { offset: 0x278315, size: 0x8, addend: 0x0, symName: __ZN7gguf_kvC2IxEERKNSt3__112basic_stringIcNS1_11char_traitsIcEENS1_9allocatorIcEEEERKNS1_6vectorIT_NS5_ISB_EEEE.cold.1, symObjAddr: 0x11DCC, symBinAddr: 0x105EAC, symSize: 0x10 }
  - { offset: 0x27832A, size: 0x8, addend: 0x0, symName: __ZN7gguf_kvC2IxEERKNSt3__112basic_stringIcNS1_11char_traitsIcEENS1_9allocatorIcEEEET_.cold.1, symObjAddr: 0x11DDC, symBinAddr: 0x105EBC, symSize: 0x10 }
  - { offset: 0x278346, size: 0x8, addend: 0x0, symName: __ZN7gguf_kvC2IxEERKNSt3__112basic_stringIcNS1_11char_traitsIcEENS1_9allocatorIcEEEET_.cold.1, symObjAddr: 0x11DDC, symBinAddr: 0x105EBC, symSize: 0x10 }
  - { offset: 0x27835B, size: 0x8, addend: 0x0, symName: __ZN7gguf_kvC2IxEERKNSt3__112basic_stringIcNS1_11char_traitsIcEENS1_9allocatorIcEEEET_.cold.1, symObjAddr: 0x11DDC, symBinAddr: 0x105EBC, symSize: 0x10 }
  - { offset: 0x278371, size: 0x8, addend: 0x0, symName: __ZN7gguf_kvC2IxEERKNSt3__112basic_stringIcNS1_11char_traitsIcEENS1_9allocatorIcEEEET_.cold.1, symObjAddr: 0x11DDC, symBinAddr: 0x105EBC, symSize: 0x10 }
  - { offset: 0x278644, size: 0x8, addend: 0x0, symName: __ZNSt3__16vectorI7gguf_kvNS_9allocatorIS1_EEE24__emplace_back_slow_pathIJRKNS_12basic_stringIcNS_11char_traitsIcEENS2_IcEEEERNS0_IdNS2_IdEEEEEEEPS1_DpOT_, symObjAddr: 0xF61C, symBinAddr: 0x9F970, symSize: 0x140 }
  - { offset: 0x27864F, size: 0x8, addend: 0x0, symName: __ZN7gguf_kvC2IdEERKNSt3__112basic_stringIcNS1_11char_traitsIcEENS1_9allocatorIcEEEERKNS1_6vectorIT_NS5_ISB_EEEE.cold.1, symObjAddr: 0x11DEC, symBinAddr: 0x105ECC, symSize: 0x10 }
  - { offset: 0x27866B, size: 0x8, addend: 0x0, symName: __ZN7gguf_kvC2IdEERKNSt3__112basic_stringIcNS1_11char_traitsIcEENS1_9allocatorIcEEEERKNS1_6vectorIT_NS5_ISB_EEEE.cold.1, symObjAddr: 0x11DEC, symBinAddr: 0x105ECC, symSize: 0x10 }
  - { offset: 0x278680, size: 0x8, addend: 0x0, symName: __ZN7gguf_kvC2IdEERKNSt3__112basic_stringIcNS1_11char_traitsIcEENS1_9allocatorIcEEEERKNS1_6vectorIT_NS5_ISB_EEEE.cold.1, symObjAddr: 0x11DEC, symBinAddr: 0x105ECC, symSize: 0x10 }
  - { offset: 0x278696, size: 0x8, addend: 0x0, symName: __ZN7gguf_kvC2IdEERKNSt3__112basic_stringIcNS1_11char_traitsIcEENS1_9allocatorIcEEEERKNS1_6vectorIT_NS5_ISB_EEEE.cold.1, symObjAddr: 0x11DEC, symBinAddr: 0x105ECC, symSize: 0x10 }
  - { offset: 0x2786AB, size: 0x8, addend: 0x0, symName: __ZN7gguf_kvC2IdEERKNSt3__112basic_stringIcNS1_11char_traitsIcEENS1_9allocatorIcEEEET_.cold.1, symObjAddr: 0x11DFC, symBinAddr: 0x105EDC, symSize: 0x10 }
  - { offset: 0x2786C7, size: 0x8, addend: 0x0, symName: __ZN7gguf_kvC2IdEERKNSt3__112basic_stringIcNS1_11char_traitsIcEENS1_9allocatorIcEEEET_.cold.1, symObjAddr: 0x11DFC, symBinAddr: 0x105EDC, symSize: 0x10 }
  - { offset: 0x2786DC, size: 0x8, addend: 0x0, symName: __ZN7gguf_kvC2IdEERKNSt3__112basic_stringIcNS1_11char_traitsIcEENS1_9allocatorIcEEEET_.cold.1, symObjAddr: 0x11DFC, symBinAddr: 0x105EDC, symSize: 0x10 }
  - { offset: 0x2786F2, size: 0x8, addend: 0x0, symName: __ZN7gguf_kvC2IdEERKNSt3__112basic_stringIcNS1_11char_traitsIcEENS1_9allocatorIcEEEET_.cold.1, symObjAddr: 0x11DFC, symBinAddr: 0x105EDC, symSize: 0x10 }
  - { offset: 0x2788F6, size: 0x8, addend: 0x0, symName: __GLOBAL__sub_I_gguf.cpp, symObjAddr: 0x12CB4, symBinAddr: 0xA1F68, symSize: 0x138 }
  - { offset: 0x2789CB, size: 0x8, addend: 0x0, symName: _OUTLINED_FUNCTION_0, symObjAddr: 0x11E0C, symBinAddr: 0xA1F60, symSize: 0x8 }
  - { offset: 0x27A74F, size: 0x8, addend: 0x0, symName: _ggml_compute_forward_add_non_quantized, symObjAddr: 0x0, symBinAddr: 0xA20A0, symSize: 0x2770 }
  - { offset: 0x27D2EF, size: 0x8, addend: 0x0, symName: _ggml_compute_forward_add_non_quantized, symObjAddr: 0x0, symBinAddr: 0xA20A0, symSize: 0x2770 }
  - { offset: 0x27EED7, size: 0x8, addend: 0x0, symName: _ggml_compute_forward_sub, symObjAddr: 0x2770, symBinAddr: 0xA4810, symSize: 0x2770 }
  - { offset: 0x28091B, size: 0x8, addend: 0x0, symName: _ggml_compute_forward_sub, symObjAddr: 0x2770, symBinAddr: 0xA4810, symSize: 0x2770 }
  - { offset: 0x282503, size: 0x8, addend: 0x0, symName: _ggml_compute_forward_mul, symObjAddr: 0x4EE0, symBinAddr: 0xA6F80, symSize: 0x2770 }
  - { offset: 0x283ED7, size: 0x8, addend: 0x0, symName: _ggml_compute_forward_mul, symObjAddr: 0x4EE0, symBinAddr: 0xA6F80, symSize: 0x2770 }
  - { offset: 0x285ABF, size: 0x8, addend: 0x0, symName: _ggml_compute_forward_div, symObjAddr: 0x7650, symBinAddr: 0xA96F0, symSize: 0x2790 }
  - { offset: 0x287493, size: 0x8, addend: 0x0, symName: _ggml_compute_forward_div, symObjAddr: 0x7650, symBinAddr: 0xA96F0, symSize: 0x2790 }
  - { offset: 0x28AF77, size: 0x8, addend: 0x0, symName: _ggml_get_type_traits_cpu, symObjAddr: 0x0, symBinAddr: 0xABE80, symSize: 0x14 }
  - { offset: 0x28AF91, size: 0x8, addend: 0x0, symName: _ggml_arm_arch_features, symObjAddr: 0x4C74, symBinAddr: 0x138458, symSize: 0x0 }
  - { offset: 0x28B008, size: 0x8, addend: 0x0, symName: _ggml_cpu_init, symObjAddr: 0x266C, symBinAddr: 0xAE4EC, symSize: 0x200 }
  - { offset: 0x28B02C, size: 0x8, addend: 0x0, symName: _ggml_cpu_init.is_first_call, symObjAddr: 0x1DE20, symBinAddr: 0x1A49F0, symSize: 0x0 }
  - { offset: 0x28B300, size: 0x8, addend: 0x0, symName: _type_traits_cpu, symObjAddr: 0x4C90, symBinAddr: 0x1325C8, symSize: 0x0 }
  - { offset: 0x28C83A, size: 0x8, addend: 0x0, symName: _ggml_get_type_traits_cpu, symObjAddr: 0x0, symBinAddr: 0xABE80, symSize: 0x14 }
  - { offset: 0x28C871, size: 0x8, addend: 0x0, symName: _ggml_barrier, symObjAddr: 0x14, symBinAddr: 0xABE94, symSize: 0x50 }
  - { offset: 0x28C8C2, size: 0x8, addend: 0x0, symName: _ggml_numa_init, symObjAddr: 0x64, symBinAddr: 0xABEE4, symSize: 0x4 }
  - { offset: 0x28C8E9, size: 0x8, addend: 0x0, symName: _ggml_is_numa, symObjAddr: 0x68, symBinAddr: 0xABEE8, symSize: 0x8 }
  - { offset: 0x28C904, size: 0x8, addend: 0x0, symName: _ggml_new_i32, symObjAddr: 0x70, symBinAddr: 0xABEF0, symSize: 0x68 }
  - { offset: 0x28C99D, size: 0x8, addend: 0x0, symName: _ggml_set_i32, symObjAddr: 0xD8, symBinAddr: 0xABF58, symSize: 0x498 }
  - { offset: 0x28C9F0, size: 0x8, addend: 0x0, symName: _ggml_set_i32, symObjAddr: 0xD8, symBinAddr: 0xABF58, symSize: 0x498 }
  - { offset: 0x28CCB7, size: 0x8, addend: 0x0, symName: _ggml_new_f32, symObjAddr: 0x570, symBinAddr: 0xAC3F0, symSize: 0x70 }
  - { offset: 0x28CE88, size: 0x8, addend: 0x0, symName: _ggml_new_f32, symObjAddr: 0x570, symBinAddr: 0xAC3F0, symSize: 0x70 }
  - { offset: 0x28CF21, size: 0x8, addend: 0x0, symName: _ggml_set_f32, symObjAddr: 0x5E0, symBinAddr: 0xAC460, symSize: 0x4B0 }
  - { offset: 0x28CF35, size: 0x8, addend: 0x0, symName: _ggml_set_f32, symObjAddr: 0x5E0, symBinAddr: 0xAC460, symSize: 0x4B0 }
  - { offset: 0x28D1F8, size: 0x8, addend: 0x0, symName: _ggml_get_i32_1d, symObjAddr: 0xA90, symBinAddr: 0xAC910, symSize: 0x300 }
  - { offset: 0x28D2B5, size: 0x8, addend: 0x0, symName: _ggml_get_i32_1d, symObjAddr: 0xA90, symBinAddr: 0xAC910, symSize: 0x300 }
  - { offset: 0x28D42F, size: 0x8, addend: 0x0, symName: _ggml_get_i32_nd, symObjAddr: 0xD90, symBinAddr: 0xACC10, symSize: 0xC8 }
  - { offset: 0x28D48B, size: 0x8, addend: 0x0, symName: _ggml_get_i32_nd, symObjAddr: 0xD90, symBinAddr: 0xACC10, symSize: 0xC8 }
  - { offset: 0x28D506, size: 0x8, addend: 0x0, symName: _ggml_set_i32_1d, symObjAddr: 0xE58, symBinAddr: 0xACCD8, symSize: 0x384 }
  - { offset: 0x28D616, size: 0x8, addend: 0x0, symName: _ggml_set_i32_1d, symObjAddr: 0xE58, symBinAddr: 0xACCD8, symSize: 0x384 }
  - { offset: 0x28D82F, size: 0x8, addend: 0x0, symName: _ggml_set_i32_nd, symObjAddr: 0x11DC, symBinAddr: 0xAD05C, symSize: 0x100 }
  - { offset: 0x28D843, size: 0x8, addend: 0x0, symName: _ggml_set_i32_nd, symObjAddr: 0x11DC, symBinAddr: 0xAD05C, symSize: 0x100 }
  - { offset: 0x28D8F4, size: 0x8, addend: 0x0, symName: _ggml_get_f32_1d, symObjAddr: 0x12DC, symBinAddr: 0xAD15C, symSize: 0x1E8 }
  - { offset: 0x28D98E, size: 0x8, addend: 0x0, symName: _ggml_get_f32_1d, symObjAddr: 0x12DC, symBinAddr: 0xAD15C, symSize: 0x1E8 }
  - { offset: 0x28DABA, size: 0x8, addend: 0x0, symName: _ggml_get_f32_nd, symObjAddr: 0x14C4, symBinAddr: 0xAD344, symSize: 0xD8 }
  - { offset: 0x28DACE, size: 0x8, addend: 0x0, symName: _ggml_get_f32_nd, symObjAddr: 0x14C4, symBinAddr: 0xAD344, symSize: 0xD8 }
  - { offset: 0x28DB67, size: 0x8, addend: 0x0, symName: _ggml_set_f32_1d, symObjAddr: 0x159C, symBinAddr: 0xAD41C, symSize: 0x190 }
  - { offset: 0x28DB7B, size: 0x8, addend: 0x0, symName: _ggml_set_f32_1d, symObjAddr: 0x159C, symBinAddr: 0xAD41C, symSize: 0x190 }
  - { offset: 0x28DC97, size: 0x8, addend: 0x0, symName: _ggml_set_f32_nd, symObjAddr: 0x172C, symBinAddr: 0xAD5AC, symSize: 0x100 }
  - { offset: 0x28DCAB, size: 0x8, addend: 0x0, symName: _ggml_set_f32_nd, symObjAddr: 0x172C, symBinAddr: 0xAD5AC, symSize: 0x100 }
  - { offset: 0x28DD90, size: 0x8, addend: 0x0, symName: _ggml_threadpool_free, symObjAddr: 0x182C, symBinAddr: 0xAD6AC, symSize: 0xF4 }
  - { offset: 0x28DDA4, size: 0x8, addend: 0x0, symName: _ggml_threadpool_free, symObjAddr: 0x182C, symBinAddr: 0xAD6AC, symSize: 0xF4 }
  - { offset: 0x28DED5, size: 0x8, addend: 0x0, symName: _ggml_threadpool_pause, symObjAddr: 0x1920, symBinAddr: 0xAD7A0, symSize: 0x40 }
  - { offset: 0x28DFAB, size: 0x8, addend: 0x0, symName: _ggml_threadpool_pause, symObjAddr: 0x1920, symBinAddr: 0xAD7A0, symSize: 0x40 }
  - { offset: 0x28E047, size: 0x8, addend: 0x0, symName: _ggml_threadpool_resume, symObjAddr: 0x1960, symBinAddr: 0xAD7E0, symSize: 0x3C }
  - { offset: 0x28E2E1, size: 0x8, addend: 0x0, symName: _ggml_graph_plan, symObjAddr: 0x199C, symBinAddr: 0xAD81C, symSize: 0x608 }
  - { offset: 0x28E7D7, size: 0x8, addend: 0x0, symName: _ggml_threadpool_new, symObjAddr: 0x1FA4, symBinAddr: 0xADE24, symSize: 0xC }
  - { offset: 0x28EAC7, size: 0x8, addend: 0x0, symName: _ggml_threadpool_new, symObjAddr: 0x1FA4, symBinAddr: 0xADE24, symSize: 0xC }
  - { offset: 0x28EB15, size: 0x8, addend: 0x0, symName: _ggml_threadpool_new_impl, symObjAddr: 0x1FB0, symBinAddr: 0xADE30, symSize: 0x434 }
  - { offset: 0x28EE25, size: 0x8, addend: 0x0, symName: _ggml_graph_compute, symObjAddr: 0x23E4, symBinAddr: 0xAE264, symSize: 0x288 }
  - { offset: 0x28F11D, size: 0x8, addend: 0x0, symName: _ggml_graph_compute, symObjAddr: 0x23E4, symBinAddr: 0xAE264, symSize: 0x288 }
  - { offset: 0x28F3AC, size: 0x8, addend: 0x0, symName: _ggml_cpu_init, symObjAddr: 0x266C, symBinAddr: 0xAE4EC, symSize: 0x200 }
  - { offset: 0x28F44F, size: 0x8, addend: 0x0, symName: _ggml_graph_compute_thread, symObjAddr: 0x286C, symBinAddr: 0xAE6EC, symSize: 0x1ADC }
  - { offset: 0x292510, size: 0x8, addend: 0x0, symName: _ggml_graph_compute_with_ctx, symObjAddr: 0x4490, symBinAddr: 0xB0310, symSize: 0x64 }
  - { offset: 0x2925E8, size: 0x8, addend: 0x0, symName: _ggml_cpu_fp32_to_fp16, symObjAddr: 0x44F4, symBinAddr: 0xB0374, symSize: 0x98 }
  - { offset: 0x292661, size: 0x8, addend: 0x0, symName: _ggml_cpu_fp16_to_fp32, symObjAddr: 0x458C, symBinAddr: 0xB040C, symSize: 0x98 }
  - { offset: 0x2926D0, size: 0x8, addend: 0x0, symName: _ggml_cpu_fp32_to_bf16, symObjAddr: 0x4624, symBinAddr: 0xB04A4, symSize: 0xE4 }
  - { offset: 0x29273F, size: 0x8, addend: 0x0, symName: _ggml_cpu_bf16_to_fp32, symObjAddr: 0x4708, symBinAddr: 0xB0588, symSize: 0xB0 }
  - { offset: 0x2927B8, size: 0x8, addend: 0x0, symName: _ggml_cpu_has_avx, symObjAddr: 0x47B8, symBinAddr: 0xB0638, symSize: 0x8 }
  - { offset: 0x2927D3, size: 0x8, addend: 0x0, symName: _ggml_cpu_has_avx_vnni, symObjAddr: 0x47C0, symBinAddr: 0xB0640, symSize: 0x8 }
  - { offset: 0x2927EE, size: 0x8, addend: 0x0, symName: _ggml_cpu_has_avx2, symObjAddr: 0x47C8, symBinAddr: 0xB0648, symSize: 0x8 }
  - { offset: 0x292809, size: 0x8, addend: 0x0, symName: _ggml_cpu_has_avx512, symObjAddr: 0x47D0, symBinAddr: 0xB0650, symSize: 0x8 }
  - { offset: 0x292824, size: 0x8, addend: 0x0, symName: _ggml_cpu_has_avx512_vbmi, symObjAddr: 0x47D8, symBinAddr: 0xB0658, symSize: 0x8 }
  - { offset: 0x29283F, size: 0x8, addend: 0x0, symName: _ggml_cpu_has_avx512_vnni, symObjAddr: 0x47E0, symBinAddr: 0xB0660, symSize: 0x8 }
  - { offset: 0x29285A, size: 0x8, addend: 0x0, symName: _ggml_cpu_has_avx512_bf16, symObjAddr: 0x47E8, symBinAddr: 0xB0668, symSize: 0x8 }
  - { offset: 0x292875, size: 0x8, addend: 0x0, symName: _ggml_cpu_has_amx_int8, symObjAddr: 0x47F0, symBinAddr: 0xB0670, symSize: 0x8 }
  - { offset: 0x292890, size: 0x8, addend: 0x0, symName: _ggml_cpu_has_bmi2, symObjAddr: 0x47F8, symBinAddr: 0xB0678, symSize: 0x8 }
  - { offset: 0x2928AB, size: 0x8, addend: 0x0, symName: _ggml_cpu_has_fma, symObjAddr: 0x4800, symBinAddr: 0xB0680, symSize: 0x8 }
  - { offset: 0x2928C6, size: 0x8, addend: 0x0, symName: _ggml_cpu_has_arm_fma, symObjAddr: 0x4808, symBinAddr: 0xB0688, symSize: 0x8 }
  - { offset: 0x2928E1, size: 0x8, addend: 0x0, symName: _ggml_cpu_has_riscv_v, symObjAddr: 0x4810, symBinAddr: 0xB0690, symSize: 0x8 }
  - { offset: 0x2928FC, size: 0x8, addend: 0x0, symName: _ggml_cpu_has_f16c, symObjAddr: 0x4818, symBinAddr: 0xB0698, symSize: 0x8 }
  - { offset: 0x292917, size: 0x8, addend: 0x0, symName: _ggml_cpu_has_fp16_va, symObjAddr: 0x4820, symBinAddr: 0xB06A0, symSize: 0x8 }
  - { offset: 0x292932, size: 0x8, addend: 0x0, symName: _ggml_cpu_has_wasm_simd, symObjAddr: 0x4828, symBinAddr: 0xB06A8, symSize: 0x8 }
  - { offset: 0x29294D, size: 0x8, addend: 0x0, symName: _ggml_cpu_has_llamafile, symObjAddr: 0x4830, symBinAddr: 0xB06B0, symSize: 0x8 }
  - { offset: 0x292968, size: 0x8, addend: 0x0, symName: _ggml_cpu_has_sse3, symObjAddr: 0x4838, symBinAddr: 0xB06B8, symSize: 0x8 }
  - { offset: 0x292983, size: 0x8, addend: 0x0, symName: _ggml_cpu_has_ssse3, symObjAddr: 0x4840, symBinAddr: 0xB06C0, symSize: 0x8 }
  - { offset: 0x29299E, size: 0x8, addend: 0x0, symName: _ggml_cpu_has_vsx, symObjAddr: 0x4848, symBinAddr: 0xB06C8, symSize: 0x8 }
  - { offset: 0x2929B9, size: 0x8, addend: 0x0, symName: _ggml_cpu_has_vxe, symObjAddr: 0x4850, symBinAddr: 0xB06D0, symSize: 0x8 }
  - { offset: 0x2929D4, size: 0x8, addend: 0x0, symName: _ggml_cpu_has_neon, symObjAddr: 0x4858, symBinAddr: 0xB06D8, symSize: 0xC }
  - { offset: 0x2929EF, size: 0x8, addend: 0x0, symName: _ggml_cpu_has_dotprod, symObjAddr: 0x4864, symBinAddr: 0xB06E4, symSize: 0xC }
  - { offset: 0x292A0A, size: 0x8, addend: 0x0, symName: _ggml_cpu_has_sve, symObjAddr: 0x4870, symBinAddr: 0xB06F0, symSize: 0x8 }
  - { offset: 0x292A25, size: 0x8, addend: 0x0, symName: _ggml_cpu_has_matmul_int8, symObjAddr: 0x4878, symBinAddr: 0xB06F8, symSize: 0x8 }
  - { offset: 0x292A40, size: 0x8, addend: 0x0, symName: _ggml_cpu_get_sve_cnt, symObjAddr: 0x4880, symBinAddr: 0xB0700, symSize: 0x8 }
  - { offset: 0x292A5B, size: 0x8, addend: 0x0, symName: _ggml_cpu_has_sme, symObjAddr: 0x4888, symBinAddr: 0xB0708, symSize: 0x8 }
  - { offset: 0x292B82, size: 0x8, addend: 0x0, symName: _ggml_graph_compute_secondary_thread, symObjAddr: 0x4890, symBinAddr: 0xB0710, symSize: 0x298 }
  - { offset: 0x292F07, size: 0x8, addend: 0x0, symName: __Z39ggml_backend_cpu_get_extra_buffers_typev, symObjAddr: 0x0, symBinAddr: 0xB09A8, symSize: 0x94 }
  - { offset: 0x292F15, size: 0x8, addend: 0x0, symName: __Z39ggml_backend_cpu_get_extra_buffers_typev, symObjAddr: 0x0, symBinAddr: 0xB09A8, symSize: 0x94 }
  - { offset: 0x292F35, size: 0x8, addend: 0x0, symName: __MergedGlobals.48, symObjAddr: 0x421E8, symBinAddr: 0x1A49F8, symSize: 0x0 }
  - { offset: 0x298D7E, size: 0x8, addend: 0x0, symName: _ggml_backend_cpu_reg, symObjAddr: 0x3A8, symBinAddr: 0xB0D50, symSize: 0x1C }
  - { offset: 0x298D9F, size: 0x8, addend: 0x0, symName: __MergedGlobals, symObjAddr: 0x3698, symBinAddr: 0x138470, symSize: 0x0 }
  - { offset: 0x298DC5, size: 0x8, addend: 0x0, symName: __ZL18ggml_backend_cpu_i, symObjAddr: 0x3340, symBinAddr: 0x132AA8, symSize: 0x0 }
  - { offset: 0x298DD8, size: 0x8, addend: 0x0, symName: __ZL31ggml_backend_cpu_reg_get_deviceP16ggml_backend_regm, symObjAddr: 0x554, symBinAddr: 0xB0EFC, symSize: 0xF0 }
  - { offset: 0x298E04, size: 0x8, addend: 0x0, symName: __MergedGlobals.48, symObjAddr: 0x421E8, symBinAddr: 0x1A49F8, symSize: 0x0 }
  - { offset: 0x298E1D, size: 0x8, addend: 0x0, symName: __MergedGlobals.48, symObjAddr: 0x421E8, symBinAddr: 0x1A49F8, symSize: 0x0 }
  - { offset: 0x298F9E, size: 0x8, addend: 0x0, symName: __ZL25ggml_backend_cpu_device_i, symObjAddr: 0x33A8, symBinAddr: 0x132B10, symSize: 0x0 }
  - { offset: 0x298FB1, size: 0x8, addend: 0x0, symName: __ZL29ggml_backend_cpu_get_featuresP16ggml_backend_reg, symObjAddr: 0x1198, symBinAddr: 0xB1AA4, symSize: 0x94 }
  - { offset: 0x298FDD, size: 0x8, addend: 0x0, symName: __MergedGlobals.48, symObjAddr: 0x421E8, symBinAddr: 0x1A49F8, symSize: 0x0 }
  - { offset: 0x2991EF, size: 0x8, addend: 0x0, symName: '__ZZL29ggml_backend_cpu_get_featuresP16ggml_backend_regENK3$_0clEv', symObjAddr: 0x122C, symBinAddr: 0xB1B38, symSize: 0x1C38 }
  - { offset: 0x299218, size: 0x8, addend: 0x0, symName: __MergedGlobals.48, symObjAddr: 0x421E8, symBinAddr: 0x1A49F8, symSize: 0x0 }
  - { offset: 0x29FA8B, size: 0x8, addend: 0x0, symName: '__ZZ39ggml_backend_cpu_get_extra_buffers_typevENK3$_0clEv', symObjAddr: 0x94, symBinAddr: 0xB0A3C, symSize: 0x224 }
  - { offset: 0x2A0781, size: 0x8, addend: 0x0, symName: __ZNKSt3__16vectorIP24ggml_backend_buffer_typeNS_9allocatorIS2_EEE20__throw_length_errorB8ne190102Ev, symObjAddr: 0x7C0, symBinAddr: 0xB1168, symSize: 0x14 }
  - { offset: 0x2A07B6, size: 0x8, addend: 0x0, symName: __ZNSt3__16vectorIP24ggml_backend_buffer_typeNS_9allocatorIS2_EEED1B8ne190102Ev, symObjAddr: 0x2B8, symBinAddr: 0xB0C60, symSize: 0x34 }
  - { offset: 0x2A07DC, size: 0x8, addend: 0x0, symName: __ZNSt3__16vectorIP24ggml_backend_buffer_typeNS_9allocatorIS2_EEED1B8ne190102Ev, symObjAddr: 0x2B8, symBinAddr: 0xB0C60, symSize: 0x34 }
  - { offset: 0x2A07FC, size: 0x8, addend: 0x0, symName: __ZNSt3__16vectorIP24ggml_backend_buffer_typeNS_9allocatorIS2_EEED1B8ne190102Ev, symObjAddr: 0x2B8, symBinAddr: 0xB0C60, symSize: 0x34 }
  - { offset: 0x2A0924, size: 0x8, addend: 0x0, symName: _ggml_backend_cpu_init, symObjAddr: 0x2EC, symBinAddr: 0xB0C94, symSize: 0xBC }
  - { offset: 0x2A09B2, size: 0x8, addend: 0x0, symName: _ggml_backend_is_cpu, symObjAddr: 0x3C4, symBinAddr: 0xB0D6C, symSize: 0x18 }
  - { offset: 0x2A0A10, size: 0x8, addend: 0x0, symName: _ggml_backend_cpu_set_n_threads, symObjAddr: 0x3DC, symBinAddr: 0xB0D84, symSize: 0x6C }
  - { offset: 0x2A0A88, size: 0x8, addend: 0x0, symName: _ggml_backend_cpu_set_threadpool, symObjAddr: 0x448, symBinAddr: 0xB0DF0, symSize: 0x80 }
  - { offset: 0x2A0AB6, size: 0x8, addend: 0x0, symName: _ggml_backend_cpu_set_threadpool, symObjAddr: 0x448, symBinAddr: 0xB0DF0, symSize: 0x80 }
  - { offset: 0x2A0B3C, size: 0x8, addend: 0x0, symName: _ggml_backend_cpu_set_abort_callback, symObjAddr: 0x4C8, symBinAddr: 0xB0E70, symSize: 0x78 }
  - { offset: 0x2A0B5D, size: 0x8, addend: 0x0, symName: _ggml_backend_cpu_set_abort_callback, symObjAddr: 0x4C8, symBinAddr: 0xB0E70, symSize: 0x78 }
  - { offset: 0x2A0BE5, size: 0x8, addend: 0x0, symName: __ZL29ggml_backend_cpu_reg_get_nameP16ggml_backend_reg, symObjAddr: 0x540, symBinAddr: 0xB0EE8, symSize: 0xC }
  - { offset: 0x2A0BF9, size: 0x8, addend: 0x0, symName: __ZL29ggml_backend_cpu_reg_get_nameP16ggml_backend_reg, symObjAddr: 0x540, symBinAddr: 0xB0EE8, symSize: 0xC }
  - { offset: 0x2A0C25, size: 0x8, addend: 0x0, symName: __ZL37ggml_backend_cpu_reg_get_device_countP16ggml_backend_reg, symObjAddr: 0x54C, symBinAddr: 0xB0EF4, symSize: 0x8 }
  - { offset: 0x2A0C51, size: 0x8, addend: 0x0, symName: __ZN31ggml_backend_cpu_device_contextC1Ev, symObjAddr: 0xA08, symBinAddr: 0xB1314, symSize: 0xB4 }
  - { offset: 0x2A0F7E, size: 0x8, addend: 0x0, symName: __ZL31ggml_backend_cpu_reg_get_deviceP16ggml_backend_regm.cold.1, symObjAddr: 0x2EAC, symBinAddr: 0x105EEC, symSize: 0x5C }
  - { offset: 0x2A0F96, size: 0x8, addend: 0x0, symName: __ZL33ggml_backend_cpu_get_proc_addressP16ggml_backend_regPKc, symObjAddr: 0x644, symBinAddr: 0xB0FEC, symSize: 0x17C }
  - { offset: 0x2A1115, size: 0x8, addend: 0x0, symName: __ZL25ggml_backend_cpu_get_nameP12ggml_backend, symObjAddr: 0x870, symBinAddr: 0xB117C, symSize: 0xC }
  - { offset: 0x2A113F, size: 0x8, addend: 0x0, symName: __ZL21ggml_backend_cpu_freeP12ggml_backend, symObjAddr: 0x87C, symBinAddr: 0xB1188, symSize: 0x38 }
  - { offset: 0x2A117A, size: 0x8, addend: 0x0, symName: __ZL34ggml_backend_cpu_graph_plan_createP12ggml_backendPK11ggml_cgraph, symObjAddr: 0x8B4, symBinAddr: 0xB11C0, symSize: 0x90 }
  - { offset: 0x2A1212, size: 0x8, addend: 0x0, symName: __ZL32ggml_backend_cpu_graph_plan_freeP12ggml_backendPv, symObjAddr: 0x944, symBinAddr: 0xB1250, symSize: 0x2C }
  - { offset: 0x2A1258, size: 0x8, addend: 0x0, symName: __ZL35ggml_backend_cpu_graph_plan_computeP12ggml_backendPv, symObjAddr: 0x970, symBinAddr: 0xB127C, symSize: 0x8 }
  - { offset: 0x2A12D2, size: 0x8, addend: 0x0, symName: __ZL30ggml_backend_cpu_graph_computeP12ggml_backendP11ggml_cgraph, symObjAddr: 0x978, symBinAddr: 0xB1284, symSize: 0x90 }
  - { offset: 0x2A15F0, size: 0x8, addend: 0x0, symName: __ZN31ggml_backend_cpu_device_contextD1Ev, symObjAddr: 0xABC, symBinAddr: 0xB13C8, symSize: 0x38 }
  - { offset: 0x2A1669, size: 0x8, addend: 0x0, symName: __ZN31ggml_backend_cpu_device_contextD1Ev, symObjAddr: 0xABC, symBinAddr: 0xB13C8, symSize: 0x38 }
  - { offset: 0x2A1766, size: 0x8, addend: 0x0, symName: __ZL32ggml_backend_cpu_device_get_nameP19ggml_backend_device, symObjAddr: 0xAF4, symBinAddr: 0xB1400, symSize: 0xC }
  - { offset: 0x2A17EA, size: 0x8, addend: 0x0, symName: __ZL39ggml_backend_cpu_device_get_descriptionP19ggml_backend_device, symObjAddr: 0xB00, symBinAddr: 0xB140C, symSize: 0x18 }
  - { offset: 0x2A189C, size: 0x8, addend: 0x0, symName: __ZL34ggml_backend_cpu_device_get_memoryP19ggml_backend_devicePmS1_, symObjAddr: 0xB18, symBinAddr: 0xB1424, symSize: 0x48 }
  - { offset: 0x2A191E, size: 0x8, addend: 0x0, symName: __ZL32ggml_backend_cpu_device_get_typeP19ggml_backend_device, symObjAddr: 0xB60, symBinAddr: 0xB146C, symSize: 0x8 }
  - { offset: 0x2A19C3, size: 0x8, addend: 0x0, symName: __ZL33ggml_backend_cpu_device_get_propsP19ggml_backend_deviceP22ggml_backend_dev_props, symObjAddr: 0xB68, symBinAddr: 0xB1474, symSize: 0x64 }
  - { offset: 0x2A1B56, size: 0x8, addend: 0x0, symName: __ZL36ggml_backend_cpu_device_init_backendP19ggml_backend_devicePKc, symObjAddr: 0xBCC, symBinAddr: 0xB14D8, symSize: 0xBC }
  - { offset: 0x2A1BED, size: 0x8, addend: 0x0, symName: __ZL39ggml_backend_cpu_device_get_buffer_typeP19ggml_backend_device, symObjAddr: 0xC88, symBinAddr: 0xB1594, symSize: 0x4 }
  - { offset: 0x2A1C1C, size: 0x8, addend: 0x0, symName: __ZL39ggml_backend_cpu_device_get_buffer_typeP19ggml_backend_device, symObjAddr: 0xC88, symBinAddr: 0xB1594, symSize: 0x4 }
  - { offset: 0x2A1C34, size: 0x8, addend: 0x0, symName: __ZL44ggml_backend_cpu_device_buffer_from_host_ptrP19ggml_backend_devicePvmm, symObjAddr: 0xC8C, symBinAddr: 0xB1598, symSize: 0xC }
  - { offset: 0x2A1D0A, size: 0x8, addend: 0x0, symName: __ZL35ggml_backend_cpu_device_supports_opP19ggml_backend_devicePK11ggml_tensor, symObjAddr: 0xC98, symBinAddr: 0xB15A4, symSize: 0x38C }
  - { offset: 0x2A2074, size: 0x8, addend: 0x0, symName: __ZL37ggml_backend_cpu_device_supports_buftP19ggml_backend_deviceP24ggml_backend_buffer_type, symObjAddr: 0x1024, symBinAddr: 0xB1930, symSize: 0xE0 }
  - { offset: 0x2A2170, size: 0x8, addend: 0x0, symName: __ZL46ggml_backend_cpu_device_get_extra_buffers_typeP19ggml_backend_device, symObjAddr: 0x1104, symBinAddr: 0xB1A10, symSize: 0x94 }
  - { offset: 0x2A2716, size: 0x8, addend: 0x0, symName: __ZNKSt3__16vectorI20ggml_backend_featureNS_9allocatorIS1_EEE20__throw_length_errorB8ne190102Ev, symObjAddr: 0x2E98, symBinAddr: 0xB37A4, symSize: 0x14 }
  - { offset: 0x2A2740, size: 0x8, addend: 0x0, symName: __ZL31ggml_backend_cpu_reg_get_deviceP16ggml_backend_regm.cold.1, symObjAddr: 0x2EAC, symBinAddr: 0x105EEC, symSize: 0x5C }
  - { offset: 0x2A274B, size: 0x8, addend: 0x0, symName: __ZNSt3__16vectorI20ggml_backend_featureNS_9allocatorIS1_EEED1B8ne190102Ev, symObjAddr: 0x2E64, symBinAddr: 0xB3770, symSize: 0x34 }
  - { offset: 0x2A2771, size: 0x8, addend: 0x0, symName: __ZNSt3__16vectorI20ggml_backend_featureNS_9allocatorIS1_EEED1B8ne190102Ev, symObjAddr: 0x2E64, symBinAddr: 0xB3770, symSize: 0x34 }
  - { offset: 0x2A2791, size: 0x8, addend: 0x0, symName: __ZNSt3__16vectorI20ggml_backend_featureNS_9allocatorIS1_EEED1B8ne190102Ev, symObjAddr: 0x2E64, symBinAddr: 0xB3770, symSize: 0x34 }
  - { offset: 0x2A4795, size: 0x8, addend: 0x0, symName: _ggml_compute_forward_dup, symObjAddr: 0x0, symBinAddr: 0xB37B8, symSize: 0x43A0 }
  - { offset: 0x2A6132, size: 0x8, addend: 0x0, symName: _ggml_compute_forward_dup, symObjAddr: 0x0, symBinAddr: 0xB37B8, symSize: 0x43A0 }
  - { offset: 0x2A7E6E, size: 0x8, addend: 0x0, symName: _ggml_compute_forward_add, symObjAddr: 0x43A0, symBinAddr: 0xB7B58, symSize: 0x8E0 }
  - { offset: 0x2A82C1, size: 0x8, addend: 0x0, symName: _ggml_compute_forward_add, symObjAddr: 0x43A0, symBinAddr: 0xB7B58, symSize: 0x8E0 }
  - { offset: 0x2A86FE, size: 0x8, addend: 0x0, symName: _ggml_compute_forward_add1, symObjAddr: 0x4C80, symBinAddr: 0xB8438, symSize: 0x864 }
  - { offset: 0x2A8B02, size: 0x8, addend: 0x0, symName: _ggml_compute_forward_add1, symObjAddr: 0x4C80, symBinAddr: 0xB8438, symSize: 0x864 }
  - { offset: 0x2A914A, size: 0x8, addend: 0x0, symName: __ZL33ggml_compute_forward_add1_f16_f16PK19ggml_compute_paramsP11ggml_tensor, symObjAddr: 0x54E4, symBinAddr: 0xB8C9C, symSize: 0x3A8 }
  - { offset: 0x2A9171, size: 0x8, addend: 0x0, symName: __ZL35ggml_compute_forward_add1_bf16_bf16PK19ggml_compute_paramsP11ggml_tensor, symObjAddr: 0x5C90, symBinAddr: 0xB9448, symSize: 0x3C0 }
  - { offset: 0x2A94F7, size: 0x8, addend: 0x0, symName: __ZL34ggml_compute_forward_add1_bf16_f32PK19ggml_compute_paramsP11ggml_tensor, symObjAddr: 0x6050, symBinAddr: 0xB9808, symSize: 0x3BC }
  - { offset: 0x2A953E, size: 0x8, addend: 0x0, symName: __ZL33ggml_compute_forward_add1_f16_f16PK19ggml_compute_paramsP11ggml_tensor, symObjAddr: 0x54E4, symBinAddr: 0xB8C9C, symSize: 0x3A8 }
  - { offset: 0x2A9879, size: 0x8, addend: 0x0, symName: __ZL33ggml_compute_forward_add1_f16_f32PK19ggml_compute_paramsP11ggml_tensor, symObjAddr: 0x588C, symBinAddr: 0xB9044, symSize: 0x404 }
  - { offset: 0x2A988D, size: 0x8, addend: 0x0, symName: __ZL33ggml_compute_forward_add1_f16_f32PK19ggml_compute_paramsP11ggml_tensor, symObjAddr: 0x588C, symBinAddr: 0xB9044, symSize: 0x404 }
  - { offset: 0x2A9BEF, size: 0x8, addend: 0x0, symName: __ZL35ggml_compute_forward_add1_bf16_bf16PK19ggml_compute_paramsP11ggml_tensor, symObjAddr: 0x5C90, symBinAddr: 0xB9448, symSize: 0x3C0 }
  - { offset: 0x2A9C03, size: 0x8, addend: 0x0, symName: __ZL34ggml_compute_forward_add1_bf16_f32PK19ggml_compute_paramsP11ggml_tensor, symObjAddr: 0x6050, symBinAddr: 0xB9808, symSize: 0x3BC }
  - { offset: 0x2A9F89, size: 0x8, addend: 0x0, symName: _ggml_compute_forward_acc, symObjAddr: 0x640C, symBinAddr: 0xB9BC4, symSize: 0x374 }
  - { offset: 0x2AA15D, size: 0x8, addend: 0x0, symName: _ggml_compute_forward_acc, symObjAddr: 0x640C, symBinAddr: 0xB9BC4, symSize: 0x374 }
  - { offset: 0x2AA462, size: 0x8, addend: 0x0, symName: _ggml_compute_forward_sum, symObjAddr: 0x6780, symBinAddr: 0xB9F38, symSize: 0x7C0 }
  - { offset: 0x2AA852, size: 0x8, addend: 0x0, symName: _ggml_compute_forward_sum, symObjAddr: 0x6780, symBinAddr: 0xB9F38, symSize: 0x7C0 }
  - { offset: 0x2AABD3, size: 0x8, addend: 0x0, symName: _ggml_compute_forward_sum_rows, symObjAddr: 0x6F40, symBinAddr: 0xBA6F8, symSize: 0x28C }
  - { offset: 0x2AAD78, size: 0x8, addend: 0x0, symName: _ggml_compute_forward_sum_rows, symObjAddr: 0x6F40, symBinAddr: 0xBA6F8, symSize: 0x28C }
  - { offset: 0x2AAFA9, size: 0x8, addend: 0x0, symName: _ggml_compute_forward_mean, symObjAddr: 0x71CC, symBinAddr: 0xBA984, symSize: 0x16C }
  - { offset: 0x2AB10E, size: 0x8, addend: 0x0, symName: _ggml_compute_forward_mean, symObjAddr: 0x71CC, symBinAddr: 0xBA984, symSize: 0x16C }
  - { offset: 0x2AB250, size: 0x8, addend: 0x0, symName: _ggml_compute_forward_argmax, symObjAddr: 0x7338, symBinAddr: 0xBAAF0, symSize: 0x114 }
  - { offset: 0x2AB369, size: 0x8, addend: 0x0, symName: _ggml_compute_forward_argmax, symObjAddr: 0x7338, symBinAddr: 0xBAAF0, symSize: 0x114 }
  - { offset: 0x2AB46D, size: 0x8, addend: 0x0, symName: _ggml_compute_forward_count_equal, symObjAddr: 0x744C, symBinAddr: 0xBAC04, symSize: 0x43C }
  - { offset: 0x2AB6F3, size: 0x8, addend: 0x0, symName: _ggml_compute_forward_count_equal, symObjAddr: 0x744C, symBinAddr: 0xBAC04, symSize: 0x43C }
  - { offset: 0x2AB974, size: 0x8, addend: 0x0, symName: _ggml_compute_forward_repeat, symObjAddr: 0x7888, symBinAddr: 0xBB040, symSize: 0xA2C }
  - { offset: 0x2ABD43, size: 0x8, addend: 0x0, symName: _ggml_compute_forward_repeat, symObjAddr: 0x7888, symBinAddr: 0xBB040, symSize: 0xA2C }
  - { offset: 0x2AC16B, size: 0x8, addend: 0x0, symName: _ggml_compute_forward_repeat_back, symObjAddr: 0x82B4, symBinAddr: 0xBBA6C, symSize: 0x7AC }
  - { offset: 0x2AC3AD, size: 0x8, addend: 0x0, symName: _ggml_compute_forward_repeat_back, symObjAddr: 0x82B4, symBinAddr: 0xBBA6C, symSize: 0x7AC }
  - { offset: 0x2AC6C2, size: 0x8, addend: 0x0, symName: _ggml_compute_forward_concat, symObjAddr: 0x8A60, symBinAddr: 0xBC218, symSize: 0xF54 }
  - { offset: 0x2ACF33, size: 0x8, addend: 0x0, symName: _ggml_compute_forward_concat, symObjAddr: 0x8A60, symBinAddr: 0xBC218, symSize: 0xF54 }
  - { offset: 0x2AD6A9, size: 0x8, addend: 0x0, symName: _ggml_compute_forward_leaky_relu, symObjAddr: 0x99B4, symBinAddr: 0xBD16C, symSize: 0x41C }
  - { offset: 0x2AD841, size: 0x8, addend: 0x0, symName: _ggml_compute_forward_leaky_relu, symObjAddr: 0x99B4, symBinAddr: 0xBD16C, symSize: 0x41C }
  - { offset: 0x2ADA28, size: 0x8, addend: 0x0, symName: _ggml_compute_forward_silu_back, symObjAddr: 0x9DD0, symBinAddr: 0xBD588, symSize: 0x634 }
  - { offset: 0x2ADCAF, size: 0x8, addend: 0x0, symName: _ggml_compute_forward_silu_back, symObjAddr: 0x9DD0, symBinAddr: 0xBD588, symSize: 0x634 }
  - { offset: 0x2ADF3C, size: 0x8, addend: 0x0, symName: _ggml_compute_forward_norm, symObjAddr: 0xA404, symBinAddr: 0xBDBBC, symSize: 0x5D8 }
  - { offset: 0x2AE16C, size: 0x8, addend: 0x0, symName: _ggml_compute_forward_norm, symObjAddr: 0xA404, symBinAddr: 0xBDBBC, symSize: 0x5D8 }
  - { offset: 0x2AE3CF, size: 0x8, addend: 0x0, symName: _ggml_compute_forward_rms_norm, symObjAddr: 0xA9DC, symBinAddr: 0xBE194, symSize: 0x5D0 }
  - { offset: 0x2AE5B9, size: 0x8, addend: 0x0, symName: _ggml_compute_forward_rms_norm, symObjAddr: 0xA9DC, symBinAddr: 0xBE194, symSize: 0x5D0 }
  - { offset: 0x2AE80D, size: 0x8, addend: 0x0, symName: _ggml_compute_forward_rms_norm_back, symObjAddr: 0xAFAC, symBinAddr: 0xBE764, symSize: 0xBD4 }
  - { offset: 0x2AEA93, size: 0x8, addend: 0x0, symName: _ggml_compute_forward_rms_norm_back, symObjAddr: 0xAFAC, symBinAddr: 0xBE764, symSize: 0xBD4 }
  - { offset: 0x2AEE81, size: 0x8, addend: 0x0, symName: _ggml_compute_forward_group_norm, symObjAddr: 0xBB80, symBinAddr: 0xBF338, symSize: 0x8E4 }
  - { offset: 0x2AF15C, size: 0x8, addend: 0x0, symName: _ggml_compute_forward_group_norm, symObjAddr: 0xBB80, symBinAddr: 0xBF338, symSize: 0x8E4 }
  - { offset: 0x2AF459, size: 0x8, addend: 0x0, symName: _ggml_compute_forward_l2_norm, symObjAddr: 0xC464, symBinAddr: 0xBFC1C, symSize: 0x5B4 }
  - { offset: 0x2AF60F, size: 0x8, addend: 0x0, symName: _ggml_compute_forward_l2_norm, symObjAddr: 0xC464, symBinAddr: 0xBFC1C, symSize: 0x5B4 }
  - { offset: 0x2AF859, size: 0x8, addend: 0x0, symName: _ggml_compute_forward_out_prod, symObjAddr: 0xCA18, symBinAddr: 0xC01D0, symSize: 0x23A8 }
  - { offset: 0x2B009C, size: 0x8, addend: 0x0, symName: _ggml_compute_forward_out_prod, symObjAddr: 0xCA18, symBinAddr: 0xC01D0, symSize: 0x23A8 }
  - { offset: 0x2B0A46, size: 0x8, addend: 0x0, symName: _ggml_compute_forward_scale, symObjAddr: 0xEDC0, symBinAddr: 0xC2578, symSize: 0x1B8 }
  - { offset: 0x2B0B20, size: 0x8, addend: 0x0, symName: _ggml_compute_forward_scale, symObjAddr: 0xEDC0, symBinAddr: 0xC2578, symSize: 0x1B8 }
  - { offset: 0x2B0CFB, size: 0x8, addend: 0x0, symName: _ggml_compute_forward_set, symObjAddr: 0xEF78, symBinAddr: 0xC2730, symSize: 0x760 }
  - { offset: 0x2B10CD, size: 0x8, addend: 0x0, symName: _ggml_compute_forward_set, symObjAddr: 0xEF78, symBinAddr: 0xC2730, symSize: 0x760 }
  - { offset: 0x2B15C7, size: 0x8, addend: 0x0, symName: _ggml_compute_forward_cpy, symObjAddr: 0xF6D8, symBinAddr: 0xC2E90, symSize: 0x4 }
  - { offset: 0x2B15DB, size: 0x8, addend: 0x0, symName: _ggml_compute_forward_cpy, symObjAddr: 0xF6D8, symBinAddr: 0xC2E90, symSize: 0x4 }
  - { offset: 0x2B1614, size: 0x8, addend: 0x0, symName: _ggml_compute_forward_cpy, symObjAddr: 0xF6D8, symBinAddr: 0xC2E90, symSize: 0x4 }
  - { offset: 0x2B1630, size: 0x8, addend: 0x0, symName: _ggml_compute_forward_cont, symObjAddr: 0xF6DC, symBinAddr: 0xC2E94, symSize: 0x4 }
  - { offset: 0x2B1669, size: 0x8, addend: 0x0, symName: _ggml_compute_forward_cont, symObjAddr: 0xF6DC, symBinAddr: 0xC2E94, symSize: 0x4 }
  - { offset: 0x2B1685, size: 0x8, addend: 0x0, symName: _ggml_compute_forward_reshape, symObjAddr: 0xF6E0, symBinAddr: 0xC2E98, symSize: 0x4 }
  - { offset: 0x2B16BB, size: 0x8, addend: 0x0, symName: _ggml_compute_forward_view, symObjAddr: 0xF6E4, symBinAddr: 0xC2E9C, symSize: 0x4 }
  - { offset: 0x2B16F1, size: 0x8, addend: 0x0, symName: _ggml_compute_forward_permute, symObjAddr: 0xF6E8, symBinAddr: 0xC2EA0, symSize: 0x4 }
  - { offset: 0x2B1727, size: 0x8, addend: 0x0, symName: _ggml_compute_forward_transpose, symObjAddr: 0xF6EC, symBinAddr: 0xC2EA4, symSize: 0x4 }
  - { offset: 0x2B1FE3, size: 0x8, addend: 0x0, symName: _ggml_compute_forward_get_rows, symObjAddr: 0xF6F0, symBinAddr: 0xC2EA8, symSize: 0x664 }
  - { offset: 0x2B260F, size: 0x8, addend: 0x0, symName: _ggml_compute_forward_get_rows_back, symObjAddr: 0xFD54, symBinAddr: 0xC350C, symSize: 0x4CC }
  - { offset: 0x2B27B0, size: 0x8, addend: 0x0, symName: _ggml_compute_forward_get_rows_back, symObjAddr: 0xFD54, symBinAddr: 0xC350C, symSize: 0x4CC }
  - { offset: 0x2B2A20, size: 0x8, addend: 0x0, symName: _ggml_compute_forward_diag, symObjAddr: 0x10220, symBinAddr: 0xC39D8, symSize: 0x3A4 }
  - { offset: 0x2B2BA5, size: 0x8, addend: 0x0, symName: _ggml_compute_forward_diag, symObjAddr: 0x10220, symBinAddr: 0xC39D8, symSize: 0x3A4 }
  - { offset: 0x2B2DCD, size: 0x8, addend: 0x0, symName: _ggml_compute_forward_diag_mask_inf, symObjAddr: 0x105C4, symBinAddr: 0xC3D7C, symSize: 0x38 }
  - { offset: 0x2B2DE1, size: 0x8, addend: 0x0, symName: _ggml_compute_forward_diag_mask_inf, symObjAddr: 0x105C4, symBinAddr: 0xC3D7C, symSize: 0x38 }
  - { offset: 0x2B2E3D, size: 0x8, addend: 0x0, symName: __ZL34ggml_compute_forward_diag_mask_f32PK19ggml_compute_paramsP11ggml_tensorf, symObjAddr: 0x105FC, symBinAddr: 0xC3DB4, symSize: 0x238 }
  - { offset: 0x2B2E51, size: 0x8, addend: 0x0, symName: __ZL34ggml_compute_forward_diag_mask_f32PK19ggml_compute_paramsP11ggml_tensorf, symObjAddr: 0x105FC, symBinAddr: 0xC3DB4, symSize: 0x238 }
  - { offset: 0x2B306C, size: 0x8, addend: 0x0, symName: _ggml_compute_forward_diag_mask_zero, symObjAddr: 0x10834, symBinAddr: 0xC3FEC, symSize: 0x34 }
  - { offset: 0x2B3080, size: 0x8, addend: 0x0, symName: _ggml_compute_forward_diag_mask_zero, symObjAddr: 0x10834, symBinAddr: 0xC3FEC, symSize: 0x34 }
  - { offset: 0x2B30DC, size: 0x8, addend: 0x0, symName: _ggml_compute_forward_soft_max, symObjAddr: 0x10868, symBinAddr: 0xC4020, symSize: 0x4A0 }
  - { offset: 0x2B419E, size: 0x8, addend: 0x0, symName: _ggml_compute_forward_soft_max, symObjAddr: 0x10868, symBinAddr: 0xC4020, symSize: 0x4A0 }
  - { offset: 0x2B454D, size: 0x8, addend: 0x0, symName: _ggml_compute_forward_soft_max_ext_back, symObjAddr: 0x10D08, symBinAddr: 0xC44C0, symSize: 0x4E0 }
  - { offset: 0x2B46E5, size: 0x8, addend: 0x0, symName: _ggml_compute_forward_soft_max_ext_back, symObjAddr: 0x10D08, symBinAddr: 0xC44C0, symSize: 0x4E0 }
  - { offset: 0x2B4A8D, size: 0x8, addend: 0x0, symName: _ggml_compute_forward_clamp, symObjAddr: 0x111E8, symBinAddr: 0xC49A0, symSize: 0x560 }
  - { offset: 0x2B4CC7, size: 0x8, addend: 0x0, symName: _ggml_compute_forward_clamp, symObjAddr: 0x111E8, symBinAddr: 0xC49A0, symSize: 0x560 }
  - { offset: 0x2B4F14, size: 0x8, addend: 0x0, symName: _ggml_compute_forward_rope, symObjAddr: 0x11748, symBinAddr: 0xC4F00, symSize: 0x44 }
  - { offset: 0x2B4F28, size: 0x8, addend: 0x0, symName: _ggml_compute_forward_rope, symObjAddr: 0x11748, symBinAddr: 0xC4F00, symSize: 0x44 }
  - { offset: 0x2B4FA0, size: 0x8, addend: 0x0, symName: __ZL29ggml_compute_forward_rope_f16PK19ggml_compute_paramsP11ggml_tensorb, symObjAddr: 0x1178C, symBinAddr: 0xC4F44, symSize: 0x11C0 }
  - { offset: 0x2B4FB4, size: 0x8, addend: 0x0, symName: __ZL29ggml_compute_forward_rope_f16PK19ggml_compute_paramsP11ggml_tensorb, symObjAddr: 0x1178C, symBinAddr: 0xC4F44, symSize: 0x11C0 }
  - { offset: 0x2B5C6A, size: 0x8, addend: 0x0, symName: __ZL29ggml_compute_forward_rope_f32PK19ggml_compute_paramsP11ggml_tensorb, symObjAddr: 0x1294C, symBinAddr: 0xC6104, symSize: 0xB28 }
  - { offset: 0x2B5C7E, size: 0x8, addend: 0x0, symName: __ZL29ggml_compute_forward_rope_f32PK19ggml_compute_paramsP11ggml_tensorb, symObjAddr: 0x1294C, symBinAddr: 0xC6104, symSize: 0xB28 }
  - { offset: 0x2B6730, size: 0x8, addend: 0x0, symName: _ggml_compute_forward_rope_back, symObjAddr: 0x13474, symBinAddr: 0xC6C2C, symSize: 0x44 }
  - { offset: 0x2B6A54, size: 0x8, addend: 0x0, symName: _ggml_compute_forward_rope_back, symObjAddr: 0x13474, symBinAddr: 0xC6C2C, symSize: 0x44 }
  - { offset: 0x2B6ACC, size: 0x8, addend: 0x0, symName: _ggml_compute_forward_conv_transpose_1d, symObjAddr: 0x134B8, symBinAddr: 0xC6C70, symSize: 0xC1C }
  - { offset: 0x2B7118, size: 0x8, addend: 0x0, symName: _ggml_compute_forward_conv_transpose_1d, symObjAddr: 0x134B8, symBinAddr: 0xC6C70, symSize: 0xC1C }
  - { offset: 0x2B7761, size: 0x8, addend: 0x0, symName: _ggml_compute_forward_im2col, symObjAddr: 0x140D4, symBinAddr: 0xC788C, symSize: 0x82C }
  - { offset: 0x2B7DDF, size: 0x8, addend: 0x0, symName: _ggml_compute_forward_im2col, symObjAddr: 0x140D4, symBinAddr: 0xC788C, symSize: 0x82C }
  - { offset: 0x2B8255, size: 0x8, addend: 0x0, symName: _ggml_compute_forward_im2col_back_f32, symObjAddr: 0x14900, symBinAddr: 0xC80B8, symSize: 0x560 }
  - { offset: 0x2B8269, size: 0x8, addend: 0x0, symName: _ggml_compute_forward_im2col_back_f32, symObjAddr: 0x14900, symBinAddr: 0xC80B8, symSize: 0x560 }
  - { offset: 0x2B86D6, size: 0x8, addend: 0x0, symName: _ggml_compute_forward_conv_transpose_2d, symObjAddr: 0x14E60, symBinAddr: 0xC8618, symSize: 0x9F8 }
  - { offset: 0x2B86EA, size: 0x8, addend: 0x0, symName: _ggml_compute_forward_conv_transpose_2d, symObjAddr: 0x14E60, symBinAddr: 0xC8618, symSize: 0x9F8 }
  - { offset: 0x2B8C63, size: 0x8, addend: 0x0, symName: _ggml_compute_forward_conv_2d_dw, symObjAddr: 0x15858, symBinAddr: 0xC9010, symSize: 0x7C0 }
  - { offset: 0x2B909D, size: 0x8, addend: 0x0, symName: _ggml_compute_forward_conv_2d_dw, symObjAddr: 0x15858, symBinAddr: 0xC9010, symSize: 0x7C0 }
  - { offset: 0x2B940D, size: 0x8, addend: 0x0, symName: _ggml_compute_forward_pool_1d, symObjAddr: 0x16018, symBinAddr: 0xC97D0, symSize: 0x550 }
  - { offset: 0x2B950B, size: 0x8, addend: 0x0, symName: _ggml_compute_forward_pool_1d, symObjAddr: 0x16018, symBinAddr: 0xC97D0, symSize: 0x550 }
  - { offset: 0x2B969D, size: 0x8, addend: 0x0, symName: _ggml_compute_forward_pool_2d, symObjAddr: 0x16568, symBinAddr: 0xC9D20, symSize: 0x5A4 }
  - { offset: 0x2B96B1, size: 0x8, addend: 0x0, symName: _ggml_compute_forward_pool_2d, symObjAddr: 0x16568, symBinAddr: 0xC9D20, symSize: 0x5A4 }
  - { offset: 0x2B9961, size: 0x8, addend: 0x0, symName: _ggml_compute_forward_pool_2d_back, symObjAddr: 0x16B0C, symBinAddr: 0xCA2C4, symSize: 0x3E0 }
  - { offset: 0x2B9975, size: 0x8, addend: 0x0, symName: _ggml_compute_forward_pool_2d_back, symObjAddr: 0x16B0C, symBinAddr: 0xCA2C4, symSize: 0x3E0 }
  - { offset: 0x2B9D8A, size: 0x8, addend: 0x0, symName: _ggml_compute_forward_upscale, symObjAddr: 0x16EEC, symBinAddr: 0xCA6A4, symSize: 0x378 }
  - { offset: 0x2BA160, size: 0x8, addend: 0x0, symName: _ggml_compute_forward_upscale, symObjAddr: 0x16EEC, symBinAddr: 0xCA6A4, symSize: 0x378 }
  - { offset: 0x2BA654, size: 0x8, addend: 0x0, symName: _ggml_compute_forward_pad, symObjAddr: 0x17264, symBinAddr: 0xCAA1C, symSize: 0x4A0 }
  - { offset: 0x2BA7F0, size: 0x8, addend: 0x0, symName: _ggml_compute_forward_pad, symObjAddr: 0x17264, symBinAddr: 0xCAA1C, symSize: 0x4A0 }
  - { offset: 0x2BA966, size: 0x8, addend: 0x0, symName: _ggml_compute_forward_pad_reflect_1d, symObjAddr: 0x17704, symBinAddr: 0xCAEBC, symSize: 0xF9C }
  - { offset: 0x2BA97A, size: 0x8, addend: 0x0, symName: _ggml_compute_forward_pad_reflect_1d, symObjAddr: 0x17704, symBinAddr: 0xCAEBC, symSize: 0xF9C }
  - { offset: 0x2BABD9, size: 0x8, addend: 0x0, symName: _ggml_compute_forward_arange, symObjAddr: 0x186A0, symBinAddr: 0xCBE58, symSize: 0x228 }
  - { offset: 0x2BACAA, size: 0x8, addend: 0x0, symName: _ggml_compute_forward_arange, symObjAddr: 0x186A0, symBinAddr: 0xCBE58, symSize: 0x228 }
  - { offset: 0x2BADEC, size: 0x8, addend: 0x0, symName: _ggml_compute_forward_timestep_embedding, symObjAddr: 0x188C8, symBinAddr: 0xCC080, symSize: 0x56C }
  - { offset: 0x2BAF9F, size: 0x8, addend: 0x0, symName: _ggml_compute_forward_timestep_embedding, symObjAddr: 0x188C8, symBinAddr: 0xCC080, symSize: 0x56C }
  - { offset: 0x2BB0E1, size: 0x8, addend: 0x0, symName: _ggml_compute_forward_argsort, symObjAddr: 0x18E34, symBinAddr: 0xCC5EC, symSize: 0x4EC }
  - { offset: 0x2BB29A, size: 0x8, addend: 0x0, symName: _ggml_compute_forward_argsort, symObjAddr: 0x18E34, symBinAddr: 0xCC5EC, symSize: 0x4EC }
  - { offset: 0x2BB414, size: 0x8, addend: 0x0, symName: _ggml_compute_forward_flash_attn_ext, symObjAddr: 0x19320, symBinAddr: 0xCCAD8, symSize: 0xEC4 }
  - { offset: 0x2BBAC9, size: 0x8, addend: 0x0, symName: _ggml_compute_forward_flash_attn_ext, symObjAddr: 0x19320, symBinAddr: 0xCCAD8, symSize: 0xEC4 }
  - { offset: 0x2BC4D0, size: 0x8, addend: 0x0, symName: _ggml_compute_forward_flash_attn_back, symObjAddr: 0x1A1E4, symBinAddr: 0xCD99C, symSize: 0x10BC }
  - { offset: 0x2BCAB4, size: 0x8, addend: 0x0, symName: _ggml_compute_forward_flash_attn_back, symObjAddr: 0x1A1E4, symBinAddr: 0xCD99C, symSize: 0x10BC }
  - { offset: 0x2BD6EB, size: 0x8, addend: 0x0, symName: _ggml_compute_forward_ssm_conv, symObjAddr: 0x1B2A0, symBinAddr: 0xCEA58, symSize: 0x428 }
  - { offset: 0x2BD849, size: 0x8, addend: 0x0, symName: _ggml_compute_forward_ssm_conv, symObjAddr: 0x1B2A0, symBinAddr: 0xCEA58, symSize: 0x428 }
  - { offset: 0x2BD9ED, size: 0x8, addend: 0x0, symName: _ggml_compute_forward_ssm_scan, symObjAddr: 0x1B6C8, symBinAddr: 0xCEE80, symSize: 0x99C }
  - { offset: 0x2BDBEA, size: 0x8, addend: 0x0, symName: _ggml_compute_forward_ssm_scan, symObjAddr: 0x1B6C8, symBinAddr: 0xCEE80, symSize: 0x99C }
  - { offset: 0x2BDED1, size: 0x8, addend: 0x0, symName: _ggml_compute_forward_win_part, symObjAddr: 0x1C064, symBinAddr: 0xCF81C, symSize: 0x580 }
  - { offset: 0x2BE05F, size: 0x8, addend: 0x0, symName: _ggml_compute_forward_win_part, symObjAddr: 0x1C064, symBinAddr: 0xCF81C, symSize: 0x580 }
  - { offset: 0x2BE19D, size: 0x8, addend: 0x0, symName: _ggml_compute_forward_win_unpart, symObjAddr: 0x1C5E4, symBinAddr: 0xCFD9C, symSize: 0x228 }
  - { offset: 0x2BE302, size: 0x8, addend: 0x0, symName: _ggml_compute_forward_win_unpart, symObjAddr: 0x1C5E4, symBinAddr: 0xCFD9C, symSize: 0x228 }
  - { offset: 0x2BE411, size: 0x8, addend: 0x0, symName: _ggml_compute_forward_unary, symObjAddr: 0x1C80C, symBinAddr: 0xCFFC4, symSize: 0xBD4 }
  - { offset: 0x2BEC72, size: 0x8, addend: 0x0, symName: _ggml_compute_forward_unary, symObjAddr: 0x1C80C, symBinAddr: 0xCFFC4, symSize: 0xBD4 }
  - { offset: 0x2BF636, size: 0x8, addend: 0x0, symName: _ggml_compute_forward_get_rel_pos, symObjAddr: 0x1D3E0, symBinAddr: 0xD0B98, symSize: 0x2B4 }
  - { offset: 0x2BF8B8, size: 0x8, addend: 0x0, symName: _ggml_compute_forward_get_rel_pos, symObjAddr: 0x1D3E0, symBinAddr: 0xD0B98, symSize: 0x2B4 }
  - { offset: 0x2BF9C3, size: 0x8, addend: 0x0, symName: _ggml_compute_forward_add_rel_pos, symObjAddr: 0x1D694, symBinAddr: 0xD0E4C, symSize: 0x1B8 }
  - { offset: 0x2BFB7F, size: 0x8, addend: 0x0, symName: _ggml_compute_forward_add_rel_pos, symObjAddr: 0x1D694, symBinAddr: 0xD0E4C, symSize: 0x1B8 }
  - { offset: 0x2BFD63, size: 0x8, addend: 0x0, symName: _ggml_compute_forward_rwkv_wkv6, symObjAddr: 0x1D84C, symBinAddr: 0xD1004, symSize: 0xBC0 }
  - { offset: 0x2C010B, size: 0x8, addend: 0x0, symName: _ggml_compute_forward_rwkv_wkv6, symObjAddr: 0x1D84C, symBinAddr: 0xD1004, symSize: 0xBC0 }
  - { offset: 0x2C0388, size: 0x8, addend: 0x0, symName: _ggml_compute_forward_gla, symObjAddr: 0x1E40C, symBinAddr: 0xD1BC4, symSize: 0xC70 }
  - { offset: 0x2C06FC, size: 0x8, addend: 0x0, symName: _ggml_compute_forward_gla, symObjAddr: 0x1E40C, symBinAddr: 0xD1BC4, symSize: 0xC70 }
  - { offset: 0x2C0980, size: 0x8, addend: 0x0, symName: _ggml_compute_forward_rwkv_wkv7, symObjAddr: 0x1F07C, symBinAddr: 0xD2834, symSize: 0x430 }
  - { offset: 0x2C0DD1, size: 0x8, addend: 0x0, symName: _ggml_compute_forward_rwkv_wkv7, symObjAddr: 0x1F07C, symBinAddr: 0xD2834, symSize: 0x430 }
  - { offset: 0x2C10F8, size: 0x8, addend: 0x0, symName: _ggml_compute_forward_map_custom1, symObjAddr: 0x1F4AC, symBinAddr: 0xD2C64, symSize: 0x1C }
  - { offset: 0x2C110C, size: 0x8, addend: 0x0, symName: _ggml_compute_forward_map_custom1, symObjAddr: 0x1F4AC, symBinAddr: 0xD2C64, symSize: 0x1C }
  - { offset: 0x2C117D, size: 0x8, addend: 0x0, symName: _ggml_compute_forward_map_custom2, symObjAddr: 0x1F4C8, symBinAddr: 0xD2C80, symSize: 0x20 }
  - { offset: 0x2C11FF, size: 0x8, addend: 0x0, symName: _ggml_compute_forward_map_custom3, symObjAddr: 0x1F4E8, symBinAddr: 0xD2CA0, symSize: 0x20 }
  - { offset: 0x2C1292, size: 0x8, addend: 0x0, symName: _ggml_compute_forward_custom, symObjAddr: 0x1F508, symBinAddr: 0xD2CC0, symSize: 0x18 }
  - { offset: 0x2C1467, size: 0x8, addend: 0x0, symName: _ggml_compute_forward_cross_entropy_loss, symObjAddr: 0x1F520, symBinAddr: 0xD2CD8, symSize: 0x4F0 }
  - { offset: 0x2C18B0, size: 0x8, addend: 0x0, symName: _ggml_compute_forward_cross_entropy_loss_back, symObjAddr: 0x1FA10, symBinAddr: 0xD31C8, symSize: 0x448 }
  - { offset: 0x2C1A38, size: 0x8, addend: 0x0, symName: _ggml_compute_forward_cross_entropy_loss_back, symObjAddr: 0x1FA10, symBinAddr: 0xD31C8, symSize: 0x448 }
  - { offset: 0x2C1ECD, size: 0x8, addend: 0x0, symName: _ggml_compute_forward_opt_step_adamw, symObjAddr: 0x1FE58, symBinAddr: 0xD3610, symSize: 0x3E8 }
  - { offset: 0x2C2177, size: 0x8, addend: 0x0, symName: _ggml_compute_forward_opt_step_adamw, symObjAddr: 0x1FE58, symBinAddr: 0xD3610, symSize: 0x3E8 }
  - { offset: 0x2C449A, size: 0x8, addend: 0x0, symName: _quantize_row_q4_0, symObjAddr: 0x0, symBinAddr: 0xD39F8, symSize: 0x4 }
  - { offset: 0x2C44A8, size: 0x8, addend: 0x0, symName: _ggml_vec_dot_q4_K_q8_K, symObjAddr: 0x1FDC, symBinAddr: 0xD59D4, symSize: 0x768 }
  - { offset: 0x2C4880, size: 0x8, addend: 0x0, symName: _ggml_vec_dot_q5_K_q8_K, symObjAddr: 0x2744, symBinAddr: 0xD613C, symSize: 0x814 }
  - { offset: 0x2C4C90, size: 0x8, addend: 0x0, symName: _iq2xxs_grid, symObjAddr: 0x5930, symBinAddr: 0x116A78, symSize: 0x0 }
  - { offset: 0x2C4CD6, size: 0x8, addend: 0x0, symName: _ksigns_iq2xs, symObjAddr: 0x6130, symBinAddr: 0x117278, symSize: 0x0 }
  - { offset: 0x2C4D14, size: 0x8, addend: 0x0, symName: _iq2xs_grid, symObjAddr: 0x61B0, symBinAddr: 0x1172F8, symSize: 0x0 }
  - { offset: 0x2C4D3A, size: 0x8, addend: 0x0, symName: _iq2s_grid, symObjAddr: 0x71B0, symBinAddr: 0x1182F8, symSize: 0x0 }
  - { offset: 0x2C4D60, size: 0x8, addend: 0x0, symName: _iq3xxs_grid, symObjAddr: 0x91B0, symBinAddr: 0x11A2F8, symSize: 0x0 }
  - { offset: 0x2C4D86, size: 0x8, addend: 0x0, symName: _iq3s_grid, symObjAddr: 0x95B0, symBinAddr: 0x11A6F8, symSize: 0x0 }
  - { offset: 0x2C4DAC, size: 0x8, addend: 0x0, symName: _iq1s_grid, symObjAddr: 0x9DB0, symBinAddr: 0x11AEF8, symSize: 0x0 }
  - { offset: 0x2C4DD2, size: 0x8, addend: 0x0, symName: _kvalues_iq4nl, symObjAddr: 0xDDB0, symBinAddr: 0x11EEF8, symSize: 0x0 }
  - { offset: 0x2C4E35, size: 0x8, addend: 0x0, symName: _quantize_row_q4_0, symObjAddr: 0x0, symBinAddr: 0xD39F8, symSize: 0x4 }
  - { offset: 0x2C4E79, size: 0x8, addend: 0x0, symName: _quantize_row_q4_0, symObjAddr: 0x0, symBinAddr: 0xD39F8, symSize: 0x4 }
  - { offset: 0x2C4F2F, size: 0x8, addend: 0x0, symName: _quantize_row_q4_1, symObjAddr: 0x4, symBinAddr: 0xD39FC, symSize: 0x4 }
  - { offset: 0x2C4F73, size: 0x8, addend: 0x0, symName: _quantize_row_q4_1, symObjAddr: 0x4, symBinAddr: 0xD39FC, symSize: 0x4 }
  - { offset: 0x2C502E, size: 0x8, addend: 0x0, symName: _quantize_row_q5_0, symObjAddr: 0x8, symBinAddr: 0xD3A00, symSize: 0x4 }
  - { offset: 0x2C5072, size: 0x8, addend: 0x0, symName: _quantize_row_q5_0, symObjAddr: 0x8, symBinAddr: 0xD3A00, symSize: 0x4 }
  - { offset: 0x2C5104, size: 0x8, addend: 0x0, symName: _quantize_row_q5_1, symObjAddr: 0xC, symBinAddr: 0xD3A04, symSize: 0x4 }
  - { offset: 0x2C5148, size: 0x8, addend: 0x0, symName: _quantize_row_q5_1, symObjAddr: 0xC, symBinAddr: 0xD3A04, symSize: 0x4 }
  - { offset: 0x2C5204, size: 0x8, addend: 0x0, symName: _quantize_row_q8_0, symObjAddr: 0x10, symBinAddr: 0xD3A08, symSize: 0x4 }
  - { offset: 0x2C5248, size: 0x8, addend: 0x0, symName: _quantize_row_q8_0, symObjAddr: 0x10, symBinAddr: 0xD3A08, symSize: 0x4 }
  - { offset: 0x2C52CD, size: 0x8, addend: 0x0, symName: _quantize_row_q8_1, symObjAddr: 0x14, symBinAddr: 0xD3A0C, symSize: 0x4 }
  - { offset: 0x2C5311, size: 0x8, addend: 0x0, symName: _quantize_row_q8_1, symObjAddr: 0x14, symBinAddr: 0xD3A0C, symSize: 0x4 }
  - { offset: 0x2C53C0, size: 0x8, addend: 0x0, symName: _quantize_row_q2_K, symObjAddr: 0x18, symBinAddr: 0xD3A10, symSize: 0x4 }
  - { offset: 0x2C5404, size: 0x8, addend: 0x0, symName: _quantize_row_q2_K, symObjAddr: 0x18, symBinAddr: 0xD3A10, symSize: 0x4 }
  - { offset: 0x2C54D9, size: 0x8, addend: 0x0, symName: _quantize_row_q3_K, symObjAddr: 0x1C, symBinAddr: 0xD3A14, symSize: 0x4 }
  - { offset: 0x2C551D, size: 0x8, addend: 0x0, symName: _quantize_row_q3_K, symObjAddr: 0x1C, symBinAddr: 0xD3A14, symSize: 0x4 }
  - { offset: 0x2C55D0, size: 0x8, addend: 0x0, symName: _quantize_row_q4_K, symObjAddr: 0x20, symBinAddr: 0xD3A18, symSize: 0x4 }
  - { offset: 0x2C5622, size: 0x8, addend: 0x0, symName: _quantize_row_q4_K, symObjAddr: 0x20, symBinAddr: 0xD3A18, symSize: 0x4 }
  - { offset: 0x2C56F7, size: 0x8, addend: 0x0, symName: _quantize_row_q5_K, symObjAddr: 0x24, symBinAddr: 0xD3A1C, symSize: 0x4 }
  - { offset: 0x2C5749, size: 0x8, addend: 0x0, symName: _quantize_row_q5_K, symObjAddr: 0x24, symBinAddr: 0xD3A1C, symSize: 0x4 }
  - { offset: 0x2C581E, size: 0x8, addend: 0x0, symName: _quantize_row_q6_K, symObjAddr: 0x28, symBinAddr: 0xD3A20, symSize: 0x4 }
  - { offset: 0x2C5870, size: 0x8, addend: 0x0, symName: _quantize_row_q6_K, symObjAddr: 0x28, symBinAddr: 0xD3A20, symSize: 0x4 }
  - { offset: 0x2C5915, size: 0x8, addend: 0x0, symName: _quantize_row_tq1_0, symObjAddr: 0x2C, symBinAddr: 0xD3A24, symSize: 0x4 }
  - { offset: 0x2C5967, size: 0x8, addend: 0x0, symName: _quantize_row_tq1_0, symObjAddr: 0x2C, symBinAddr: 0xD3A24, symSize: 0x4 }
  - { offset: 0x2C59F9, size: 0x8, addend: 0x0, symName: _quantize_row_tq2_0, symObjAddr: 0x30, symBinAddr: 0xD3A28, symSize: 0x4 }
  - { offset: 0x2C5A4B, size: 0x8, addend: 0x0, symName: _quantize_row_tq2_0, symObjAddr: 0x30, symBinAddr: 0xD3A28, symSize: 0x4 }
  - { offset: 0x2C5AC2, size: 0x8, addend: 0x0, symName: _quantize_row_q8_K, symObjAddr: 0x34, symBinAddr: 0xD3A2C, symSize: 0x4 }
  - { offset: 0x2C5B06, size: 0x8, addend: 0x0, symName: _quantize_row_q8_K, symObjAddr: 0x34, symBinAddr: 0xD3A2C, symSize: 0x4 }
  - { offset: 0x2C5BFE, size: 0x8, addend: 0x0, symName: _ggml_vec_dot_q4_0_q8_0, symObjAddr: 0x38, symBinAddr: 0xD3A30, symSize: 0xC0 }
  - { offset: 0x2C5D95, size: 0x8, addend: 0x0, symName: _ggml_vec_dot_q4_1_q8_1, symObjAddr: 0xF8, symBinAddr: 0xD3AF0, symSize: 0xC4 }
  - { offset: 0x2C5F6A, size: 0x8, addend: 0x0, symName: _ggml_vec_dot_q5_0_q8_0, symObjAddr: 0x1BC, symBinAddr: 0xD3BB4, symSize: 0x228 }
  - { offset: 0x2C612C, size: 0x8, addend: 0x0, symName: _ggml_vec_dot_q5_1_q8_1, symObjAddr: 0x3E4, symBinAddr: 0xD3DDC, symSize: 0x1C0 }
  - { offset: 0x2C6331, size: 0x8, addend: 0x0, symName: _ggml_vec_dot_q8_0_q8_0, symObjAddr: 0x5A4, symBinAddr: 0xD3F9C, symSize: 0x64 }
  - { offset: 0x2C649C, size: 0x8, addend: 0x0, symName: _ggml_vec_dot_tq1_0_q8_K, symObjAddr: 0x608, symBinAddr: 0xD4000, symSize: 0x624 }
  - { offset: 0x2C66E6, size: 0x8, addend: 0x0, symName: _ggml_vec_dot_tq2_0_q8_K, symObjAddr: 0xC2C, symBinAddr: 0xD4624, symSize: 0x5E8 }
  - { offset: 0x2C6864, size: 0x8, addend: 0x0, symName: _ggml_vec_dot_q2_K_q8_K, symObjAddr: 0x1214, symBinAddr: 0xD4C0C, symSize: 0xAB8 }
  - { offset: 0x2C6AD3, size: 0x8, addend: 0x0, symName: _ggml_vec_dot_q3_K_q8_K, symObjAddr: 0x1CCC, symBinAddr: 0xD56C4, symSize: 0x310 }
  - { offset: 0x2C6E77, size: 0x8, addend: 0x0, symName: _ggml_vec_dot_q6_K_q8_K, symObjAddr: 0x2F58, symBinAddr: 0xD6950, symSize: 0x2C8 }
  - { offset: 0x2C7154, size: 0x8, addend: 0x0, symName: _ggml_vec_dot_iq2_xxs_q8_K, symObjAddr: 0x3220, symBinAddr: 0xD6C18, symSize: 0x388 }
  - { offset: 0x2C7391, size: 0x8, addend: 0x0, symName: _ggml_vec_dot_iq2_xs_q8_K, symObjAddr: 0x35A8, symBinAddr: 0xD6FA0, symSize: 0x3B0 }
  - { offset: 0x2C7607, size: 0x8, addend: 0x0, symName: _ggml_vec_dot_iq2_s_q8_K, symObjAddr: 0x3958, symBinAddr: 0xD7350, symSize: 0x3A8 }
  - { offset: 0x2C7891, size: 0x8, addend: 0x0, symName: _ggml_vec_dot_iq3_xxs_q8_K, symObjAddr: 0x3D00, symBinAddr: 0xD76F8, symSize: 0x434 }
  - { offset: 0x2C7AD9, size: 0x8, addend: 0x0, symName: _ggml_vec_dot_iq3_s_q8_K, symObjAddr: 0x4134, symBinAddr: 0xD7B2C, symSize: 0x858 }
  - { offset: 0x2C7D74, size: 0x8, addend: 0x0, symName: _ggml_vec_dot_iq1_s_q8_K, symObjAddr: 0x498C, symBinAddr: 0xD8384, symSize: 0x198 }
  - { offset: 0x2C7F8A, size: 0x8, addend: 0x0, symName: _ggml_vec_dot_iq1_m_q8_K, symObjAddr: 0x4B24, symBinAddr: 0xD851C, symSize: 0x304 }
  - { offset: 0x2C8213, size: 0x8, addend: 0x0, symName: _ggml_vec_dot_iq4_nl_q8_0, symObjAddr: 0x4E28, symBinAddr: 0xD8820, symSize: 0x298 }
  - { offset: 0x2C8394, size: 0x8, addend: 0x0, symName: _ggml_vec_dot_iq4_xs_q8_K, symObjAddr: 0x50C0, symBinAddr: 0xD8AB8, symSize: 0x5F4 }
  - { offset: 0x2C85C0, size: 0x8, addend: 0x0, symName: _quantize_row_iq4_nl, symObjAddr: 0x56B4, symBinAddr: 0xD90AC, symSize: 0x4 }
  - { offset: 0x2C8608, size: 0x8, addend: 0x0, symName: _quantize_row_iq4_nl, symObjAddr: 0x56B4, symBinAddr: 0xD90AC, symSize: 0x4 }
  - { offset: 0x2C8683, size: 0x8, addend: 0x0, symName: _quantize_row_iq4_xs, symObjAddr: 0x56B8, symBinAddr: 0xD90B0, symSize: 0x10 }
  - { offset: 0x2C8C4F, size: 0x8, addend: 0x0, symName: _ggml_gemv_q4_K_8x8_q8_K, symObjAddr: 0x134C, symBinAddr: 0xDA40C, symSize: 0x7EC }
  - { offset: 0x2C8FAC, size: 0x8, addend: 0x0, symName: _ggml_gemm_q4_K_8x8_q8_K, symObjAddr: 0x3150, symBinAddr: 0xDC210, symSize: 0x948 }
  - { offset: 0x2C93EA, size: 0x8, addend: 0x0, symName: __MergedGlobals, symObjAddr: 0x9B30, symBinAddr: 0x1384B0, symSize: 0x0 }
  - { offset: 0x2C956B, size: 0x8, addend: 0x0, symName: __MergedGlobals, symObjAddr: 0x9B30, symBinAddr: 0x1384B0, symSize: 0x0 }
  - { offset: 0x2C9696, size: 0x8, addend: 0x0, symName: __MergedGlobals, symObjAddr: 0x9B30, symBinAddr: 0x1384B0, symSize: 0x0 }
  - { offset: 0x2C97C1, size: 0x8, addend: 0x0, symName: __MergedGlobals, symObjAddr: 0x9B30, symBinAddr: 0x1384B0, symSize: 0x0 }
  - { offset: 0x2C98EC, size: 0x8, addend: 0x0, symName: __MergedGlobals, symObjAddr: 0x9B30, symBinAddr: 0x1384B0, symSize: 0x0 }
  - { offset: 0x2C9A0A, size: 0x8, addend: 0x0, symName: __ZN4ggml3cpu6repack6repackI10block_q4_0Lx4ELx4EEEiP11ggml_tensorPKvm, symObjAddr: 0x4054, symBinAddr: 0xDD114, symSize: 0x10 }
  - { offset: 0x2C9A68, size: 0x8, addend: 0x0, symName: __ZN4ggml3cpu6repack6repackI10block_q4_0Lx8ELx4EEEiP11ggml_tensorPKvm, symObjAddr: 0x4424, symBinAddr: 0xDD4E4, symSize: 0x10 }
  - { offset: 0x2C9AC6, size: 0x8, addend: 0x0, symName: __ZN4ggml3cpu6repack6repackI10block_q4_0Lx8ELx8EEEiP11ggml_tensorPKvm, symObjAddr: 0x4434, symBinAddr: 0xDD4F4, symSize: 0x294 }
  - { offset: 0x2C9C2D, size: 0x8, addend: 0x0, symName: __ZN4ggml3cpu6repack6repackI10block_q4_KLx8ELx8EEEiP11ggml_tensorPKvm, symObjAddr: 0x46C8, symBinAddr: 0xDD788, symSize: 0x96C }
  - { offset: 0x2C9C5E, size: 0x8, addend: 0x0, symName: __ZN4ggml3cpu6repack6repackI10block_q4_KLx8ELx8EEEiP11ggml_tensorPKvm, symObjAddr: 0x46C8, symBinAddr: 0xDD788, symSize: 0x96C }
  - { offset: 0x2C9E4C, size: 0x8, addend: 0x0, symName: __ZN4ggml3cpu6repack6repackI12block_iq4_nlLx4ELx4EEEiP11ggml_tensorPKvm, symObjAddr: 0x5034, symBinAddr: 0xDE0F4, symSize: 0x1BC }
  - { offset: 0x2C9E7D, size: 0x8, addend: 0x0, symName: __ZN4ggml3cpu6repack6repackI12block_iq4_nlLx4ELx4EEEiP11ggml_tensorPKvm, symObjAddr: 0x5034, symBinAddr: 0xDE0F4, symSize: 0x1BC }
  - { offset: 0x2C9F89, size: 0x8, addend: 0x0, symName: __ZN4ggml3cpu6repack4gemvI10block_q4_0Lx4ELx4EL9ggml_type8EEEviPfmPKvS7_ii, symObjAddr: 0x51F0, symBinAddr: 0xDE2B0, symSize: 0x4 }
  - { offset: 0x2C9FBA, size: 0x8, addend: 0x0, symName: __ZN4ggml3cpu6repack4gemvI10block_q4_0Lx4ELx4EL9ggml_type8EEEviPfmPKvS7_ii, symObjAddr: 0x51F0, symBinAddr: 0xDE2B0, symSize: 0x4 }
  - { offset: 0x2CA00A, size: 0x8, addend: 0x0, symName: __ZN4ggml3cpu6repack4gemvI10block_q4_0Lx4ELx4EL9ggml_type8EEEviPfmPKvS7_ii, symObjAddr: 0x51F0, symBinAddr: 0xDE2B0, symSize: 0x4 }
  - { offset: 0x2CA03E, size: 0x8, addend: 0x0, symName: __ZN4ggml3cpu6repack4gemvI10block_q4_0Lx8ELx4EL9ggml_type8EEEviPfmPKvS7_ii, symObjAddr: 0x51F4, symBinAddr: 0xDE2B4, symSize: 0x4 }
  - { offset: 0x2CA08E, size: 0x8, addend: 0x0, symName: __ZN4ggml3cpu6repack4gemvI10block_q4_0Lx8ELx4EL9ggml_type8EEEviPfmPKvS7_ii, symObjAddr: 0x51F4, symBinAddr: 0xDE2B4, symSize: 0x4 }
  - { offset: 0x2CA0C2, size: 0x8, addend: 0x0, symName: __ZN4ggml3cpu6repack4gemvI10block_q4_0Lx8ELx8EL9ggml_type8EEEviPfmPKvS7_ii, symObjAddr: 0x51F8, symBinAddr: 0xDE2B8, symSize: 0x4 }
  - { offset: 0x2CA112, size: 0x8, addend: 0x0, symName: __ZN4ggml3cpu6repack4gemvI10block_q4_0Lx8ELx8EL9ggml_type8EEEviPfmPKvS7_ii, symObjAddr: 0x51F8, symBinAddr: 0xDE2B8, symSize: 0x4 }
  - { offset: 0x2CA146, size: 0x8, addend: 0x0, symName: __ZN4ggml3cpu6repack4gemvI10block_q4_KLx8ELx8EL9ggml_type15EEEviPfmPKvS7_ii, symObjAddr: 0x51FC, symBinAddr: 0xDE2BC, symSize: 0x4 }
  - { offset: 0x2CA196, size: 0x8, addend: 0x0, symName: __ZN4ggml3cpu6repack4gemvI10block_q4_KLx8ELx8EL9ggml_type15EEEviPfmPKvS7_ii, symObjAddr: 0x51FC, symBinAddr: 0xDE2BC, symSize: 0x4 }
  - { offset: 0x2CA1CA, size: 0x8, addend: 0x0, symName: __ZN4ggml3cpu6repack4gemvI12block_iq4_nlLx4ELx4EL9ggml_type8EEEviPfmPKvS7_ii, symObjAddr: 0x5200, symBinAddr: 0xDE2C0, symSize: 0x4 }
  - { offset: 0x2CA21A, size: 0x8, addend: 0x0, symName: __ZN4ggml3cpu6repack4gemvI12block_iq4_nlLx4ELx4EL9ggml_type8EEEviPfmPKvS7_ii, symObjAddr: 0x5200, symBinAddr: 0xDE2C0, symSize: 0x4 }
  - { offset: 0x2CA24E, size: 0x8, addend: 0x0, symName: __ZN4ggml3cpu6repack4gemmI10block_q4_0Lx4ELx4EL9ggml_type8EEEviPfmPKvS7_ii, symObjAddr: 0x5204, symBinAddr: 0xDE2C4, symSize: 0x4 }
  - { offset: 0x2CA29E, size: 0x8, addend: 0x0, symName: __ZN4ggml3cpu6repack4gemmI10block_q4_0Lx4ELx4EL9ggml_type8EEEviPfmPKvS7_ii, symObjAddr: 0x5204, symBinAddr: 0xDE2C4, symSize: 0x4 }
  - { offset: 0x2CA2E2, size: 0x8, addend: 0x0, symName: __ZN4ggml3cpu6repack4gemmI10block_q4_0Lx8ELx4EL9ggml_type8EEEviPfmPKvS7_ii, symObjAddr: 0x5208, symBinAddr: 0xDE2C8, symSize: 0x4 }
  - { offset: 0x2CA332, size: 0x8, addend: 0x0, symName: __ZN4ggml3cpu6repack4gemmI10block_q4_0Lx8ELx4EL9ggml_type8EEEviPfmPKvS7_ii, symObjAddr: 0x5208, symBinAddr: 0xDE2C8, symSize: 0x4 }
  - { offset: 0x2CA376, size: 0x8, addend: 0x0, symName: __ZN4ggml3cpu6repack4gemmI10block_q4_0Lx8ELx8EL9ggml_type8EEEviPfmPKvS7_ii, symObjAddr: 0x520C, symBinAddr: 0xDE2CC, symSize: 0x4 }
  - { offset: 0x2CA3C6, size: 0x8, addend: 0x0, symName: __ZN4ggml3cpu6repack4gemmI10block_q4_0Lx8ELx8EL9ggml_type8EEEviPfmPKvS7_ii, symObjAddr: 0x520C, symBinAddr: 0xDE2CC, symSize: 0x4 }
  - { offset: 0x2CA40A, size: 0x8, addend: 0x0, symName: __ZN4ggml3cpu6repack4gemmI10block_q4_KLx8ELx8EL9ggml_type15EEEviPfmPKvS7_ii, symObjAddr: 0x5210, symBinAddr: 0xDE2D0, symSize: 0x4 }
  - { offset: 0x2CA45A, size: 0x8, addend: 0x0, symName: __ZN4ggml3cpu6repack4gemmI10block_q4_KLx8ELx8EL9ggml_type15EEEviPfmPKvS7_ii, symObjAddr: 0x5210, symBinAddr: 0xDE2D0, symSize: 0x4 }
  - { offset: 0x2CA49E, size: 0x8, addend: 0x0, symName: __ZN4ggml3cpu6repack4gemmI12block_iq4_nlLx4ELx4EL9ggml_type8EEEviPfmPKvS7_ii, symObjAddr: 0x5214, symBinAddr: 0xDE2D4, symSize: 0x4 }
  - { offset: 0x2CA4EE, size: 0x8, addend: 0x0, symName: __ZN4ggml3cpu6repack4gemmI12block_iq4_nlLx4ELx4EL9ggml_type8EEEviPfmPKvS7_ii, symObjAddr: 0x5214, symBinAddr: 0xDE2D4, symSize: 0x4 }
  - { offset: 0x2CADAD, size: 0x8, addend: 0x0, symName: __Z35ggml_backend_cpu_repack_buffer_typev, symObjAddr: 0x522C, symBinAddr: 0xDE2EC, symSize: 0xD4 }
  - { offset: 0x2CADD9, size: 0x8, addend: 0x0, symName: __MergedGlobals.38, symObjAddr: 0x3C228, symBinAddr: 0x1A4B08, symSize: 0x0 }
  - { offset: 0x2CAE54, size: 0x8, addend: 0x0, symName: __ZL13kvalues_iq4nl, symObjAddr: 0x93F8, symBinAddr: 0x11EF10, symSize: 0x0 }
  - { offset: 0x2CB1E6, size: 0x8, addend: 0x0, symName: __ZN4ggml3cpu6repack13tensor_traitsI10block_q4_0Lx4ELx4EL9ggml_type8EE18forward_mul_mat_idEP19ggml_compute_paramsP11ggml_tensor, symObjAddr: 0x6330, symBinAddr: 0xDF3F0, symSize: 0x608 }
  - { offset: 0x2CB878, size: 0x8, addend: 0x0, symName: __ZN4ggml3cpu6repack13tensor_traitsI10block_q4_0Lx8ELx4EL9ggml_type8EE15forward_mul_matEP19ggml_compute_paramsP11ggml_tensor, symObjAddr: 0x6938, symBinAddr: 0xDF9F8, symSize: 0x480 }
  - { offset: 0x2CB897, size: 0x8, addend: 0x0, symName: __ZN4ggml3cpu6repack13tensor_traitsI10block_q4_0Lx8ELx4EL9ggml_type8EE18forward_mul_mat_idEP19ggml_compute_paramsP11ggml_tensor, symObjAddr: 0x6DB8, symBinAddr: 0xDFE78, symSize: 0x608 }
  - { offset: 0x2CBF29, size: 0x8, addend: 0x0, symName: __ZN4ggml3cpu6repack13tensor_traitsI10block_q4_0Lx8ELx8EL9ggml_type8EE15forward_mul_matEP19ggml_compute_paramsP11ggml_tensor, symObjAddr: 0x73C0, symBinAddr: 0xE0480, symSize: 0x480 }
  - { offset: 0x2CBF43, size: 0x8, addend: 0x0, symName: __ZN4ggml3cpu6repack13tensor_traitsI10block_q4_0Lx8ELx8EL9ggml_type8EE18forward_mul_mat_idEP19ggml_compute_paramsP11ggml_tensor, symObjAddr: 0x7840, symBinAddr: 0xE0900, symSize: 0x608 }
  - { offset: 0x2CC5D5, size: 0x8, addend: 0x0, symName: __ZN4ggml3cpu6repack13tensor_traitsI10block_q4_KLx8ELx8EL9ggml_type15EE15forward_mul_matEP19ggml_compute_paramsP11ggml_tensor, symObjAddr: 0x7E48, symBinAddr: 0xE0F08, symSize: 0x480 }
  - { offset: 0x2CC5EF, size: 0x8, addend: 0x0, symName: __ZN4ggml3cpu6repack13tensor_traitsI10block_q4_KLx8ELx8EL9ggml_type15EE18forward_mul_mat_idEP19ggml_compute_paramsP11ggml_tensor, symObjAddr: 0x82C8, symBinAddr: 0xE1388, symSize: 0x608 }
  - { offset: 0x2CCC81, size: 0x8, addend: 0x0, symName: __ZN4ggml3cpu6repack13tensor_traitsI12block_iq4_nlLx4ELx4EL9ggml_type8EE15forward_mul_matEP19ggml_compute_paramsP11ggml_tensor, symObjAddr: 0x88D0, symBinAddr: 0xE1990, symSize: 0x480 }
  - { offset: 0x2CCC9B, size: 0x8, addend: 0x0, symName: __ZN4ggml3cpu6repack13tensor_traitsI12block_iq4_nlLx4ELx4EL9ggml_type8EE18forward_mul_mat_idEP19ggml_compute_paramsP11ggml_tensor, symObjAddr: 0x8D50, symBinAddr: 0xE1E10, symSize: 0x608 }
  - { offset: 0x2CD381, size: 0x8, addend: 0x0, symName: _ggml_quantize_mat_q8_0_4x4, symObjAddr: 0x0, symBinAddr: 0xD90C0, symSize: 0x344 }
  - { offset: 0x2CD4F7, size: 0x8, addend: 0x0, symName: _ggml_quantize_mat_q8_0_4x8, symObjAddr: 0x344, symBinAddr: 0xD9404, symSize: 0x370 }
  - { offset: 0x2CD6A2, size: 0x8, addend: 0x0, symName: _ggml_quantize_mat_q8_K_4x8, symObjAddr: 0x6B4, symBinAddr: 0xD9774, symSize: 0x320 }
  - { offset: 0x2CD864, size: 0x8, addend: 0x0, symName: __Z19ggml_quantize_mat_tILx4EL9ggml_type8EEvPKfPvxx, symObjAddr: 0x9D4, symBinAddr: 0xD9A94, symSize: 0x8 }
  - { offset: 0x2CD8C4, size: 0x8, addend: 0x0, symName: __Z19ggml_quantize_mat_tILx8EL9ggml_type8EEvPKfPvxx, symObjAddr: 0x9DC, symBinAddr: 0xD9A9C, symSize: 0x8 }
  - { offset: 0x2CD924, size: 0x8, addend: 0x0, symName: __Z19ggml_quantize_mat_tILx8EL9ggml_type15EEvPKfPvxx, symObjAddr: 0x9E4, symBinAddr: 0xD9AA4, symSize: 0x8 }
  - { offset: 0x2CD984, size: 0x8, addend: 0x0, symName: _ggml_gemv_q4_0_4x4_q8_0, symObjAddr: 0x9EC, symBinAddr: 0xD9AAC, symSize: 0x290 }
  - { offset: 0x2CDB54, size: 0x8, addend: 0x0, symName: _ggml_gemv_q4_0_4x8_q8_0, symObjAddr: 0xC7C, symBinAddr: 0xD9D3C, symSize: 0x3F8 }
  - { offset: 0x2CDCE3, size: 0x8, addend: 0x0, symName: _ggml_gemv_q4_0_8x8_q8_0, symObjAddr: 0x1074, symBinAddr: 0xDA134, symSize: 0x2D8 }
  - { offset: 0x2CDEF0, size: 0x8, addend: 0x0, symName: _ggml_gemv_iq4_nl_4x4_q8_0, symObjAddr: 0x1B38, symBinAddr: 0xDABF8, symSize: 0x3B0 }
  - { offset: 0x2CE0E1, size: 0x8, addend: 0x0, symName: _ggml_gemm_q4_0_4x4_q8_0, symObjAddr: 0x1EE8, symBinAddr: 0xDAFA8, symSize: 0x5A0 }
  - { offset: 0x2CE365, size: 0x8, addend: 0x0, symName: _ggml_gemm_q4_0_4x8_q8_0, symObjAddr: 0x2488, symBinAddr: 0xDB548, symSize: 0x5EC }
  - { offset: 0x2CE590, size: 0x8, addend: 0x0, symName: _ggml_gemm_q4_0_8x8_q8_0, symObjAddr: 0x2A74, symBinAddr: 0xDBB34, symSize: 0x6DC }
  - { offset: 0x2CE7F5, size: 0x8, addend: 0x0, symName: _ggml_gemm_iq4_nl_4x4_q8_0, symObjAddr: 0x3A98, symBinAddr: 0xDCB58, symSize: 0x5BC }
  - { offset: 0x2CEA75, size: 0x8, addend: 0x0, symName: __ZL24repack_q4_0_to_q4_0_4_blP11ggml_tensoriPKvm, symObjAddr: 0x4064, symBinAddr: 0xDD124, symSize: 0x3C0 }
  - { offset: 0x2CECD0, size: 0x8, addend: 0x0, symName: __ZN4ggml3cpu6repack6repackI10block_q4_0Lx8ELx4EEEiP11ggml_tensorPKvm, symObjAddr: 0x4424, symBinAddr: 0xDD4E4, symSize: 0x10 }
  - { offset: 0x2CF2A1, size: 0x8, addend: 0x0, symName: __ZN4ggml3cpu6repack13tensor_traitsI10block_q4_0Lx4ELx4EL9ggml_type8EED1Ev, symObjAddr: 0x5218, symBinAddr: 0xDE2D8, symSize: 0x4 }
  - { offset: 0x2CF2C5, size: 0x8, addend: 0x0, symName: __ZN4ggml3cpu6repack13tensor_traitsI10block_q4_0Lx4ELx4EL9ggml_type8EED1Ev, symObjAddr: 0x5218, symBinAddr: 0xDE2D8, symSize: 0x4 }
  - { offset: 0x2CF2E3, size: 0x8, addend: 0x0, symName: __ZN4ggml3cpu6repack13tensor_traitsI10block_q4_0Lx4ELx4EL9ggml_type8EED1Ev, symObjAddr: 0x5218, symBinAddr: 0xDE2D8, symSize: 0x4 }
  - { offset: 0x2CF323, size: 0x8, addend: 0x0, symName: __ZN4ggml3cpu6repack13tensor_traitsI10block_q4_0Lx8ELx4EL9ggml_type8EED1Ev, symObjAddr: 0x521C, symBinAddr: 0xDE2DC, symSize: 0x4 }
  - { offset: 0x2CF347, size: 0x8, addend: 0x0, symName: __ZN4ggml3cpu6repack13tensor_traitsI10block_q4_0Lx8ELx4EL9ggml_type8EED1Ev, symObjAddr: 0x521C, symBinAddr: 0xDE2DC, symSize: 0x4 }
  - { offset: 0x2CF365, size: 0x8, addend: 0x0, symName: __ZN4ggml3cpu6repack13tensor_traitsI10block_q4_0Lx8ELx4EL9ggml_type8EED1Ev, symObjAddr: 0x521C, symBinAddr: 0xDE2DC, symSize: 0x4 }
  - { offset: 0x2CF3A5, size: 0x8, addend: 0x0, symName: __ZN4ggml3cpu6repack13tensor_traitsI10block_q4_0Lx8ELx8EL9ggml_type8EED1Ev, symObjAddr: 0x5220, symBinAddr: 0xDE2E0, symSize: 0x4 }
  - { offset: 0x2CF3C9, size: 0x8, addend: 0x0, symName: __ZN4ggml3cpu6repack13tensor_traitsI10block_q4_0Lx8ELx8EL9ggml_type8EED1Ev, symObjAddr: 0x5220, symBinAddr: 0xDE2E0, symSize: 0x4 }
  - { offset: 0x2CF3E7, size: 0x8, addend: 0x0, symName: __ZN4ggml3cpu6repack13tensor_traitsI10block_q4_0Lx8ELx8EL9ggml_type8EED1Ev, symObjAddr: 0x5220, symBinAddr: 0xDE2E0, symSize: 0x4 }
  - { offset: 0x2CF427, size: 0x8, addend: 0x0, symName: __ZN4ggml3cpu6repack13tensor_traitsI10block_q4_KLx8ELx8EL9ggml_type15EED1Ev, symObjAddr: 0x5224, symBinAddr: 0xDE2E4, symSize: 0x4 }
  - { offset: 0x2CF44B, size: 0x8, addend: 0x0, symName: __ZN4ggml3cpu6repack13tensor_traitsI10block_q4_KLx8ELx8EL9ggml_type15EED1Ev, symObjAddr: 0x5224, symBinAddr: 0xDE2E4, symSize: 0x4 }
  - { offset: 0x2CF469, size: 0x8, addend: 0x0, symName: __ZN4ggml3cpu6repack13tensor_traitsI10block_q4_KLx8ELx8EL9ggml_type15EED1Ev, symObjAddr: 0x5224, symBinAddr: 0xDE2E4, symSize: 0x4 }
  - { offset: 0x2CF4A9, size: 0x8, addend: 0x0, symName: __ZN4ggml3cpu6repack13tensor_traitsI12block_iq4_nlLx4ELx4EL9ggml_type8EED1Ev, symObjAddr: 0x5228, symBinAddr: 0xDE2E8, symSize: 0x4 }
  - { offset: 0x2CF4CD, size: 0x8, addend: 0x0, symName: __ZN4ggml3cpu6repack13tensor_traitsI12block_iq4_nlLx4ELx4EL9ggml_type8EED1Ev, symObjAddr: 0x5228, symBinAddr: 0xDE2E8, symSize: 0x4 }
  - { offset: 0x2CF4EB, size: 0x8, addend: 0x0, symName: __ZN4ggml3cpu6repack13tensor_traitsI12block_iq4_nlLx4ELx4EL9ggml_type8EED1Ev, symObjAddr: 0x5228, symBinAddr: 0xDE2E8, symSize: 0x4 }
  - { offset: 0x2CF571, size: 0x8, addend: 0x0, symName: __ZL44ggml_backend_cpu_repack_buffer_type_get_nameP24ggml_backend_buffer_type, symObjAddr: 0x5300, symBinAddr: 0xDE3C0, symSize: 0xC }
  - { offset: 0x2CF59D, size: 0x8, addend: 0x0, symName: __ZL48ggml_backend_cpu_repack_buffer_type_alloc_bufferP24ggml_backend_buffer_typem, symObjAddr: 0x530C, symBinAddr: 0xDE3CC, symSize: 0x50 }
  - { offset: 0x2CF638, size: 0x8, addend: 0x0, symName: __ZL49ggml_backend_cpu_repack_buffer_type_get_alignmentP24ggml_backend_buffer_type, symObjAddr: 0x535C, symBinAddr: 0xDE41C, symSize: 0x8 }
  - { offset: 0x2CF681, size: 0x8, addend: 0x0, symName: __ZN4ggml3cpu6repack13tensor_traitsI10block_q4_0Lx4ELx4EL9ggml_type8EED0Ev, symObjAddr: 0x5364, symBinAddr: 0xDE424, symSize: 0x14 }
  - { offset: 0x2CF70A, size: 0x8, addend: 0x0, symName: __ZN4ggml3cpu6repack13tensor_traitsI10block_q4_0Lx4ELx4EL9ggml_type8EE9work_sizeEiPK11ggml_tensorRm, symObjAddr: 0x5378, symBinAddr: 0xDE438, symSize: 0xA8 }
  - { offset: 0x2CF7D1, size: 0x8, addend: 0x0, symName: __ZN4ggml3cpu6repack13tensor_traitsI10block_q4_0Lx4ELx4EL9ggml_type8EE15compute_forwardEP19ggml_compute_paramsP11ggml_tensor, symObjAddr: 0x5420, symBinAddr: 0xDE4E0, symSize: 0x48 }
  - { offset: 0x2CF836, size: 0x8, addend: 0x0, symName: __ZN4ggml3cpu6repack13tensor_traitsI10block_q4_0Lx4ELx4EL9ggml_type8EE15forward_mul_matEP19ggml_compute_paramsP11ggml_tensor, symObjAddr: 0x5EB0, symBinAddr: 0xDEF70, symSize: 0x480 }
  - { offset: 0x2CFDA3, size: 0x8, addend: 0x0, symName: __ZN4ggml3cpu6repack13tensor_traitsI10block_q4_0Lx4ELx4EL9ggml_type8EE18forward_mul_mat_idEP19ggml_compute_paramsP11ggml_tensor, symObjAddr: 0x6330, symBinAddr: 0xDF3F0, symSize: 0x608 }
  - { offset: 0x2CFDB7, size: 0x8, addend: 0x0, symName: __ZN4ggml3cpu6repack13tensor_traitsI10block_q4_0Lx4ELx4EL9ggml_type8EE6repackEP11ggml_tensorPKvm, symObjAddr: 0x5468, symBinAddr: 0xDE528, symSize: 0x78 }
  - { offset: 0x2CFEC1, size: 0x8, addend: 0x0, symName: __ZN4ggml3cpu6repack13tensor_traitsI10block_q4_0Lx8ELx4EL9ggml_type8EED0Ev, symObjAddr: 0x54E0, symBinAddr: 0xDE5A0, symSize: 0x14 }
  - { offset: 0x2CFF4A, size: 0x8, addend: 0x0, symName: __ZN4ggml3cpu6repack13tensor_traitsI10block_q4_0Lx8ELx4EL9ggml_type8EE9work_sizeEiPK11ggml_tensorRm, symObjAddr: 0x54F4, symBinAddr: 0xDE5B4, symSize: 0xA8 }
  - { offset: 0x2CFFE6, size: 0x8, addend: 0x0, symName: __ZN4ggml3cpu6repack13tensor_traitsI10block_q4_0Lx8ELx4EL9ggml_type8EE15compute_forwardEP19ggml_compute_paramsP11ggml_tensor, symObjAddr: 0x559C, symBinAddr: 0xDE65C, symSize: 0x48 }
  - { offset: 0x2D004B, size: 0x8, addend: 0x0, symName: __ZN4ggml3cpu6repack13tensor_traitsI10block_q4_0Lx8ELx4EL9ggml_type8EE15forward_mul_matEP19ggml_compute_paramsP11ggml_tensor, symObjAddr: 0x6938, symBinAddr: 0xDF9F8, symSize: 0x480 }
  - { offset: 0x2D05B8, size: 0x8, addend: 0x0, symName: __ZN4ggml3cpu6repack13tensor_traitsI10block_q4_0Lx8ELx4EL9ggml_type8EE18forward_mul_mat_idEP19ggml_compute_paramsP11ggml_tensor, symObjAddr: 0x6DB8, symBinAddr: 0xDFE78, symSize: 0x608 }
  - { offset: 0x2D05CC, size: 0x8, addend: 0x0, symName: __ZN4ggml3cpu6repack13tensor_traitsI10block_q4_0Lx8ELx4EL9ggml_type8EE6repackEP11ggml_tensorPKvm, symObjAddr: 0x55E4, symBinAddr: 0xDE6A4, symSize: 0x7C }
  - { offset: 0x2D06B0, size: 0x8, addend: 0x0, symName: __ZN4ggml3cpu6repack13tensor_traitsI10block_q4_0Lx8ELx8EL9ggml_type8EED0Ev, symObjAddr: 0x5660, symBinAddr: 0xDE720, symSize: 0x14 }
  - { offset: 0x2D0739, size: 0x8, addend: 0x0, symName: __ZN4ggml3cpu6repack13tensor_traitsI10block_q4_0Lx8ELx8EL9ggml_type8EE9work_sizeEiPK11ggml_tensorRm, symObjAddr: 0x5674, symBinAddr: 0xDE734, symSize: 0xA8 }
  - { offset: 0x2D07D5, size: 0x8, addend: 0x0, symName: __ZN4ggml3cpu6repack13tensor_traitsI10block_q4_0Lx8ELx8EL9ggml_type8EE15compute_forwardEP19ggml_compute_paramsP11ggml_tensor, symObjAddr: 0x571C, symBinAddr: 0xDE7DC, symSize: 0x48 }
  - { offset: 0x2D083A, size: 0x8, addend: 0x0, symName: __ZN4ggml3cpu6repack13tensor_traitsI10block_q4_0Lx8ELx8EL9ggml_type8EE15forward_mul_matEP19ggml_compute_paramsP11ggml_tensor, symObjAddr: 0x73C0, symBinAddr: 0xE0480, symSize: 0x480 }
  - { offset: 0x2D0DA7, size: 0x8, addend: 0x0, symName: __ZN4ggml3cpu6repack13tensor_traitsI10block_q4_0Lx8ELx8EL9ggml_type8EE18forward_mul_mat_idEP19ggml_compute_paramsP11ggml_tensor, symObjAddr: 0x7840, symBinAddr: 0xE0900, symSize: 0x608 }
  - { offset: 0x2D0DBB, size: 0x8, addend: 0x0, symName: __ZN4ggml3cpu6repack13tensor_traitsI10block_q4_0Lx8ELx8EL9ggml_type8EE6repackEP11ggml_tensorPKvm, symObjAddr: 0x5764, symBinAddr: 0xDE824, symSize: 0x74 }
  - { offset: 0x2D0E63, size: 0x8, addend: 0x0, symName: __ZN4ggml3cpu6repack13tensor_traitsI10block_q4_KLx8ELx8EL9ggml_type15EED0Ev, symObjAddr: 0x57D8, symBinAddr: 0xDE898, symSize: 0x14 }
  - { offset: 0x2D0EEC, size: 0x8, addend: 0x0, symName: __ZN4ggml3cpu6repack13tensor_traitsI10block_q4_KLx8ELx8EL9ggml_type15EE9work_sizeEiPK11ggml_tensorRm, symObjAddr: 0x57EC, symBinAddr: 0xDE8AC, symSize: 0xA8 }
  - { offset: 0x2D0F88, size: 0x8, addend: 0x0, symName: __ZN4ggml3cpu6repack13tensor_traitsI10block_q4_KLx8ELx8EL9ggml_type15EE15compute_forwardEP19ggml_compute_paramsP11ggml_tensor, symObjAddr: 0x5894, symBinAddr: 0xDE954, symSize: 0x48 }
  - { offset: 0x2D0FED, size: 0x8, addend: 0x0, symName: __ZN4ggml3cpu6repack13tensor_traitsI10block_q4_KLx8ELx8EL9ggml_type15EE15forward_mul_matEP19ggml_compute_paramsP11ggml_tensor, symObjAddr: 0x7E48, symBinAddr: 0xE0F08, symSize: 0x480 }
  - { offset: 0x2D155A, size: 0x8, addend: 0x0, symName: __ZN4ggml3cpu6repack13tensor_traitsI10block_q4_KLx8ELx8EL9ggml_type15EE18forward_mul_mat_idEP19ggml_compute_paramsP11ggml_tensor, symObjAddr: 0x82C8, symBinAddr: 0xE1388, symSize: 0x608 }
  - { offset: 0x2D156E, size: 0x8, addend: 0x0, symName: __ZN4ggml3cpu6repack13tensor_traitsI10block_q4_KLx8ELx8EL9ggml_type15EE6repackEP11ggml_tensorPKvm, symObjAddr: 0x58DC, symBinAddr: 0xDE99C, symSize: 0x74 }
  - { offset: 0x2D1616, size: 0x8, addend: 0x0, symName: __ZN4ggml3cpu6repack13tensor_traitsI12block_iq4_nlLx4ELx4EL9ggml_type8EED0Ev, symObjAddr: 0x5950, symBinAddr: 0xDEA10, symSize: 0x14 }
  - { offset: 0x2D169F, size: 0x8, addend: 0x0, symName: __ZN4ggml3cpu6repack13tensor_traitsI12block_iq4_nlLx4ELx4EL9ggml_type8EE9work_sizeEiPK11ggml_tensorRm, symObjAddr: 0x5964, symBinAddr: 0xDEA24, symSize: 0xA8 }
  - { offset: 0x2D173B, size: 0x8, addend: 0x0, symName: __ZN4ggml3cpu6repack13tensor_traitsI12block_iq4_nlLx4ELx4EL9ggml_type8EE15compute_forwardEP19ggml_compute_paramsP11ggml_tensor, symObjAddr: 0x5A0C, symBinAddr: 0xDEACC, symSize: 0x48 }
  - { offset: 0x2D17A0, size: 0x8, addend: 0x0, symName: __ZN4ggml3cpu6repack13tensor_traitsI12block_iq4_nlLx4ELx4EL9ggml_type8EE15forward_mul_matEP19ggml_compute_paramsP11ggml_tensor, symObjAddr: 0x88D0, symBinAddr: 0xE1990, symSize: 0x480 }
  - { offset: 0x2D1D0D, size: 0x8, addend: 0x0, symName: __ZN4ggml3cpu6repack13tensor_traitsI12block_iq4_nlLx4ELx4EL9ggml_type8EE18forward_mul_mat_idEP19ggml_compute_paramsP11ggml_tensor, symObjAddr: 0x8D50, symBinAddr: 0xE1E10, symSize: 0x608 }
  - { offset: 0x2D1D21, size: 0x8, addend: 0x0, symName: __ZN4ggml3cpu6repack13tensor_traitsI12block_iq4_nlLx4ELx4EL9ggml_type8EE6repackEP11ggml_tensorPKvm, symObjAddr: 0x5A54, symBinAddr: 0xDEB14, symSize: 0x74 }
  - { offset: 0x2D1DAC, size: 0x8, addend: 0x0, symName: __ZL42ggml_backend_cpu_repack_buffer_init_tensorP19ggml_backend_bufferP11ggml_tensor, symObjAddr: 0x5AC8, symBinAddr: 0xDEB88, symSize: 0x2C }
  - { offset: 0x2D1E00, size: 0x8, addend: 0x0, symName: __ZL35ggml_repack_get_optimal_repack_typePK11ggml_tensor, symObjAddr: 0x5BC8, symBinAddr: 0xDEC88, symSize: 0x138 }
  - { offset: 0x2D1ECB, size: 0x8, addend: 0x0, symName: __ZL41ggml_backend_cpu_repack_buffer_set_tensorP19ggml_backend_bufferP11ggml_tensorPKvmm, symObjAddr: 0x5AF4, symBinAddr: 0xDEBB4, symSize: 0xD4 }
  - { offset: 0x2D1FBA, size: 0x8, addend: 0x0, symName: __ZL35ggml_repack_get_optimal_repack_typePK11ggml_tensor, symObjAddr: 0x5BC8, symBinAddr: 0xDEC88, symSize: 0x138 }
  - { offset: 0x2D2046, size: 0x8, addend: 0x0, symName: __ZN4ggml3cpu6repack17extra_buffer_typeD1Ev, symObjAddr: 0x5D00, symBinAddr: 0xDEDC0, symSize: 0x4 }
  - { offset: 0x2D206A, size: 0x8, addend: 0x0, symName: __ZN4ggml3cpu6repack17extra_buffer_typeD1Ev, symObjAddr: 0x5D00, symBinAddr: 0xDEDC0, symSize: 0x4 }
  - { offset: 0x2D20A3, size: 0x8, addend: 0x0, symName: __ZN4ggml3cpu6repack17extra_buffer_typeD0Ev, symObjAddr: 0x5D04, symBinAddr: 0xDEDC4, symSize: 0x14 }
  - { offset: 0x2D210D, size: 0x8, addend: 0x0, symName: __ZN4ggml3cpu6repack17extra_buffer_type11supports_opEP19ggml_backend_devicePK11ggml_tensor, symObjAddr: 0x5D18, symBinAddr: 0xDEDD8, symSize: 0x128 }
  - { offset: 0x2D21E7, size: 0x8, addend: 0x0, symName: __ZN4ggml3cpu6repack17extra_buffer_type17get_tensor_traitsEPK11ggml_tensor, symObjAddr: 0x5E40, symBinAddr: 0xDEF00, symSize: 0x70 }
  - { offset: 0x2D2395, size: 0x8, addend: 0x0, symName: __GLOBAL__sub_I_repack.cpp, symObjAddr: 0x9370, symBinAddr: 0xE2418, symSize: 0x88 }
  - { offset: 0x2D5087, size: 0x8, addend: 0x0, symName: __ZN4ggml3cpu13tensor_traitsD2Ev, symObjAddr: 0x0, symBinAddr: 0xE24A0, symSize: 0x4 }
  - { offset: 0x2D68AE, size: 0x8, addend: 0x0, symName: __ZN4ggml3cpu13tensor_traitsD2Ev, symObjAddr: 0x0, symBinAddr: 0xE24A0, symSize: 0x4 }
  - { offset: 0x2D68D9, size: 0x8, addend: 0x0, symName: __ZN4ggml3cpu13tensor_traitsD1Ev, symObjAddr: 0x4, symBinAddr: 0xE24A4, symSize: 0x4 }
  - { offset: 0x2D6902, size: 0x8, addend: 0x0, symName: __ZN4ggml3cpu13tensor_traitsD0Ev, symObjAddr: 0x8, symBinAddr: 0xE24A8, symSize: 0x4 }
  - { offset: 0x2D692B, size: 0x8, addend: 0x0, symName: __ZN4ggml3cpu17extra_buffer_typeD2Ev, symObjAddr: 0xC, symBinAddr: 0xE24AC, symSize: 0x4 }
  - { offset: 0x2D6956, size: 0x8, addend: 0x0, symName: __ZN4ggml3cpu17extra_buffer_typeD1Ev, symObjAddr: 0x10, symBinAddr: 0xE24B0, symSize: 0x4 }
  - { offset: 0x2D697F, size: 0x8, addend: 0x0, symName: __ZN4ggml3cpu17extra_buffer_typeD0Ev, symObjAddr: 0x14, symBinAddr: 0xE24B4, symSize: 0x4 }
  - { offset: 0x2D69E2, size: 0x8, addend: 0x0, symName: _ggml_cpu_extra_compute_forward, symObjAddr: 0x18, symBinAddr: 0xE24B8, symSize: 0x94 }
  - { offset: 0x2D6B23, size: 0x8, addend: 0x0, symName: _ggml_cpu_extra_work_size, symObjAddr: 0xAC, symBinAddr: 0xE254C, symSize: 0xA8 }
  - { offset: 0x2D8B6E, size: 0x8, addend: 0x0, symName: _ggml_compute_forward_abs, symObjAddr: 0x0, symBinAddr: 0xE25F4, symSize: 0xAAC }
  - { offset: 0x2DA4FE, size: 0x8, addend: 0x0, symName: _ggml_compute_forward_abs, symObjAddr: 0x0, symBinAddr: 0xE25F4, symSize: 0xAAC }
  - { offset: 0x2DAF93, size: 0x8, addend: 0x0, symName: _ggml_compute_forward_sgn, symObjAddr: 0xAAC, symBinAddr: 0xE30A0, symSize: 0xCA0 }
  - { offset: 0x2DBBE2, size: 0x8, addend: 0x0, symName: _ggml_compute_forward_sgn, symObjAddr: 0xAAC, symBinAddr: 0xE30A0, symSize: 0xCA0 }
  - { offset: 0x2DC6CE, size: 0x8, addend: 0x0, symName: _ggml_compute_forward_neg, symObjAddr: 0x174C, symBinAddr: 0xE3D40, symSize: 0xAEC }
  - { offset: 0x2DD0E1, size: 0x8, addend: 0x0, symName: _ggml_compute_forward_neg, symObjAddr: 0x174C, symBinAddr: 0xE3D40, symSize: 0xAEC }
  - { offset: 0x2DDBBD, size: 0x8, addend: 0x0, symName: _ggml_compute_forward_step, symObjAddr: 0x2238, symBinAddr: 0xE482C, symSize: 0xB64 }
  - { offset: 0x2DE587, size: 0x8, addend: 0x0, symName: _ggml_compute_forward_step, symObjAddr: 0x2238, symBinAddr: 0xE482C, symSize: 0xB64 }
  - { offset: 0x2DF073, size: 0x8, addend: 0x0, symName: _ggml_compute_forward_tanh, symObjAddr: 0x2D9C, symBinAddr: 0xE5390, symSize: 0x750 }
  - { offset: 0x2DFA3D, size: 0x8, addend: 0x0, symName: _ggml_compute_forward_tanh, symObjAddr: 0x2D9C, symBinAddr: 0xE5390, symSize: 0x750 }
  - { offset: 0x2E05AB, size: 0x8, addend: 0x0, symName: _ggml_compute_forward_elu, symObjAddr: 0x34EC, symBinAddr: 0xE5AE0, symSize: 0x7B0 }
  - { offset: 0x2E0F75, size: 0x8, addend: 0x0, symName: _ggml_compute_forward_elu, symObjAddr: 0x34EC, symBinAddr: 0xE5AE0, symSize: 0x7B0 }
  - { offset: 0x2E1B05, size: 0x8, addend: 0x0, symName: _ggml_compute_forward_relu, symObjAddr: 0x3C9C, symBinAddr: 0xE6290, symSize: 0xB0C }
  - { offset: 0x2E24E2, size: 0x8, addend: 0x0, symName: _ggml_compute_forward_relu, symObjAddr: 0x3C9C, symBinAddr: 0xE6290, symSize: 0xB0C }
  - { offset: 0x2E2FEA, size: 0x8, addend: 0x0, symName: _ggml_compute_forward_sigmoid, symObjAddr: 0x47A8, symBinAddr: 0xE6D9C, symSize: 0xFC0 }
  - { offset: 0x2E39B4, size: 0x8, addend: 0x0, symName: _ggml_compute_forward_sigmoid, symObjAddr: 0x47A8, symBinAddr: 0xE6D9C, symSize: 0xFC0 }
  - { offset: 0x2E4532, size: 0x8, addend: 0x0, symName: _ggml_compute_forward_hardsigmoid, symObjAddr: 0x5768, symBinAddr: 0xE7D5C, symSize: 0xC60 }
  - { offset: 0x2E4EFC, size: 0x8, addend: 0x0, symName: _ggml_compute_forward_hardsigmoid, symObjAddr: 0x5768, symBinAddr: 0xE7D5C, symSize: 0xC60 }
  - { offset: 0x2E5A56, size: 0x8, addend: 0x0, symName: _ggml_compute_forward_exp, symObjAddr: 0x63C8, symBinAddr: 0xE89BC, symSize: 0xEA4 }
  - { offset: 0x2E6420, size: 0x8, addend: 0x0, symName: _ggml_compute_forward_exp, symObjAddr: 0x63C8, symBinAddr: 0xE89BC, symSize: 0xEA4 }
  - { offset: 0x2E6FB4, size: 0x8, addend: 0x0, symName: _ggml_compute_forward_hardswish, symObjAddr: 0x726C, symBinAddr: 0xE9860, symSize: 0xCB8 }
  - { offset: 0x2E797E, size: 0x8, addend: 0x0, symName: _ggml_compute_forward_hardswish, symObjAddr: 0x726C, symBinAddr: 0xE9860, symSize: 0xCB8 }
  - { offset: 0x2E84D8, size: 0x8, addend: 0x0, symName: _ggml_compute_forward_sqr, symObjAddr: 0x7F24, symBinAddr: 0xEA518, symSize: 0xAF8 }
  - { offset: 0x2E8EA2, size: 0x8, addend: 0x0, symName: _ggml_compute_forward_sqr, symObjAddr: 0x7F24, symBinAddr: 0xEA518, symSize: 0xAF8 }
  - { offset: 0x2E99AA, size: 0x8, addend: 0x0, symName: _ggml_compute_forward_sqrt, symObjAddr: 0x8A1C, symBinAddr: 0xEB010, symSize: 0xACC }
  - { offset: 0x2EA374, size: 0x8, addend: 0x0, symName: _ggml_compute_forward_sqrt, symObjAddr: 0x8A1C, symBinAddr: 0xEB010, symSize: 0xACC }
  - { offset: 0x2EAECE, size: 0x8, addend: 0x0, symName: _ggml_compute_forward_sin, symObjAddr: 0x94E8, symBinAddr: 0xEBADC, symSize: 0xEA4 }
  - { offset: 0x2EB898, size: 0x8, addend: 0x0, symName: _ggml_compute_forward_sin, symObjAddr: 0x94E8, symBinAddr: 0xEBADC, symSize: 0xEA4 }
  - { offset: 0x2EC42C, size: 0x8, addend: 0x0, symName: _ggml_compute_forward_cos, symObjAddr: 0xA38C, symBinAddr: 0xEC980, symSize: 0xEA4 }
  - { offset: 0x2ECDF6, size: 0x8, addend: 0x0, symName: _ggml_compute_forward_cos, symObjAddr: 0xA38C, symBinAddr: 0xEC980, symSize: 0xEA4 }
  - { offset: 0x2ED98A, size: 0x8, addend: 0x0, symName: _ggml_compute_forward_log, symObjAddr: 0xB230, symBinAddr: 0xED824, symSize: 0xEA4 }
  - { offset: 0x2EE354, size: 0x8, addend: 0x0, symName: _ggml_compute_forward_log, symObjAddr: 0xB230, symBinAddr: 0xED824, symSize: 0xEA4 }
  - { offset: 0x2F0C1A, size: 0x8, addend: 0x0, symName: _ggml_vec_dot_f32, symObjAddr: 0x0, symBinAddr: 0xEE6C8, symSize: 0x190 }
  - { offset: 0x2F0C34, size: 0x8, addend: 0x0, symName: _ggml_table_gelu_f16, symObjAddr: 0x9190, symBinAddr: 0x1A4D38, symSize: 0x0 }
  - { offset: 0x2F0C69, size: 0x8, addend: 0x0, symName: _ggml_table_gelu_quick_f16, symObjAddr: 0x29190, symBinAddr: 0x1C4D38, symSize: 0x0 }
  - { offset: 0x2F0CB7, size: 0x8, addend: 0x0, symName: _ggml_vec_dot_f32, symObjAddr: 0x0, symBinAddr: 0xEE6C8, symSize: 0x190 }
  - { offset: 0x2F0E81, size: 0x8, addend: 0x0, symName: _ggml_vec_dot_bf16, symObjAddr: 0x190, symBinAddr: 0xEE858, symSize: 0x158 }
  - { offset: 0x2F0F98, size: 0x8, addend: 0x0, symName: _ggml_vec_dot_f16, symObjAddr: 0x2E8, symBinAddr: 0xEE9B0, symSize: 0x1D4 }
  - { offset: 0x2F12BD, size: 0x8, addend: 0x0, symName: _ggml_vec_silu_f32, symObjAddr: 0x4BC, symBinAddr: 0xEEB84, symSize: 0x2B4 }
  - { offset: 0x2F1407, size: 0x8, addend: 0x0, symName: _ggml_vec_soft_max_f32, symObjAddr: 0x770, symBinAddr: 0xEEE38, symSize: 0x368 }
  - { offset: 0x2F1535, size: 0x8, addend: 0x0, symName: _ggml_vec_log_soft_max_f32, symObjAddr: 0xAD8, symBinAddr: 0xEF1A0, symSize: 0x1E8 }
  - { offset: 0x2F4234, size: 0x8, addend: 0x0, symName: '-[ggml_metal_heap_ptr data]', symObjAddr: 0x0, symBinAddr: 0xEF388, symSize: 0x8 }
  - { offset: 0x2F4242, size: 0x8, addend: 0x0, symName: _ggml_backend_metal_buffer_type, symObjAddr: 0x10, symBinAddr: 0xEF398, symSize: 0xC }
  - { offset: 0x2F426A, size: 0x8, addend: 0x0, symName: _ggml_backend_metal_buffer_type.ggml_backend_buffer_type_metal, symObjAddr: 0x15820, symBinAddr: 0x1384D8, symSize: 0x0 }
  - { offset: 0x2F516A, size: 0x8, addend: 0x0, symName: __MergedGlobals, symObjAddr: 0x5C4D8, symBinAddr: 0x1A4B50, symSize: 0x0 }
  - { offset: 0x2F5180, size: 0x8, addend: 0x0, symName: __MergedGlobals, symObjAddr: 0x5C4D8, symBinAddr: 0x1A4B50, symSize: 0x0 }
  - { offset: 0x2F5198, size: 0x8, addend: 0x0, symName: __MergedGlobals, symObjAddr: 0x5C4D8, symBinAddr: 0x1A4B50, symSize: 0x0 }
  - { offset: 0x2F5294, size: 0x8, addend: 0x0, symName: _ggml_backend_metal_buffer_i, symObjAddr: 0x1B680, symBinAddr: 0x132E08, symSize: 0x0 }
  - { offset: 0x2F52AB, size: 0x8, addend: 0x0, symName: _ggml_backend_metal_i, symObjAddr: 0x1B6C8, symBinAddr: 0x132E50, symSize: 0x0 }
  - { offset: 0x2F52C2, size: 0x8, addend: 0x0, symName: _ggml_backend_metal_reg_i, symObjAddr: 0x1B730, symBinAddr: 0x132EB8, symSize: 0x0 }
  - { offset: 0x2F52D9, size: 0x8, addend: 0x0, symName: _g_ggml_backend_metal_features, symObjAddr: 0x158B0, symBinAddr: 0x138568, symSize: 0x0 }
  - { offset: 0x2F5322, size: 0x8, addend: 0x0, symName: _ggml_backend_metal_device_i, symObjAddr: 0x1B750, symBinAddr: 0x132ED8, symSize: 0x0 }
  - { offset: 0x2F5A67, size: 0x8, addend: 0x0, symName: '-[ggml_metal_heap_ptr data]', symObjAddr: 0x0, symBinAddr: 0xEF388, symSize: 0x8 }
  - { offset: 0x2F5A9F, size: 0x8, addend: 0x0, symName: '-[ggml_metal_heap_ptr setData:]', symObjAddr: 0x8, symBinAddr: 0xEF390, symSize: 0x8 }
  - { offset: 0x2F5ADD, size: 0x8, addend: 0x0, symName: _ggml_backend_metal_buffer_type_get_name, symObjAddr: 0x1C, symBinAddr: 0xEF3A4, symSize: 0xC }
  - { offset: 0x2F5B58, size: 0x8, addend: 0x0, symName: _ggml_backend_metal_buffer_type_alloc_buffer, symObjAddr: 0x28, symBinAddr: 0xEF3B0, symSize: 0x1B8 }
  - { offset: 0x2F5D43, size: 0x8, addend: 0x0, symName: _ggml_backend_metal_device_acq, symObjAddr: 0x470, symBinAddr: 0xEF7F8, symSize: 0xBC }
  - { offset: 0x2F5DE5, size: 0x8, addend: 0x0, symName: _ggml_backend_metal_buffer_type_get_alignment, symObjAddr: 0x1E0, symBinAddr: 0xEF568, symSize: 0x8 }
  - { offset: 0x2F5E0E, size: 0x8, addend: 0x0, symName: _ggml_backend_metal_buffer_type_get_max_size, symObjAddr: 0x1E8, symBinAddr: 0xEF570, symSize: 0x80 }
  - { offset: 0x2F5E84, size: 0x8, addend: 0x0, symName: _ggml_backend_metal_buffer_type_is_host, symObjAddr: 0x268, symBinAddr: 0xEF5F0, symSize: 0x8 }
  - { offset: 0x2F5EAD, size: 0x8, addend: 0x0, symName: _ggml_backend_metal_buffer_from_ptr, symObjAddr: 0x270, symBinAddr: 0xEF5F8, symSize: 0x200 }
  - { offset: 0x2F60D1, size: 0x8, addend: 0x0, symName: _ggml_backend_metal_init, symObjAddr: 0x52C, symBinAddr: 0xEF8B4, symSize: 0x1FC }
  - { offset: 0x2F6206, size: 0x8, addend: 0x0, symName: _ggml_backend_metal_reg, symObjAddr: 0x728, symBinAddr: 0xEFAB0, symSize: 0xBC }
  - { offset: 0x2F6233, size: 0x8, addend: 0x0, symName: _ggml_metal_init, symObjAddr: 0x7E4, symBinAddr: 0xEFB6C, symSize: 0xBFE0 }
  - { offset: 0x2FE94C, size: 0x8, addend: 0x0, symName: _ggml_backend_metal_reg, symObjAddr: 0x728, symBinAddr: 0xEFAB0, symSize: 0xBC }
  - { offset: 0x2FEC5D, size: 0x8, addend: 0x0, symName: _ggml_backend_is_metal, symObjAddr: 0xC7C4, symBinAddr: 0xFBB4C, symSize: 0x18 }
  - { offset: 0x2FEC8A, size: 0x8, addend: 0x0, symName: _ggml_backend_metal_set_abort_callback, symObjAddr: 0xC7DC, symBinAddr: 0xFBB64, symSize: 0x7C }
  - { offset: 0x2FED18, size: 0x8, addend: 0x0, symName: _ggml_backend_metal_supports_family, symObjAddr: 0xC858, symBinAddr: 0xFBBE0, symSize: 0x78 }
  - { offset: 0x2FED2C, size: 0x8, addend: 0x0, symName: _ggml_backend_metal_supports_family, symObjAddr: 0xC858, symBinAddr: 0xFBBE0, symSize: 0x78 }
  - { offset: 0x2FEDAD, size: 0x8, addend: 0x0, symName: _ggml_backend_metal_capture_next_compute, symObjAddr: 0xC8D0, symBinAddr: 0xFBC58, symSize: 0x6C }
  - { offset: 0x2FEDC1, size: 0x8, addend: 0x0, symName: _ggml_backend_metal_capture_next_compute, symObjAddr: 0xC8D0, symBinAddr: 0xFBC58, symSize: 0x6C }
  - { offset: 0x2FEE2D, size: 0x8, addend: 0x0, symName: _ggml_backend_metal_buffer_from_ptr_type_get_name, symObjAddr: 0xC93C, symBinAddr: 0xFBCC4, symSize: 0xC }
  - { offset: 0x2FEE41, size: 0x8, addend: 0x0, symName: _ggml_backend_metal_buffer_from_ptr_type_get_name, symObjAddr: 0xC93C, symBinAddr: 0xFBCC4, symSize: 0xC }
  - { offset: 0x2FEE6A, size: 0x8, addend: 0x0, symName: _ggml_backend_metal_buffer_free_buffer, symObjAddr: 0xC948, symBinAddr: 0xFBCD0, symSize: 0xA4 }
  - { offset: 0x2FEEFF, size: 0x8, addend: 0x0, symName: _ggml_backend_metal_buffer_get_base, symObjAddr: 0xC9EC, symBinAddr: 0xFBD74, symSize: 0xC }
  - { offset: 0x2FEF3D, size: 0x8, addend: 0x0, symName: _ggml_backend_metal_buffer_memset_tensor, symObjAddr: 0xC9F8, symBinAddr: 0xFBD80, symSize: 0x14 }
  - { offset: 0x2FEFA4, size: 0x8, addend: 0x0, symName: _ggml_backend_metal_buffer_set_tensor, symObjAddr: 0xCA0C, symBinAddr: 0xFBD94, symSize: 0x14 }
  - { offset: 0x2FF00B, size: 0x8, addend: 0x0, symName: _ggml_backend_metal_buffer_get_tensor, symObjAddr: 0xCA20, symBinAddr: 0xFBDA8, symSize: 0x14 }
  - { offset: 0x2FF072, size: 0x8, addend: 0x0, symName: _ggml_backend_metal_buffer_cpy_tensor, symObjAddr: 0xCA34, symBinAddr: 0xFBDBC, symSize: 0x5C }
  - { offset: 0x2FF108, size: 0x8, addend: 0x0, symName: _ggml_backend_metal_buffer_clear, symObjAddr: 0xCA90, symBinAddr: 0xFBE18, symSize: 0xC }
  - { offset: 0x2FF151, size: 0x8, addend: 0x0, symName: _ggml_backend_metal_name, symObjAddr: 0xCA9C, symBinAddr: 0xFBE24, symSize: 0xC }
  - { offset: 0x2FF23A, size: 0x8, addend: 0x0, symName: _ggml_backend_metal_free, symObjAddr: 0xCAA8, symBinAddr: 0xFBE30, symSize: 0x498 }
  - { offset: 0x2FF920, size: 0x8, addend: 0x0, symName: _ggml_backend_metal_graph_compute, symObjAddr: 0xCF40, symBinAddr: 0xFC2C8, symSize: 0x35C }
  - { offset: 0x2FFB07, size: 0x8, addend: 0x0, symName: _ggml_metal_heap_reset, symObjAddr: 0xD29C, symBinAddr: 0xFC624, symSize: 0x128 }
  - { offset: 0x2FFBB6, size: 0x8, addend: 0x0, symName: ___ggml_backend_metal_set_n_cb_block_invoke, symObjAddr: 0xD3C4, symBinAddr: 0xFC74C, symSize: 0x2A8 }
  - { offset: 0x2FFE96, size: 0x8, addend: 0x0, symName: _ggml_metal_encode_node, symObjAddr: 0xD66C, symBinAddr: 0xFC9F4, symSize: 0x6E1C }
  - { offset: 0x3044CC, size: 0x8, addend: 0x0, symName: _ggml_metal_supports_op, symObjAddr: 0x14488, symBinAddr: 0x103810, symSize: 0x2E0 }
  - { offset: 0x304609, size: 0x8, addend: 0x0, symName: _ggml_metal_supports_op, symObjAddr: 0x14488, symBinAddr: 0x103810, symSize: 0x2E0 }
  - { offset: 0x30470D, size: 0x8, addend: 0x0, symName: _ggml_metal_get_buffer, symObjAddr: 0x14768, symBinAddr: 0x103AF0, symSize: 0xBC }
  - { offset: 0x30486C, size: 0x8, addend: 0x0, symName: _ggml_metal_mem_pool_alloc, symObjAddr: 0x14824, symBinAddr: 0x103BAC, symSize: 0x330 }
  - { offset: 0x304B24, size: 0x8, addend: 0x0, symName: _ggml_backend_metal_reg_get_name, symObjAddr: 0x14B54, symBinAddr: 0x103EDC, symSize: 0xC }
  - { offset: 0x304B4D, size: 0x8, addend: 0x0, symName: _ggml_backend_metal_reg_device_count, symObjAddr: 0x14B60, symBinAddr: 0x103EE8, symSize: 0x8 }
  - { offset: 0x304B76, size: 0x8, addend: 0x0, symName: _ggml_backend_metal_reg_device_get, symObjAddr: 0x14B68, symBinAddr: 0x103EF0, symSize: 0x40 }
  - { offset: 0x304BB3, size: 0x8, addend: 0x0, symName: _ggml_backend_metal_get_proc_address, symObjAddr: 0x14BA8, symBinAddr: 0x103F30, symSize: 0x30 }
  - { offset: 0x304BC7, size: 0x8, addend: 0x0, symName: _ggml_backend_metal_get_proc_address, symObjAddr: 0x14BA8, symBinAddr: 0x103F30, symSize: 0x30 }
  - { offset: 0x304C31, size: 0x8, addend: 0x0, symName: _ggml_backend_metal_get_features, symObjAddr: 0x14BD8, symBinAddr: 0x103F60, symSize: 0xC }
  - { offset: 0x304C5A, size: 0x8, addend: 0x0, symName: _ggml_backend_metal_device_get_name, symObjAddr: 0x14BE4, symBinAddr: 0x103F6C, symSize: 0xC }
  - { offset: 0x304C83, size: 0x8, addend: 0x0, symName: _ggml_backend_metal_device_get_description, symObjAddr: 0x14BF0, symBinAddr: 0x103F78, symSize: 0x68 }
  - { offset: 0x304CDB, size: 0x8, addend: 0x0, symName: _ggml_backend_metal_device_get_memory, symObjAddr: 0x14C58, symBinAddr: 0x103FE0, symSize: 0xA0 }
  - { offset: 0x304D58, size: 0x8, addend: 0x0, symName: _ggml_backend_metal_device_get_type, symObjAddr: 0x14CF8, symBinAddr: 0x104080, symSize: 0x8 }
  - { offset: 0x304DF9, size: 0x8, addend: 0x0, symName: _ggml_backend_metal_device_get_props, symObjAddr: 0x14D00, symBinAddr: 0x104088, symSize: 0xFC }
  - { offset: 0x304F08, size: 0x8, addend: 0x0, symName: _ggml_backend_metal_device_init, symObjAddr: 0x14DFC, symBinAddr: 0x104184, symSize: 0x150 }
  - { offset: 0x305028, size: 0x8, addend: 0x0, symName: _ggml_backend_metal_device_get_buffer_type, symObjAddr: 0x14F4C, symBinAddr: 0x1042D4, symSize: 0xC }
  - { offset: 0x30503C, size: 0x8, addend: 0x0, symName: _ggml_backend_metal_device_get_buffer_type, symObjAddr: 0x14F4C, symBinAddr: 0x1042D4, symSize: 0xC }
  - { offset: 0x305065, size: 0x8, addend: 0x0, symName: _ggml_backend_metal_device_buffer_from_ptr, symObjAddr: 0x14F58, symBinAddr: 0x1042E0, symSize: 0x200 }
  - { offset: 0x305232, size: 0x8, addend: 0x0, symName: _ggml_backend_metal_device_supports_op, symObjAddr: 0x15158, symBinAddr: 0x1044E0, symSize: 0x8 }
  - { offset: 0x305296, size: 0x8, addend: 0x0, symName: _ggml_backend_metal_device_supports_buft, symObjAddr: 0x15160, symBinAddr: 0x1044E8, symSize: 0x24 }
  - { offset: 0x3052CE, size: 0x8, addend: 0x0, symName: _ggml_backend_metal_device_offload_op, symObjAddr: 0x15184, symBinAddr: 0x10450C, symSize: 0x8 }
  - { offset: 0x306EAD, size: 0x8, addend: 0x0, symName: _ggml_backend_blas_reg, symObjAddr: 0xB0, symBinAddr: 0x1045C4, symSize: 0xC }
  - { offset: 0x306ED5, size: 0x8, addend: 0x0, symName: __MergedGlobals, symObjAddr: 0x1AA0, symBinAddr: 0x138598, symSize: 0x0 }
  - { offset: 0x306F4C, size: 0x8, addend: 0x0, symName: __ZL14blas_backend_i, symObjAddr: 0x16E0, symBinAddr: 0x132F70, symSize: 0x0 }
  - { offset: 0x306F5A, size: 0x8, addend: 0x0, symName: __ZL32ggml_backend_blas_reg_get_deviceP16ggml_backend_regm, symObjAddr: 0x154, symBinAddr: 0x104668, symSize: 0x70 }
  - { offset: 0x306F86, size: 0x8, addend: 0x0, symName: __MergedGlobals.46, symObjAddr: 0x398F0, symBinAddr: 0x1A4CA8, symSize: 0x0 }
  - { offset: 0x306FE7, size: 0x8, addend: 0x0, symName: __ZL26ggml_backend_blas_device_i, symObjAddr: 0x1790, symBinAddr: 0x133020, symSize: 0x0 }
  - { offset: 0x30A8BC, size: 0x8, addend: 0x0, symName: '__ZNSt3__114__thread_proxyB8ne190102INS_5tupleIJNS_10unique_ptrINS_15__thread_structENS_14default_deleteIS3_EEEEMNS_19__async_assoc_stateIvNS_12__async_funcIZL25ggml_backend_blas_mul_matP25ggml_backend_blas_contextP11ggml_tensorE3$_0JEEEEEFvvEPSF_EEEEEPvSK_', symObjAddr: 0x1238, symBinAddr: 0x1056A0, symSize: 0x8C }
  - { offset: 0x30C05D, size: 0x8, addend: 0x0, symName: _ggml_backend_blas_init, symObjAddr: 0x0, symBinAddr: 0x104514, symSize: 0xB0 }
  - { offset: 0x30C0EF, size: 0x8, addend: 0x0, symName: _ggml_backend_is_blas, symObjAddr: 0xBC, symBinAddr: 0x1045D0, symSize: 0x18 }
  - { offset: 0x30C14F, size: 0x8, addend: 0x0, symName: _ggml_backend_blas_set_n_threads, symObjAddr: 0xD4, symBinAddr: 0x1045E8, symSize: 0x6C }
  - { offset: 0x30C1CC, size: 0x8, addend: 0x0, symName: __ZL30ggml_backend_blas_reg_get_nameP16ggml_backend_reg, symObjAddr: 0x140, symBinAddr: 0x104654, symSize: 0xC }
  - { offset: 0x30C1FA, size: 0x8, addend: 0x0, symName: __ZL30ggml_backend_blas_reg_get_nameP16ggml_backend_reg, symObjAddr: 0x140, symBinAddr: 0x104654, symSize: 0xC }
  - { offset: 0x30C226, size: 0x8, addend: 0x0, symName: __ZL38ggml_backend_blas_reg_get_device_countP16ggml_backend_reg, symObjAddr: 0x14C, symBinAddr: 0x104660, symSize: 0x8 }
  - { offset: 0x30C252, size: 0x8, addend: 0x0, symName: __ZL32ggml_backend_blas_reg_get_deviceP16ggml_backend_regm.cold.1, symObjAddr: 0x157C, symBinAddr: 0x105F48, symSize: 0x58 }
  - { offset: 0x30C26A, size: 0x8, addend: 0x0, symName: __ZL34ggml_backend_blas_get_proc_addressP16ggml_backend_regPKc, symObjAddr: 0x1C4, symBinAddr: 0x1046D8, symSize: 0x30 }
  - { offset: 0x30C2D5, size: 0x8, addend: 0x0, symName: __ZL26ggml_backend_blas_get_nameP12ggml_backend, symObjAddr: 0x204, symBinAddr: 0x104708, symSize: 0xC }
  - { offset: 0x30C521, size: 0x8, addend: 0x0, symName: __ZL22ggml_backend_blas_freeP12ggml_backend, symObjAddr: 0x210, symBinAddr: 0x104714, symSize: 0x94 }
  - { offset: 0x30DAA3, size: 0x8, addend: 0x0, symName: __ZL31ggml_backend_blas_graph_computeP12ggml_backendP11ggml_cgraph, symObjAddr: 0x2A4, symBinAddr: 0x1047A8, symSize: 0xD68 }
  - { offset: 0x30EFF0, size: 0x8, addend: 0x0, symName: __ZNKSt3__16vectorINS_6futureIvEENS_9allocatorIS2_EEE20__throw_length_errorB8ne190102Ev, symObjAddr: 0x100C, symBinAddr: 0x105510, symSize: 0x14 }
  - { offset: 0x30F038, size: 0x8, addend: 0x0, symName: '__ZNSt3__110unique_ptrINS_5tupleIJNS0_INS_15__thread_structENS_14default_deleteIS2_EEEEMNS_19__async_assoc_stateIvNS_12__async_funcIZL25ggml_backend_blas_mul_matP25ggml_backend_blas_contextP11ggml_tensorE3$_0JEEEEEFvvEPSE_EEENS3_ISI_EEED1B8ne190102Ev', symObjAddr: 0x12C4, symBinAddr: 0x10572C, symSize: 0x48 }
  - { offset: 0x30F29B, size: 0x8, addend: 0x0, symName: '__ZNSt3__119__async_assoc_stateIvNS_12__async_funcIZL25ggml_backend_blas_mul_matP25ggml_backend_blas_contextP11ggml_tensorE3$_0JEEEED1Ev', symObjAddr: 0x10BC, symBinAddr: 0x105524, symSize: 0x4C }
  - { offset: 0x30F31D, size: 0x8, addend: 0x0, symName: '__ZNSt3__119__async_assoc_stateIvNS_12__async_funcIZL25ggml_backend_blas_mul_matP25ggml_backend_blas_contextP11ggml_tensorE3$_0JEEEED0Ev', symObjAddr: 0x1108, symBinAddr: 0x105570, symSize: 0x50 }
  - { offset: 0x30F3A8, size: 0x8, addend: 0x0, symName: '__ZNSt3__119__async_assoc_stateIvNS_12__async_funcIZL25ggml_backend_blas_mul_matP25ggml_backend_blas_contextP11ggml_tensorE3$_0JEEEE16__on_zero_sharedEv', symObjAddr: 0x1158, symBinAddr: 0x1055C0, symSize: 0x28 }
  - { offset: 0x30F43E, size: 0x8, addend: 0x0, symName: '__ZNSt3__119__async_assoc_stateIvNS_12__async_funcIZL25ggml_backend_blas_mul_matP25ggml_backend_blas_contextP11ggml_tensorE3$_0JEEEE9__executeEv', symObjAddr: 0x1180, symBinAddr: 0x1055E8, symSize: 0xB8 }
  - { offset: 0x30F6C1, size: 0x8, addend: 0x0, symName: __ZL33ggml_backend_blas_device_get_nameP19ggml_backend_device, symObjAddr: 0x130C, symBinAddr: 0x105774, symSize: 0xC }
  - { offset: 0x30F6ED, size: 0x8, addend: 0x0, symName: __ZL40ggml_backend_blas_device_get_descriptionP19ggml_backend_device, symObjAddr: 0x1318, symBinAddr: 0x105780, symSize: 0xC }
  - { offset: 0x30F719, size: 0x8, addend: 0x0, symName: __ZL35ggml_backend_blas_device_get_memoryP19ggml_backend_devicePmS1_, symObjAddr: 0x1324, symBinAddr: 0x10578C, symSize: 0xC }
  - { offset: 0x30F744, size: 0x8, addend: 0x0, symName: __ZL33ggml_backend_blas_device_get_typeP19ggml_backend_device, symObjAddr: 0x1330, symBinAddr: 0x105798, symSize: 0x8 }
  - { offset: 0x30F7A3, size: 0x8, addend: 0x0, symName: __ZL34ggml_backend_blas_device_get_propsP19ggml_backend_deviceP22ggml_backend_dev_props, symObjAddr: 0x1338, symBinAddr: 0x1057A0, symSize: 0x2C }
  - { offset: 0x30F82E, size: 0x8, addend: 0x0, symName: __ZL37ggml_backend_blas_device_init_backendP19ggml_backend_devicePKc, symObjAddr: 0x1364, symBinAddr: 0x1057CC, symSize: 0xB0 }
  - { offset: 0x30F8D1, size: 0x8, addend: 0x0, symName: __ZL40ggml_backend_blas_device_get_buffer_typeP19ggml_backend_device, symObjAddr: 0x1414, symBinAddr: 0x10587C, symSize: 0x4 }
  - { offset: 0x30F900, size: 0x8, addend: 0x0, symName: __ZL40ggml_backend_blas_device_get_buffer_typeP19ggml_backend_device, symObjAddr: 0x1414, symBinAddr: 0x10587C, symSize: 0x4 }
  - { offset: 0x30F918, size: 0x8, addend: 0x0, symName: __ZL45ggml_backend_blas_device_buffer_from_host_ptrP19ggml_backend_devicePvmm, symObjAddr: 0x1418, symBinAddr: 0x105880, symSize: 0xC }
  - { offset: 0x30F9A9, size: 0x8, addend: 0x0, symName: __ZL36ggml_backend_blas_device_supports_opP19ggml_backend_devicePK11ggml_tensor, symObjAddr: 0x1424, symBinAddr: 0x10588C, symSize: 0x150 }
  - { offset: 0x30FB47, size: 0x8, addend: 0x0, symName: __ZL38ggml_backend_blas_device_supports_buftP19ggml_backend_deviceP24ggml_backend_buffer_type, symObjAddr: 0x1574, symBinAddr: 0x1059DC, symSize: 0x8 }
...
